

HI-TECH Software LITE Macro Assembler (PIC18) V9.63PL3 build 4692 
                                                       Wed Apr 08 01:50:36 2020

HI-TECH Software Omniscient Code Generator build 4692
     1  000000                     opt subtitle "HI-TECH Software Omniscient Code G
                                 enerator build 4692"
     2                           
     3                           	processor	18F4620
     4  000000                     porta	equ	0F80h
     5  000000                     portb	equ	0F81h
     6  000000                     portc	equ	0F82h
     7  000000                     portd	equ	0F83h
     8  000000                     porte	equ	0F84h
     9  000000                     lata	equ	0F89h
    10  000000                     latb	equ	0F8Ah
    11  000000                     latc	equ	0F8Bh
    12  000000                     latd	equ	0F8Ch
    13  000000                     late	equ	0F8Dh
    14  000000                     trisa	equ	0F92h
    15  000000                     trisb	equ	0F93h
    16  000000                     trisc	equ	0F94h
    17  000000                     trisd	equ	0F95h
    18  000000                     trise	equ	0F96h
    19  000000                     pie1	equ	0F9Dh
    20  000000                     pir1	equ	0F9Eh
    21  000000                     ipr1	equ	0F9Fh
    22  000000                     pie2	equ	0FA0h
    23  000000                     pir2	equ	0FA1h
    24  000000                     ipr2	equ	0FA2h
    25  000000                     t3con	equ	0FB1h
    26  000000                     tmr3l	equ	0FB2h
    27  000000                     tmr3h	equ	0FB3h
    28  000000                     ccp1con	equ	0FBDh
    29  000000                     ccpr1l	equ	0FBEh
    30  000000                     ccpr1h	equ	0FBFh
    31  000000                     adcon1	equ	0FC1h
    32  000000                     adcon0	equ	0FC2h
    33  000000                     adresl	equ	0FC3h
    34  000000                     adresh	equ	0FC4h
    35  000000                     sspcon2	equ	0FC5h
    36  000000                     sspcon1	equ	0FC6h
    37  000000                     sspstat	equ	0FC7h
    38  000000                     sspadd	equ	0FC8h
    39  000000                     sspbuf	equ	0FC9h
    40  000000                     t2con	equ	0FCAh
    41  000000                     pr2	equ	0FCBh
    42  000000                     tmr2	equ	0FCCh
    43  000000                     t1con	equ	0FCDh
    44  000000                     tmr1l	equ	0FCEh
    45  000000                     tmr1h	equ	0FCFh
    46  000000                     rcon	equ	0FD0h
    47  000000                     wdtcon	equ	0FD1h
    48  000000                     lvdcon	equ	0FD2h
    49  000000                     osccon	equ	0FD3h
    50  000000                     t0con	equ	0FD5h
    51  000000                     tmr0l	equ	0FD6h
    52  000000                     tmr0h	equ	0FD7h
    53  000000                     status	equ	0FD8h
    54  000000                     fsr2	equ	0FD9h
    55  000000                     fsr2l	equ	0FD9h
    56  000000                     fsr2h	equ	0FDAh
    57  000000                     plusw2	equ	0FDBh
    58  000000                     preinc2	equ	0FDCh
    59  000000                     postdec2	equ	0FDDh
    60  000000                     postinc2	equ	0FDEh
    61  000000                     indf2	equ	0FDFh
    62  000000                     bsr	equ	0FE0h
    63  000000                     fsr1	equ	0FE1h
    64  000000                     fsr1l	equ	0FE1h
    65  000000                     fsr1h	equ	0FE2h
    66  000000                     plusw1	equ	0FE3h
    67  000000                     preinc1	equ	0FE4h
    68  000000                     postdec1	equ	0FE5h
    69  000000                     postinc1	equ	0FE6h
    70  000000                     indf1	equ	0FE7h
    71  000000                     wreg	equ	0FE8h
    72  000000                     fsr0	equ	0FE9h
    73  000000                     fsr0l	equ	0FE9h
    74  000000                     fsr0h	equ	0FEAh
    75  000000                     plusw0	equ	0FEBh
    76  000000                     preinc0	equ	0FECh
    77  000000                     postdec0	equ	0FEDh
    78  000000                     postinc0	equ	0FEEh
    79  000000                     indf0	equ	0FEFh
    80  000000                     intcon3	equ	0FF0h
    81  000000                     intcon2	equ	0FF1h
    82  000000                     intcon	equ	0FF2h
    83  000000                     prod	equ	0FF3h
    84  000000                     prodl	equ	0FF3h
    85  000000                     prodh	equ	0FF4h
    86  000000                     tablat	equ	0FF5h
    87  000000                     tblptr	equ	0FF6h
    88  000000                     tblptrl	equ	0FF6h
    89  000000                     tblptrh	equ	0FF7h
    90  000000                     tblptru	equ	0FF8h
    91  000000                     pcl	equ	0FF9h
    92  000000                     pclat	equ	0FFAh
    93  000000                     pclath	equ	0FFAh
    94  000000                     pclatu	equ	0FFBh
    95  000000                     stkptr	equ	0FFCh
    96  000000                     tosl	equ	0FFDh
    97  000000                     tosh	equ	0FFEh
    98  000000                     tosu	equ	0FFFh
    99                           	global	__ramtop
   100                           	global	__accesstop
   101                           	GLOBAL	__activetblptr
   102  000000                     __activetblptr	EQU	3
   103                           	GLOBAL	__smallconst,__Lsmallconst
   104  000000                     __smallconst	EQU	__Lsmallconst
   105                           	GLOBAL	__mediumconst,__Lmediumconst
   106  000000                     __mediumconst	EQU	__Lmediumconst
   107                           	GLOBAL	__Ldata
   108  000000                     __Ldata	EQU	0
   109  000000                     main@i	equ	??_main+0
   110                           	global	main@i
   111  000000                     main@HEIGHT_f	equ	??_main+2
   112                           	global	main@HEIGHT_f
   113  000000                     main@HEIGHT_m	equ	??_main+5
   114                           	global	main@HEIGHT_m
   115  000000                     main@TEMP	equ	??_main+8
   116                           	global	main@TEMP
   117  000000                     main@array	equ	??_main+11
   118                           	global	main@array
   119  000000                     LCD_Out@i	equ	??_LCD_Out+0
   120                           	global	LCD_Out@i
   121  000000                     LCD_Out@A	equ	??_LCD_Out+1
   122                           	global	LCD_Out@A
   123  000000                     LCD_Out@DATA	equ	?_LCD_Out+0
   124                           	global	LCD_Out@DATA
   125  000000                     LCD_Out@D	equ	?_LCD_Out+4
   126                           	global	LCD_Out@D
   127  000000                     LCD_Out@N	equ	?_LCD_Out+5
   128                           	global	LCD_Out@N
   129  000000                     LCD_Move@Row	equ	?_LCD_Move+0
   130                           	global	LCD_Move@Row
   131  000000                     LCD_Move@Col	equ	?_LCD_Move+1
   132                           	global	LCD_Move@Col
   133  000000                     _sprintf$1154	equ	??_sprintf+0
   134                           	global	_sprintf$1154
   135  000000                     _sprintf$1168	equ	??_sprintf+3
   136                           	global	_sprintf$1168
   137  000000                     _sprintf$1169	equ	??_sprintf+6
   138                           	global	_sprintf$1169
   139  000000                     _sprintf$1179	equ	??_sprintf+7
   140                           	global	_sprintf$1179
   141  000000                     _sprintf$1187	equ	??_sprintf+10
   142                           	global	_sprintf$1187
   143  000000                     _sprintf$1193	equ	??_sprintf+13
   144                           	global	_sprintf$1193
   145  000000                     _sprintf$1194	equ	??_sprintf+16
   146                           	global	_sprintf$1194
   147  000000                     _sprintf$1202	equ	??_sprintf+17
   148                           	global	_sprintf$1202
   149  000000                     sprintf@c	equ	??_sprintf+18
   150                           	global	sprintf@c
   151  000000                     sprintf@ap	equ	??_sprintf+19
   152                           	global	sprintf@ap
   153  000000                     sprintf@exp	equ	??_sprintf+21
   154                           	global	sprintf@exp
   155  000000                     sprintf@width	equ	??_sprintf+23
   156                           	global	sprintf@width
   157  000000                     sprintf@prec	equ	??_sprintf+25
   158                           	global	sprintf@prec
   159  000000                     sprintf@flag	equ	??_sprintf+27
   160                           	global	sprintf@flag
   161  000000                     sprintf@integ	equ	??_sprintf+29
   162                           	global	sprintf@integ
   163  000000                     sprintf@fval	equ	??_sprintf+32
   164                           	global	sprintf@fval
   165  000000                     sprintf@_val	equ	??_sprintf+35
   166                           	global	sprintf@_val
   167  000000                     sprintf@temp	equ	??_sprintf+39
   168                           	global	sprintf@temp
   169  000000                     sprintf@sp	equ	?_sprintf+0
   170                           	global	sprintf@sp
   171  000000                     sprintf@f	equ	?_sprintf+2
   172                           	global	sprintf@f
   173  000000                     _scale$1210	equ	??_scale+0
   174                           	global	_scale$1210
   175  000000                     _scale$1211	equ	??_scale+2
   176                           	global	_scale$1211
   177  000000                     _scale$1212	equ	??_scale+4
   178                           	global	_scale$1212
   179  000000                     _scale$1213	equ	??_scale+6
   180                           	global	_scale$1213
   181  000000                     _scale$1217	equ	??_scale+9
   182                           	global	_scale$1217
   183  000000                     _scale$1224	equ	??_scale+11
   184                           	global	_scale$1224
   185  000000                     _scale$1225	equ	??_scale+13
   186                           	global	_scale$1225
   187  000000                     _scale$1226	equ	??_scale+15
   188                           	global	_scale$1226
   189  000000                     _scale$1227	equ	??_scale+17
   190                           	global	_scale$1227
   191  000000                     _scale$1231	equ	??_scale+20
   192                           	global	_scale$1231
   193  000000                     scale@scl	equ	?_scale+0
   194                           	global	scale@scl
   195  000000                     ___llmod@counter	equ	??___llmod+0
   196                           	global	___llmod@counter
   197  000000                     ___llmod@dividend	equ	?___llmod+0
   198                           	global	___llmod@dividend
   199  000000                     ___llmod@divisor	equ	?___llmod+4
   200                           	global	___llmod@divisor
   201  000000                     _fround$1239	equ	??_fround+0
   202                           	global	_fround$1239
   203  000000                     _fround$1240	equ	??_fround+2
   204                           	global	_fround$1240
   205  000000                     _fround$1241	equ	??_fround+4
   206                           	global	_fround$1241
   207  000000                     _fround$1242	equ	??_fround+6
   208                           	global	_fround$1242
   209  000000                     _fround$1247	equ	??_fround+9
   210                           	global	_fround$1247
   211  000000                     fround@prec	equ	?_fround+0
   212                           	global	fround@prec
   213  000000                     ___ftneg@f1	equ	?___ftneg+0
   214                           	global	___ftneg@f1
   215  000000                     ___fttol@sign1	equ	??___fttol+0
   216                           	global	___fttol@sign1
   217  000000                     ___fttol@exp1	equ	??___fttol+1
   218                           	global	___fttol@exp1
   219  000000                     ___fttol@lval	equ	??___fttol+2
   220                           	global	___fttol@lval
   221  000000                     ___fttol@f1	equ	?___fttol+0
   222                           	global	___fttol@f1
   223  000000                     ___asftadd@f1p	equ	?___asftadd+0
   224                           	global	___asftadd@f1p
   225  000000                     ___asftadd@f2	equ	?___asftadd+2
   226                           	global	___asftadd@f2
   227  000000                     ___asftmul@f1p	equ	?___asftmul+0
   228                           	global	___asftmul@f1p
   229  000000                     ___asftmul@f2	equ	?___asftmul+2
   230                           	global	___asftmul@f2
   231  000000                     ___ftge@ff1	equ	?___ftge+0
   232                           	global	___ftge@ff1
   233  000000                     ___ftge@ff2	equ	?___ftge+3
   234                           	global	___ftge@ff2
   235  000000                     ___asftdiv@f1p	equ	?___asftdiv+0
   236                           	global	___asftdiv@f1p
   237  000000                     ___asftdiv@f2	equ	?___asftdiv+2
   238                           	global	___asftdiv@f2
   239  000000                     ___lldiv@counter	equ	??___lldiv+0
   240                           	global	___lldiv@counter
   241  000000                     ___lldiv@quotient	equ	??___lldiv+1
   242                           	global	___lldiv@quotient
   243  000000                     ___lldiv@dividend	equ	?___lldiv+0
   244                           	global	___lldiv@dividend
   245  000000                     ___lldiv@divisor	equ	?___lldiv+4
   246                           	global	___lldiv@divisor
   247  000000                     ___lltoft@exp	equ	??___lltoft+0
   248                           	global	___lltoft@exp
   249  000000                     ___lltoft@f1	equ	??___lltoft+1
   250                           	global	___lltoft@f1
   251  000000                     ___lltoft@c	equ	?___lltoft+0
   252                           	global	___lltoft@c
   253  000000                     ___almod@sign	equ	??___almod+0
   254                           	global	___almod@sign
   255  000000                     ___almod@counter	equ	??___almod+1
   256                           	global	___almod@counter
   257  000000                     ___almod@dividend	equ	?___almod+0
   258                           	global	___almod@dividend
   259  000000                     ___almod@divisor	equ	?___almod+4
   260                           	global	___almod@divisor
   261  000000                     LCD_Write@c	equ	?_LCD_Write+0
   262                           	global	LCD_Write@c
   263  000000                     ___aldiv@counter	equ	??___aldiv+0
   264                           	global	___aldiv@counter
   265  000000                     ___aldiv@sign	equ	??___aldiv+1
   266                           	global	___aldiv@sign
   267  000000                     ___aldiv@quotient	equ	??___aldiv+2
   268                           	global	___aldiv@quotient
   269  000000                     ___aldiv@dividend	equ	?___aldiv+0
   270                           	global	___aldiv@dividend
   271  000000                     ___aldiv@divisor	equ	?___aldiv+4
   272                           	global	___aldiv@divisor
   273  000000                     isdigit@c	equ	?_isdigit+0
   274                           	global	isdigit@c
   275  000000                     __tdiv_to_l_@cntr	equ	??__tdiv_to_l_+0
   276                           	global	__tdiv_to_l_@cntr
   277  000000                     __tdiv_to_l_@exp1	equ	??__tdiv_to_l_+1
   278                           	global	__tdiv_to_l_@exp1
   279  000000                     __tdiv_to_l_@quot	equ	??__tdiv_to_l_+2
   280                           	global	__tdiv_to_l_@quot
   281  000000                     __tdiv_to_l_@f1	equ	?__tdiv_to_l_+0
   282                           	global	__tdiv_to_l_@f1
   283  000000                     __tdiv_to_l_@f2	equ	?__tdiv_to_l_+3
   284                           	global	__tdiv_to_l_@f2
   285  000000                     LCD_Inst@c	equ	?_LCD_Inst+0
   286                           	global	LCD_Inst@c
   287  000000                     ___asftsub@f1p	equ	?___asftsub+0
   288                           	global	___asftsub@f1p
   289  000000                     ___asftsub@f2	equ	?___asftsub+2
   290                           	global	___asftsub@f2
   291  000000                     ___ftmul@sign1	equ	??___ftmul+0
   292                           	global	___ftmul@sign1
   293  000000                     ___ftmul@exp1	equ	??___ftmul+1
   294                           	global	___ftmul@exp1
   295  000000                     ___ftmul@cntr	equ	??___ftmul+2
   296                           	global	___ftmul@cntr
   297  000000                     ___ftmul@f3	equ	??___ftmul+3
   298                           	global	___ftmul@f3
   299  000000                     ___ftmul@f1	equ	?___ftmul+0
   300                           	global	___ftmul@f1
   301  000000                     ___ftmul@f2	equ	?___ftmul+3
   302                           	global	___ftmul@f2
   303  000000                     ___wmul@product	equ	??___wmul+0
   304                           	global	___wmul@product
   305  000000                     ___wmul@multiplier	equ	?___wmul+0
   306                           	global	___wmul@multiplier
   307  000000                     ___wmul@multiplicand	equ	?___wmul+2
   308                           	global	___wmul@multiplicand
   309  000000                     Wait_ms@i	equ	??_Wait_ms+0
   310                           	global	Wait_ms@i
   311  000000                     Wait_ms@j	equ	??_Wait_ms+2
   312                           	global	Wait_ms@j
   313  000000                     Wait_ms@X	equ	?_Wait_ms+0
   314                           	global	Wait_ms@X
   315  000000                     ___awdiv@counter	equ	??___awdiv+0
   316                           	global	___awdiv@counter
   317  000000                     ___awdiv@sign	equ	??___awdiv+1
   318                           	global	___awdiv@sign
   319  000000                     ___awdiv@quotient	equ	??___awdiv+2
   320                           	global	___awdiv@quotient
   321  000000                     ___awdiv@dividend	equ	?___awdiv+0
   322                           	global	___awdiv@dividend
   323  000000                     ___awdiv@divisor	equ	?___awdiv+2
   324                           	global	___awdiv@divisor
   325  000000                     ___ftdiv@exp2	equ	??___ftdiv+0
   326                           	global	___ftdiv@exp2
   327  000000                     ___ftdiv@sign1	equ	??___ftdiv+1
   328                           	global	___ftdiv@sign1
   329  000000                     ___ftdiv@exp1	equ	??___ftdiv+2
   330                           	global	___ftdiv@exp1
   331  000000                     ___ftdiv@sign2	equ	??___ftdiv+3
   332                           	global	___ftdiv@sign2
   333  000000                     ___ftdiv@f3	equ	??___ftdiv+4
   334                           	global	___ftdiv@f3
   335  000000                     ___ftdiv@f1	equ	?___ftdiv+0
   336                           	global	___ftdiv@f1
   337  000000                     ___ftdiv@f2	equ	?___ftdiv+3
   338                           	global	___ftdiv@f2
   339  000000                     ___ftsub@f1	equ	?___ftsub+0
   340                           	global	___ftsub@f1
   341  000000                     ___ftsub@f2	equ	?___ftsub+3
   342                           	global	___ftsub@f2
   343  000000                     ___awmod@sign	equ	??___awmod+0
   344                           	global	___awmod@sign
   345  000000                     ___awmod@counter	equ	??___awmod+1
   346                           	global	___awmod@counter
   347  000000                     ___awmod@dividend	equ	?___awmod+0
   348                           	global	___awmod@dividend
   349  000000                     ___awmod@divisor	equ	?___awmod+2
   350                           	global	___awmod@divisor
   351  000000                     LCD_Pause@x	equ	??_LCD_Pause+0
   352                           	global	LCD_Pause@x
   353  000000                     ___ftadd@sign2	equ	??___ftadd+0
   354                           	global	___ftadd@sign2
   355  000000                     ___ftadd@cntr	equ	??___ftadd+1
   356                           	global	___ftadd@cntr
   357  000000                     ___ftadd@sign1	equ	??___ftadd+2
   358                           	global	___ftadd@sign1
   359  000000                     ___ftadd@exp2	equ	??___ftadd+3
   360                           	global	___ftadd@exp2
   361  000000                     ___ftadd@exp1	equ	??___ftadd+4
   362                           	global	___ftadd@exp1
   363  000000                     ___ftadd@f1	equ	?___ftadd+0
   364                           	global	___ftadd@f1
   365  000000                     ___ftadd@f2	equ	?___ftadd+3
   366                           	global	___ftadd@f2
   367  000000                     ___ftunpack@sign	equ	??___ftunpack+0
   368                           	global	___ftunpack@sign
   369  000000                     ___ftunpack@arg	equ	?___ftunpack+0
   370                           	global	___ftunpack@arg
   371  000000                     ___ftunpack@exp	equ	?___ftunpack+2
   372                           	global	___ftunpack@exp
   373  000000                     ___ftpack@arg	equ	?___ftpack+0
   374                           	global	___ftpack@arg
   375  000000                     ___ftpack@exp	equ	?___ftpack+2
   376                           	global	___ftpack@exp
   377                           ;Data sizes: Strings 27, constant 150, data 0, b
                                 ss 0, persistent 0 stack 156
   378                           	global	_main
   379                           	global	??_main
   380                           	global	?_main
   381                                   psect   text0,class=CODE,space=0,reloc=2
   382                           
   383                           	opt lm
   384                           	file	"C:\Users\leeee\Desktop\Desktop\School\Col
                                 lege\4th Year\Semester 2\Embedded Systems\HW\HW1
                                 0\HW10.c"
   385                           	line	33
   386  000000                     	__size_of_main	equ	__end_of_main-_main
   387                           ;HW10.c: 32: void main(void)
   388                           ;HW10.c: 33: {
   389                           	
   390  003B08                     _main:		; BSR set to: ?
   391                           
   392                           	opt stack 30
   393                           	line	37
   394  003B08  0E00               	movlw	low(0)
   395  003B0A  6E92               	movwf	((c:3986)),c	;volatile
   396                           	line	38
   397                           ;HW10.c: 38: TRISB = 0xFF;
   398  003B0C  6893               	setf	((c:3987)),c	;volatile
   399                           	line	39
   400                           ;HW10.c: 39: TRISC = 0x04;
   401  003B0E  0E04               	movlw	low(04h)
   402  003B10  6E94               	movwf	((c:3988)),c	;volatile
   403                           	line	40
   404                           ;HW10.c: 40: TRISD = 0;
   405  003B12  0E00               	movlw	low(0)
   406  003B14  6E95               	movwf	((c:3989)),c	;volatile
   407                           	line	41
   408                           ;HW10.c: 41: ADCON1 = 0x0F;
   409  003B16  0101               	movlb	1	; () banked
   410  003B18  6F20               	movwf	(??_main+32+0)&0ffh
   411  003B1A  0E0F               	movlw	low(0Fh)
   412  003B1C  6EC1               	movwf	((c:4033)),c
   413  003B1E  0101               	movlb	1	; () banked
   414  003B20  5120               	movf	(??_main+32+0)&0ffh,w
   415                           	line	44
   416                           ;HW10.c: 44: TMR1CS = 0;
   417  003B22  92CD               	bcf	c:(32361/8),(32361)&7
   418                           	line	45
   419                           ;HW10.c: 45: T1CON = 0x81;
   420  003B24  0101               	movlb	1	; () banked
   421  003B26  6F20               	movwf	(??_main+32+0)&0ffh
   422  003B28  0E81               	movlw	low(081h)
   423  003B2A  6ECD               	movwf	((c:4045)),c
   424  003B2C  0101               	movlb	1	; () banked
   425  003B2E  5120               	movf	(??_main+32+0)&0ffh,w
   426                           	line	46
   427                           ;HW10.c: 46: TMR1ON = 1;
   428  003B30  80CD               	bsf	c:(32360/8),(32360)&7
   429                           	line	47
   430                           ;HW10.c: 47: TMR1IE = 1;
   431  003B32  809D               	bsf	c:(31976/8),(31976)&7
   432                           	line	48
   433                           ;HW10.c: 48: TMR1IP = 1;
   434  003B34  809F               	bsf	c:(31992/8),(31992)&7
   435                           	line	49
   436                           ;HW10.c: 49: PEIE = 1;
   437  003B36  8CF2               	bsf	c:(32662/8),(32662)&7
   438                           	line	51
   439                           ;HW10.c: 51: TRISC2 = 1;
   440  003B38  8494               	bsf	c:(31906/8),(31906)&7	;volatile
   441                           	line	52
   442                           ;HW10.c: 52: CCP1CON = 0x05;
   443  003B3A  0E05               	movlw	low(05h)
   444  003B3C  6EBD               	movwf	((c:4029)),c	;volatile
   445                           	line	53
   446                           ;HW10.c: 53: CCP1IE = 1;
   447  003B3E  849D               	bsf	c:(31978/8),(31978)&7
   448                           	line	54
   449                           ;HW10.c: 54: PEIE = 1;
   450  003B40  8CF2               	bsf	c:(32662/8),(32662)&7
   451                           	line	56
   452                           ;HW10.c: 56: TRISC1 = 1;
   453  003B42  8294               	bsf	c:(31905/8),(31905)&7	;volatile
   454                           	line	57
   455                           ;HW10.c: 57: CCP2CON = 0x04;
   456  003B44  0E04               	movlw	low(04h)
   457  003B46  6EBA               	movwf	((c:4026)),c	;volatile
   458                           	line	58
   459                           ;HW10.c: 58: CCP2IE = 1;
   460  003B48  80A0               	bsf	c:(32000/8),(32000)&7
   461                           	line	59
   462                           ;HW10.c: 59: PEIE = 1;
   463  003B4A  8CF2               	bsf	c:(32662/8),(32662)&7
   464                           	line	61
   465                           ;HW10.c: 61: LCD_Init();
   466  003B4C  ECBD  F028         	call	_LCD_Init	;wreg free
   467                           	line	62
   468                           ;HW10.c: 62: Wait_ms(1000);
   469  003B50  0EE8               	movlw	low(03E8h)
   470  003B52  0101               	movlb	1	; () banked
   471  003B54  0101               	movlb	1	; () banked
   472  003B56  6F26               	movwf	((?_Wait_ms))&0ffh
   473  003B58  0E03               	movlw	high(03E8h)
   474  003B5A  0101               	movlb	1	; () banked
   475  003B5C  6F27               	movwf	((?_Wait_ms+1))&0ffh
   476  003B5E  EC48  F029         	call	_Wait_ms	;wreg free
   477                           	line	64
   478                           ;HW10.c: 64: TIME = 0;
   479  003B62  0E00               	movlw	low(0)
   480  003B64  6E0C               	movwf	((c:12)),c
   481  003B66  0E00               	movlw	high(0)
   482  003B68  6E0D               	movwf	((c:12+1)),c
   483  003B6A  0E00               	movlw	low highword(0)
   484  003B6C  6E0E               	movwf	((c:12+2)),c
   485  003B6E  0E00               	movlw	high highword(0)
   486  003B70  6E0F               	movwf	((c:12+3)),c
   487                           	line	67
   488                           ;HW10.c: 67: GIE = 1;
   489  003B72  8EF2               	bsf	c:(32663/8),(32663)&7
   490                           	line	69
   491                           ;HW10.c: 69: while(1) {
   492                           	
   493  003B74                     l173:		; BSR set to: ?
   494                           
   495                           	line	70
   496                           ;HW10.c: 70: Final_TIME = TIME1-TIME0;
   497  003B74  5000               	movf	((c:0)),c,w
   498  003B76  5C04               	subwf	((c:4)),c,w
   499  003B78  6E08               	movwf	((c:8)),c
   500  003B7A  5001               	movf	((c:0+1)),c,w
   501  003B7C  5805               	subwfb	((c:4+1)),c,w
   502  003B7E  6E09               	movwf	1+((c:8)),c
   503                           	
   504  003B80  5002               	movf	((c:0+2)),c,w
   505  003B82  5806               	subwfb	((c:4+2)),c,w
   506  003B84  6E0A               	movwf	2+((c:8)),c
   507                           	
   508  003B86  5003               	movf	((c:0+3)),c,w
   509  003B88  5807               	subwfb	((c:4+3)),c,w
   510  003B8A  6E0B               	movwf	3+((c:8)),c
   511                           	line	71
   512                           ;HW10.c: 71: TEMP = Final_TIME / (10000000);
   513  003B8C  0E80               	movlw	low(0989680h)
   514  003B8E  0101               	movlb	1	; () banked
   515  003B90  0101               	movlb	1	; () banked
   516  003B92  6F5F               	movwf	(0+(?___lldiv+04h))&0ffh
   517  003B94  0E96               	movlw	high(0989680h)
   518  003B96  0101               	movlb	1	; () banked
   519  003B98  6F60               	movwf	(1+(?___lldiv+04h))&0ffh
   520  003B9A  0E98               	movlw	low highword(0989680h)
   521  003B9C  0101               	movlb	1	; () banked
   522  003B9E  6F61               	movwf	(2+(?___lldiv+04h))&0ffh
   523  003BA0  0E00               	movlw	high highword(0989680h)
   524  003BA2  0101               	movlb	1	; () banked
   525  003BA4  6F62               	movwf	(3+(?___lldiv+04h))&0ffh
   526  003BA6  C008 F15B          	movff	(c:8),(?___lldiv)
   527  003BAA  C009 F15C          	movff	(c:8+1),(?___lldiv+1)
   528  003BAE  C00A F15D          	movff	(c:8+2),(?___lldiv+2)
   529  003BB2  C00B F15E          	movff	(c:8+3),(?___lldiv+3)
   530  003BB6  ECAD  F025         	call	___lldiv	;wreg free
   531  003BBA  C15B  F15B         	movff	0+?___lldiv,(?___lltoft)
   532  003BBE  C15C  F15C         	movff	1+?___lldiv,(?___lltoft+1)
   533  003BC2  C15D  F15D         	movff	2+?___lldiv,(?___lltoft+2)
   534  003BC6  C15E  F15E         	movff	3+?___lldiv,(?___lltoft+3)
   535  003BCA  EC9D  F027         	call	___lltoft	;wreg free
   536  003BCE  C15B  F108         	movff	0+?___lltoft,(main@TEMP)
   537  003BD2  C15C  F109         	movff	1+?___lltoft,(main@TEMP+1)
   538  003BD6  C15D  F10A         	movff	2+?___lltoft,(main@TEMP+2)
   539                           	line	72
   540                           ;HW10.c: 72: if(RB1){
   541  003BDA  A281               	btfss	c:(31753/8),(31753)&7	;volatile
   542  003BDC  D001               	goto	u5021
   543  003BDE  D001               	goto	u5020
   544  003BE0                     u5021:
   545  003BE0  D0D1               	goto	l172
   546  003BE2                     u5020:
   547                           	line	73
   548                           ;HW10.c: 73: HEIGHT_m = 4.9 * (TEMP)*(TEMP);
   549  003BE2  C108  F17D         	movff	(main@TEMP),0+(?___ftmul+03h)
   550  003BE6  C109  F17E         	movff	(main@TEMP+1),1+(?___ftmul+03h)
   551  003BEA  C10A  F17F         	movff	(main@TEMP+2),2+(?___ftmul+03h)
   552  003BEE  C108  F17A         	movff	(main@TEMP),(?___ftmul)
   553  003BF2  C109  F17B         	movff	(main@TEMP+1),(?___ftmul+1)
   554  003BF6  C10A  F17C         	movff	(main@TEMP+2),(?___ftmul+2)
   555  003BFA  ECA9  F020         	call	___ftmul	;wreg free
   556  003BFE  C17A  F17A         	movff	0+?___ftmul,(?___ftmul)
   557  003C02  C17B  F17B         	movff	1+?___ftmul,(?___ftmul+1)
   558  003C06  C17C  F17C         	movff	2+?___ftmul,(?___ftmul+2)
   559  003C0A  0ECD               	movlw	low(float24(4.9000000000000004))
   560  003C0C  0101               	movlb	1	; () banked
   561  003C0E  0101               	movlb	1	; () banked
   562  003C10  6F7D               	movwf	(0+(?___ftmul+03h))&0ffh
   563  003C12  0E9C               	movlw	high(float24(4.9000000000000004))
   564  003C14  0101               	movlb	1	; () banked
   565  003C16  0101               	movlb	1	; () banked
   566  003C18  6F7E               	movwf	(1+(?___ftmul+03h))&0ffh
   567  003C1A  0E40               	movlw	low highword(float24(4.9000000000000004))
   568  003C1C  0101               	movlb	1	; () banked
   569  003C1E  0101               	movlb	1	; () banked
   570  003C20  6F7F               	movwf	(2+(?___ftmul+03h))&0ffh
   571                           
   572  003C22  ECA9  F020         	call	___ftmul	;wreg free
   573  003C26  C17A  F105         	movff	0+?___ftmul,(main@HEIGHT_m)
   574  003C2A  C17B  F106         	movff	1+?___ftmul,(main@HEIGHT_m+1)
   575  003C2E  C17C  F107         	movff	2+?___ftmul,(main@HEIGHT_m+2)
   576                           	line	74
   577                           ;HW10.c: 74: HEIGHT_f = HEIGHT_m * 3.28;
   578  003C32  0EEC               	movlw	low(float24(3.2799999999999998))
   579  003C34  0101               	movlb	1	; () banked
   580  003C36  0101               	movlb	1	; () banked
   581  003C38  6F7D               	movwf	(0+(?___ftmul+03h))&0ffh
   582  003C3A  0E51               	movlw	high(float24(3.2799999999999998))
   583  003C3C  0101               	movlb	1	; () banked
   584  003C3E  0101               	movlb	1	; () banked
   585  003C40  6F7E               	movwf	(1+(?___ftmul+03h))&0ffh
   586  003C42  0E40               	movlw	low highword(float24(3.2799999999999998))
   587  003C44  0101               	movlb	1	; () banked
   588  003C46  0101               	movlb	1	; () banked
   589  003C48  6F7F               	movwf	(2+(?___ftmul+03h))&0ffh
   590                           
   591  003C4A  C105  F17A         	movff	(main@HEIGHT_m),(?___ftmul)
   592  003C4E  C106  F17B         	movff	(main@HEIGHT_m+1),(?___ftmul+1)
   593  003C52  C107  F17C         	movff	(main@HEIGHT_m+2),(?___ftmul+2)
   594  003C56  ECA9  F020         	call	___ftmul	;wreg free
   595  003C5A  C17A  F102         	movff	0+?___ftmul,(main@HEIGHT_f)
   596  003C5E  C17B  F103         	movff	1+?___ftmul,(main@HEIGHT_f+1)
   597  003C62  C17C  F104         	movff	2+?___ftmul,(main@HEIGHT_f+2)
   598                           	line	76
   599                           ;HW10.c: 75: char array[21];
   600                           ;HW10.c: 76: sprintf(array, 21 ,"%f", HEIGHT_f);
   601  003C66  C102  F128         	movff	(main@HEIGHT_f),0+(?_sprintf+06h)
   602  003C6A  C103  F129         	movff	(main@HEIGHT_f+1),1+(?_sprintf+06h)
   603  003C6E  C104  F12A         	movff	(main@HEIGHT_f+2),2+(?_sprintf+06h)
   604  003C72  0EAF               	movlw	low(STR_1)
   605  003C74  0101               	movlb	1	; () banked
   606  003C76  0101               	movlb	1	; () banked
   607  003C78  6F26               	movwf	(0+(?_sprintf+04h))&0ffh
   608  003C7A  0E10               	movlw	high(STR_1)
   609  003C7C  0101               	movlb	1	; () banked
   610  003C7E  6F27               	movwf	(1+(?_sprintf+04h))&0ffh
   611  003C80  0E15               	movlw	low(015h)
   612  003C82  0101               	movlb	1	; () banked
   613  003C84  0101               	movlb	1	; () banked
   614  003C86  6F24               	movwf	(0+(?_sprintf+02h))&0ffh
   615  003C88  0E00               	movlw	high(015h)
   616  003C8A  0101               	movlb	1	; () banked
   617  003C8C  6F25               	movwf	(1+(?_sprintf+02h))&0ffh
   618  003C8E  0101               	movlb	1	; () banked
   619  003C90  0E0B               	movlw	low(main@array)
   620  003C92  0101               	movlb	1	; () banked
   621  003C94  0101               	movlb	1	; () banked
   622  003C96  6F22               	movwf	((?_sprintf))&0ffh
   623  003C98  0101               	movlb	1	; () banked
   624  003C9A  0E01               	movlw	high(main@array)
   625  003C9C  0101               	movlb	1	; () banked
   626  003C9E  6F23               	movwf	((?_sprintf+1))&0ffh
   627  003CA0  EC5A  F008         	call	_sprintf	;wreg free
   628                           	line	77
   629                           ;HW10.c: 77: LCD_Move(0,0); LCD_Out(Final_TIME, 
                                 9, 7);
   630  003CA4  0101               	movlb	1	; () banked
   631  003CA6  6F20               	movwf	(??_main+32+0)&0ffh
   632  003CA8  0E00               	movlw	low(0)
   633  003CAA  0101               	movlb	1	; () banked
   634  003CAC  0101               	movlb	1	; () banked
   635  003CAE  6F23               	movwf	(0+(?_LCD_Move+01h))&0ffh
   636  003CB0  0101               	movlb	1	; () banked
   637  003CB2  5120               	movf	(??_main+32+0)&0ffh,w
   638  003CB4  0101               	movlb	1	; () banked
   639  003CB6  6F21               	movwf	(??_main+33+0)&0ffh
   640  003CB8  0E00               	movlw	low(0)
   641  003CBA  0101               	movlb	1	; () banked
   642  003CBC  0101               	movlb	1	; () banked
   643  003CBE  6F22               	movwf	((?_LCD_Move))&0ffh
   644  003CC0  0101               	movlb	1	; () banked
   645  003CC2  5121               	movf	(??_main+33+0)&0ffh,w
   646  003CC4  EC06  F029         	call	_LCD_Move	;wreg free
   647  003CC8  0101               	movlb	1	; () banked
   648  003CCA  6F20               	movwf	(??_main+32+0)&0ffh
   649  003CCC  0E07               	movlw	low(07h)
   650  003CCE  0101               	movlb	1	; () banked
   651  003CD0  0101               	movlb	1	; () banked
   652  003CD2  6F27               	movwf	(0+(?_LCD_Out+05h))&0ffh
   653  003CD4  0101               	movlb	1	; () banked
   654  003CD6  5120               	movf	(??_main+32+0)&0ffh,w
   655  003CD8  0101               	movlb	1	; () banked
   656  003CDA  6F21               	movwf	(??_main+33+0)&0ffh
   657  003CDC  0E09               	movlw	low(09h)
   658  003CDE  0101               	movlb	1	; () banked
   659  003CE0  0101               	movlb	1	; () banked
   660  003CE2  6F26               	movwf	(0+(?_LCD_Out+04h))&0ffh
   661  003CE4  0101               	movlb	1	; () banked
   662  003CE6  5121               	movf	(??_main+33+0)&0ffh,w
   663  003CE8  C008 F122          	movff	(c:8),(?_LCD_Out)
   664  003CEC  C009 F123          	movff	(c:8+1),(?_LCD_Out+1)
   665  003CF0  C00A F124          	movff	(c:8+2),(?_LCD_Out+2)
   666  003CF4  C00B F125          	movff	(c:8+3),(?_LCD_Out+3)
   667  003CF8  EC10  F023         	call	_LCD_Out	;wreg free
   668                           	line	79
   669                           ;HW10.c: 79: LCD_Move(1,0); for (i=0;i<20;i++) L
                                 CD_Write(array[i]);
   670  003CFC  0101               	movlb	1	; () banked
   671  003CFE  6F20               	movwf	(??_main+32+0)&0ffh
   672  003D00  0E00               	movlw	low(0)
   673  003D02  0101               	movlb	1	; () banked
   674  003D04  0101               	movlb	1	; () banked
   675  003D06  6F23               	movwf	(0+(?_LCD_Move+01h))&0ffh
   676  003D08  0101               	movlb	1	; () banked
   677  003D0A  5120               	movf	(??_main+32+0)&0ffh,w
   678  003D0C  0101               	movlb	1	; () banked
   679  003D0E  6F21               	movwf	(??_main+33+0)&0ffh
   680  003D10  0E01               	movlw	low(01h)
   681  003D12  0101               	movlb	1	; () banked
   682  003D14  0101               	movlb	1	; () banked
   683  003D16  6F22               	movwf	((?_LCD_Move))&0ffh
   684  003D18  0101               	movlb	1	; () banked
   685  003D1A  5121               	movf	(??_main+33+0)&0ffh,w
   686  003D1C  EC06  F029         	call	_LCD_Move	;wreg free
   687  003D20  0E00               	movlw	low(0)
   688  003D22  0101               	movlb	1	; () banked
   689  003D24  0101               	movlb	1	; () banked
   690  003D26  6F00               	movwf	((main@i))&0ffh
   691  003D28  0E00               	movlw	high(0)
   692  003D2A  0101               	movlb	1	; () banked
   693  003D2C  6F01               	movwf	((main@i+1))&0ffh
   694  003D2E  0E14               	movlw	014h
   695  003D30  0101               	movlb	1	; () banked
   696  003D32  0101               	movlb	1	; () banked
   697  003D34  5D00               	subwf	((main@i))&0ffh,w
   698  003D36  0E00               	movlw	0
   699  003D38  0101               	movlb	1	; () banked
   700  003D3A  5901               	subwfb	((main@i+1))&0ffh,w
   701  003D3C  A0D8               	btfss	status,0
   702  003D3E  D001               	goto	u5031
   703  003D40  D001               	goto	u5030
   704  003D42                     u5031:
   705  003D42  D001               	goto	l176
   706  003D44                     u5030:
   707  003D44  D01F               	goto	l172
   708                           	
   709  003D46                     l176:		; BSR set to: ?
   710                           
   711  003D46  0101               	movlb	1	; () banked
   712  003D48  0E0B               	movlw	low(main@array)
   713  003D4A  0101               	movlb	1	; () banked
   714  003D4C  0101               	movlb	1	; () banked
   715  003D4E  2500               	addwf	((main@i))&0ffh,w
   716  003D50  6EE9               	movwf	c:fsr0l
   717  003D52  6AEA               	clrf	1+c:fsr0l
   718  003D54  0101               	movlb	1	; () banked
   719  003D56  0E01               	movlw	high(main@array)
   720  003D58  22EA               	addwfc	1+c:fsr0l
   721  003D5A  50EF               	movf	indf0,w
   722  003D5C  0101               	movlb	1	; () banked
   723  003D5E  0101               	movlb	1	; () banked
   724  003D60  6F34               	movwf	((?_LCD_Write))&0ffh
   725  003D62  ECAA  F02A         	call	_LCD_Write	;wreg free
   726  003D66  0101               	movlb	1	; () banked
   727  003D68  0101               	movlb	1	; () banked
   728  003D6A  4B00               	infsnz	((main@i))&0ffh
   729  003D6C  2B01               	incf	((main@i+1))&0ffh
   730  003D6E  0E14               	movlw	014h
   731  003D70  0101               	movlb	1	; () banked
   732  003D72  0101               	movlb	1	; () banked
   733  003D74  5D00               	subwf	((main@i))&0ffh,w
   734  003D76  0E00               	movlw	0
   735  003D78  0101               	movlb	1	; () banked
   736  003D7A  5901               	subwfb	((main@i+1))&0ffh,w
   737  003D7C  A0D8               	btfss	status,0
   738  003D7E  D001               	goto	u5041
   739  003D80  D001               	goto	u5040
   740  003D82                     u5041:
   741  003D82  D7E1               	goto	l176
   742  003D84                     u5040:
   743                           	
   744  003D84                     l177:		; BSR set to: ?
   745                           
   746                           	line	80
   747                           	
   748  003D84                     l175:		; BSR set to: ?
   749                           
   750                           	line	81
   751                           	
   752  003D84                     l172:		; BSR set to: ?
   753                           
   754                           	line	69
   755  003D84  D6F7               	goto	l173
   756                           	global	start
   757  003D86  EF0C  F004         	goto	start
   758                           	opt stack 0
   759                           GLOBAL __end_of_main
   760  003D8A                     	__end_of_main:
   761                           	FNSIZE	_main,34,0
   762                           ; =============== function _main ends ==========
                                 ==
   763                           
   764                                   psect   text1,class=CODE,space=0,reloc=2
   765                           	line	82
   766                           
   767                           	opt lm
   768                           	signat	_main,88
   769                           	global	_LCD_Out
   770                           	global	??_LCD_Out
   771                           	global	?_LCD_Out
   772                           	file	"C:\Users\leeee\Desktop\Desktop\School\Col
                                 lege\4th Year\Semester 2\Embedded Systems\HW\HW1
                                 0\lcd_portd.c"
   773                           	line	87
   774  000000                     	__size_of_LCD_Out	equ	__end_of_LCD_Out-_LCD_Out
   775                           ;lcd_portd.c: 86: void LCD_Out(long int DATA, un
                                 signed char D, unsigned char N)
   776                           ;lcd_portd.c: 87: {
   777                           	
   778  004620                     _LCD_Out:		; BSR set to: ?
   779                           
   780                           	opt stack 29
   781                           	line	90
   782  004620  0101               	movlb	1	; () banked
   783  004622  0101               	movlb	1	; () banked
   784  004624  AF25               	btfss	((LCD_Out@DATA+3))&0ffh,7
   785  004626  D001               	goto	u5051
   786  004628  D001               	goto	u5050
   787  00462A                     u5051:
   788  00462A  D01B               	goto	l136
   789  00462C                     u5050:
   790                           	line	91
   791                           ;lcd_portd.c: 91: LCD_Write('-');
   792  00462C  0101               	movlb	1	; () banked
   793  00462E  6F33               	movwf	(??_LCD_Out+11+0)&0ffh
   794  004630  0E2D               	movlw	low(02Dh)
   795  004632  0101               	movlb	1	; () banked
   796  004634  0101               	movlb	1	; () banked
   797  004636  6F34               	movwf	((?_LCD_Write))&0ffh
   798  004638  0101               	movlb	1	; () banked
   799  00463A  5133               	movf	(??_LCD_Out+11+0)&0ffh,w
   800  00463C  ECAA  F02A         	call	_LCD_Write	;wreg free
   801                           	line	92
   802                           ;lcd_portd.c: 92: DATA = -DATA;
   803  004640  0101               	movlb	1	; () banked
   804  004642  0101               	movlb	1	; () banked
   805  004644  1F25               	comf	((LCD_Out@DATA+3))&0ffh
   806  004646  0101               	movlb	1	; () banked
   807  004648  1F24               	comf	((LCD_Out@DATA+2))&0ffh
   808  00464A  0101               	movlb	1	; () banked
   809  00464C  1F23               	comf	((LCD_Out@DATA+1))&0ffh
   810  00464E  0101               	movlb	1	; () banked
   811  004650  6D22               	negf	((LCD_Out@DATA))&0ffh
   812  004652  0E00               	movlw	0
   813  004654  0101               	movlb	1	; () banked
   814  004656  2323               	addwfc	((LCD_Out@DATA+1))&0ffh
   815  004658  0101               	movlb	1	; () banked
   816  00465A  2324               	addwfc	((LCD_Out@DATA+2))&0ffh
   817  00465C  0101               	movlb	1	; () banked
   818  00465E  2325               	addwfc	((LCD_Out@DATA+3))&0ffh
   819                           	line	93
   820                           ;lcd_portd.c: 93: }
   821  004660  D00A               	goto	l137
   822                           	line	94
   823                           	
   824  004662                     l136:		; BSR set to: ?
   825                           
   826                           ;lcd_portd.c: 94: else LCD_Write(' ');
   827  004662  0101               	movlb	1	; () banked
   828  004664  6F33               	movwf	(??_LCD_Out+11+0)&0ffh
   829  004666  0E20               	movlw	low(020h)
   830  004668  0101               	movlb	1	; () banked
   831  00466A  0101               	movlb	1	; () banked
   832  00466C  6F34               	movwf	((?_LCD_Write))&0ffh
   833  00466E  0101               	movlb	1	; () banked
   834  004670  5133               	movf	(??_LCD_Out+11+0)&0ffh,w
   835  004672  ECAA  F02A         	call	_LCD_Write	;wreg free
   836                           	
   837  004676                     l137:		; BSR set to: ?
   838                           
   839                           	line	95
   840                           ;lcd_portd.c: 95: for (i=0; i<10; i++) {
   841  004676  0101               	movlb	1	; () banked
   842  004678  6F33               	movwf	(??_LCD_Out+11+0)&0ffh
   843  00467A  0E00               	movlw	low(0)
   844  00467C  0101               	movlb	1	; () banked
   845  00467E  0101               	movlb	1	; () banked
   846  004680  6F28               	movwf	((LCD_Out@i))&0ffh
   847  004682  0101               	movlb	1	; () banked
   848  004684  5133               	movf	(??_LCD_Out+11+0)&0ffh,w
   849  004686  0E09               	movlw	(0Ah-1)
   850  004688  0101               	movlb	1	; () banked
   851  00468A  0101               	movlb	1	; () banked
   852  00468C  6528               	cpfsgt	((LCD_Out@i))&0ffh
   853  00468E  D001               	goto	u5061
   854  004690  D001               	goto	u5060
   855  004692                     u5061:
   856  004692  D001               	goto	l138
   857  004694                     u5060:
   858  004694  D04E               	goto	l139
   859                           	
   860  004696                     l138:		; BSR set to: ?
   861                           
   862                           	line	96
   863                           ;lcd_portd.c: 96: A[i] = DATA % 10;
   864  004696  0101               	movlb	1	; () banked
   865  004698  0E29               	movlw	low(LCD_Out@A)
   866  00469A  0101               	movlb	1	; () banked
   867  00469C  0101               	movlb	1	; () banked
   868  00469E  2528               	addwf	((LCD_Out@i))&0ffh,w
   869  0046A0  6EE9               	movwf	c:fsr0l
   870  0046A2  6AEA               	clrf	1+c:fsr0l
   871  0046A4  0101               	movlb	1	; () banked
   872  0046A6  0E01               	movlw	high(LCD_Out@A)
   873  0046A8  22EA               	addwfc	1+c:fsr0l
   874  0046AA  0E0A               	movlw	low(0Ah)
   875  0046AC  0101               	movlb	1	; () banked
   876  0046AE  0101               	movlb	1	; () banked
   877  0046B0  6F38               	movwf	(0+(?___almod+04h))&0ffh
   878  0046B2  0E00               	movlw	high(0Ah)
   879  0046B4  0101               	movlb	1	; () banked
   880  0046B6  6F39               	movwf	(1+(?___almod+04h))&0ffh
   881  0046B8  0E00               	movlw	low highword(0Ah)
   882  0046BA  0101               	movlb	1	; () banked
   883  0046BC  6F3A               	movwf	(2+(?___almod+04h))&0ffh
   884  0046BE  0E00               	movlw	high highword(0Ah)
   885  0046C0  0101               	movlb	1	; () banked
   886  0046C2  6F3B               	movwf	(3+(?___almod+04h))&0ffh
   887  0046C4  C122  F134         	movff	(LCD_Out@DATA),(?___almod)
   888  0046C8  C123  F135         	movff	(LCD_Out@DATA+1),(?___almod+1)
   889  0046CC  C124  F136         	movff	(LCD_Out@DATA+2),(?___almod+2)
   890  0046D0  C125  F137         	movff	(LCD_Out@DATA+3),(?___almod+3)
   891  0046D4  EC4C  F022         	call	___almod	;wreg free
   892  0046D8  0101               	movlb	1	; () banked
   893  0046DA  0101               	movlb	1	; () banked
   894  0046DC  5134               	movf	(0+?___almod)&0ffh,w
   895  0046DE  6EEF               	movwf	indf0
   896                           
   897                           	line	97
   898                           ;lcd_portd.c: 97: DATA = DATA / 10;
   899  0046E0  0E0A               	movlw	low(0Ah)
   900  0046E2  0101               	movlb	1	; () banked
   901  0046E4  0101               	movlb	1	; () banked
   902  0046E6  6F38               	movwf	(0+(?___aldiv+04h))&0ffh
   903  0046E8  0E00               	movlw	high(0Ah)
   904  0046EA  0101               	movlb	1	; () banked
   905  0046EC  6F39               	movwf	(1+(?___aldiv+04h))&0ffh
   906  0046EE  0E00               	movlw	low highword(0Ah)
   907  0046F0  0101               	movlb	1	; () banked
   908  0046F2  6F3A               	movwf	(2+(?___aldiv+04h))&0ffh
   909  0046F4  0E00               	movlw	high highword(0Ah)
   910  0046F6  0101               	movlb	1	; () banked
   911  0046F8  6F3B               	movwf	(3+(?___aldiv+04h))&0ffh
   912  0046FA  C122  F134         	movff	(LCD_Out@DATA),(?___aldiv)
   913  0046FE  C123  F135         	movff	(LCD_Out@DATA+1),(?___aldiv+1)
   914  004702  C124  F136         	movff	(LCD_Out@DATA+2),(?___aldiv+2)
   915  004706  C125  F137         	movff	(LCD_Out@DATA+3),(?___aldiv+3)
   916  00470A  ECC7  F01F         	call	___aldiv	;wreg free
   917  00470E  C134  F122         	movff	0+?___aldiv,(LCD_Out@DATA)
   918  004712  C135  F123         	movff	1+?___aldiv,(LCD_Out@DATA+1)
   919  004716  C136  F124         	movff	2+?___aldiv,(LCD_Out@DATA+2)
   920  00471A  C137  F125         	movff	3+?___aldiv,(LCD_Out@DATA+3)
   921                           	line	95
   922  00471E  0101               	movlb	1	; () banked
   923  004720  0101               	movlb	1	; () banked
   924  004722  2B28               	incf	((LCD_Out@i))&0ffh
   925  004724  0E09               	movlw	(0Ah-1)
   926  004726  0101               	movlb	1	; () banked
   927  004728  0101               	movlb	1	; () banked
   928  00472A  6528               	cpfsgt	((LCD_Out@i))&0ffh
   929  00472C  D001               	goto	u5071
   930  00472E  D001               	goto	u5070
   931  004730                     u5071:
   932  004730  D7B2               	goto	l138
   933  004732                     u5070:
   934                           	
   935  004732                     l139:		; BSR set to: ?
   936                           
   937                           	line	99
   938                           ;lcd_portd.c: 98: }
   939                           ;lcd_portd.c: 99: for (i=D; i>0; i--) {
   940  004732  C126  F128         	movff	(LCD_Out@D),(LCD_Out@i)
   941  004736  0101               	movlb	1	; () banked
   942  004738  0101               	movlb	1	; () banked
   943  00473A  6728               	tstfsz	((LCD_Out@i))&0ffh
   944  00473C  D001               	goto	u5081
   945  00473E  D001               	goto	u5080
   946  004740                     u5081:
   947  004740  D001               	goto	l141
   948  004742                     u5080:
   949  004742  D031               	goto	l142
   950                           	
   951  004744                     l141:		; BSR set to: ?
   952                           
   953                           	line	100
   954                           ;lcd_portd.c: 100: if (i == N) LCD_Write('.');
   955  004744  0101               	movlb	1	; () banked
   956  004746  0101               	movlb	1	; () banked
   957  004748  5127               	movf	((LCD_Out@N))&0ffh,w
   958  00474A  0101               	movlb	1	; () banked
   959  00474C  0101               	movlb	1	; () banked
   960  00474E  6328               	cpfseq	((LCD_Out@i))&0ffh
   961  004750  D001               	goto	u5091
   962  004752  D001               	goto	u5090
   963  004754                     u5091:
   964  004754  D00A               	goto	l144
   965  004756                     u5090:
   966  004756  0101               	movlb	1	; () banked
   967  004758  6F33               	movwf	(??_LCD_Out+11+0)&0ffh
   968  00475A  0E2E               	movlw	low(02Eh)
   969  00475C  0101               	movlb	1	; () banked
   970  00475E  0101               	movlb	1	; () banked
   971  004760  6F34               	movwf	((?_LCD_Write))&0ffh
   972  004762  0101               	movlb	1	; () banked
   973  004764  5133               	movf	(??_LCD_Out+11+0)&0ffh,w
   974  004766  ECAA  F02A         	call	_LCD_Write	;wreg free
   975                           	
   976  00476A                     l144:		; BSR set to: ?
   977                           
   978                           	line	101
   979                           ;lcd_portd.c: 101: LCD_Write(A[i-1] + '0');
   980  00476A  C128  F133         	movff	(LCD_Out@i),??_LCD_Out+11+0
   981  00476E  0EFF               	movlw	-1
   982  004770  0101               	movlb	1	; () banked
   983  004772  2733               	addwf	(??_LCD_Out+11+0)&0ffh
   984  004774  0101               	movlb	1	; () banked
   985  004776  0E29               	movlw	low(LCD_Out@A)
   986  004778  0101               	movlb	1	; () banked
   987  00477A  2533               	addwf	(??_LCD_Out+11+0)&0ffh,w
   988  00477C  6EE9               	movwf	c:fsr0l
   989  00477E  6AEA               	clrf	1+c:fsr0l
   990  004780  0101               	movlb	1	; () banked
   991  004782  0E01               	movlw	high(LCD_Out@A)
   992  004784  22EA               	addwfc	1+c:fsr0l
   993  004786  50EF               	movf	indf0,w
   994  004788  0F30               	addlw	low(030h)
   995  00478A  0101               	movlb	1	; () banked
   996  00478C  0101               	movlb	1	; () banked
   997  00478E  6F34               	movwf	((?_LCD_Write))&0ffh
   998  004790  ECAA  F02A         	call	_LCD_Write	;wreg free
   999                           	line	99
  1000  004794  0101               	movlb	1	; () banked
  1001  004796  0101               	movlb	1	; () banked
  1002  004798  0728               	decf	((LCD_Out@i))&0ffh
  1003  00479A  0101               	movlb	1	; () banked
  1004  00479C  0101               	movlb	1	; () banked
  1005  00479E  6728               	tstfsz	((LCD_Out@i))&0ffh
  1006  0047A0  D001               	goto	u5101
  1007  0047A2  D001               	goto	u5100
  1008  0047A4                     u5101:
  1009  0047A4  D7CF               	goto	l141
  1010  0047A6                     u5100:
  1011                           	
  1012  0047A6                     l142:		; BSR set to: ?
  1013                           
  1014                           	line	103
  1015                           ;lcd_portd.c: 102: }
  1016                           ;lcd_portd.c: 103: }
  1017  0047A6                     l135:
  1018                           			; BSR set to: ?
  1019                           
  1020  0047A6  0012               	return
  1021                           	opt stack 0
  1022                           GLOBAL __end_of_LCD_Out
  1023  0047A8                     	__end_of_LCD_Out:
  1024                           	FNSIZE	_LCD_Out,12,6
  1025                           ; =============== function _LCD_Out ends =======
                                 =====
  1026                           
  1027                           	signat	_LCD_Out,12408
  1028                           	global	_LCD_Move
  1029                           	global	??_LCD_Move
  1030                           	global	?_LCD_Move
  1031                                   psect   text2,class=CODE,space=0,reloc=2
  1032                           
  1033                           	opt lm
  1034                           	file	"C:\Users\leeee\Desktop\Desktop\School\Col
                                 lege\4th Year\Semester 2\Embedded Systems\HW\HW1
                                 0\lcd_portd.c"
  1035                           	line	54
  1036  000000                     	__size_of_LCD_Move	equ	__end_of_LCD_Move-_LCD_M
                                 ove
  1037                           ;lcd_portd.c: 53: void LCD_Move(unsigned char Ro
                                 w, unsigned char Col)
  1038                           ;lcd_portd.c: 54: {
  1039                           	
  1040  00520C                     _LCD_Move:		; BSR set to: ?
  1041                           
  1042                           	opt stack 29
  1043                           	line	55
  1044  00520C  0101               	movlb	1	; () banked
  1045  00520E  0101               	movlb	1	; () banked
  1046  005210  6722               	tstfsz	((LCD_Move@Row))&0ffh
  1047  005212  D001               	goto	u5111
  1048  005214  D001               	goto	u5110
  1049  005216                     u5111:
  1050  005216  D009               	goto	l129
  1051  005218                     u5110:
  1052  005218  0101               	movlb	1	; () banked
  1053  00521A  0101               	movlb	1	; () banked
  1054  00521C  5123               	movf	((LCD_Move@Col))&0ffh,w
  1055  00521E  0F80               	addlw	low(080h)
  1056  005220  0101               	movlb	1	; () banked
  1057  005222  0101               	movlb	1	; () banked
  1058  005224  6F24               	movwf	((?_LCD_Inst))&0ffh
  1059  005226  ECBA  F029         	call	_LCD_Inst	;wreg free
  1060                           	
  1061  00522A                     l129:		; BSR set to: ?
  1062                           
  1063                           	line	56
  1064                           ;lcd_portd.c: 56: if (Row == 1) LCD_Inst(0xC0 + 
                                 Col);
  1065  00522A  0101               	movlb	1	; () banked
  1066  00522C  0101               	movlb	1	; () banked
  1067  00522E  0522               	decf	((LCD_Move@Row))&0ffh,w
  1068                           
  1069  005230  A4D8               	btfss	status,2
  1070  005232  D001               	goto	u5121
  1071  005234  D001               	goto	u5120
  1072  005236                     u5121:
  1073  005236  D009               	goto	l130
  1074  005238                     u5120:
  1075  005238  0101               	movlb	1	; () banked
  1076  00523A  0101               	movlb	1	; () banked
  1077  00523C  5123               	movf	((LCD_Move@Col))&0ffh,w
  1078  00523E  0FC0               	addlw	low(0C0h)
  1079  005240  0101               	movlb	1	; () banked
  1080  005242  0101               	movlb	1	; () banked
  1081  005244  6F24               	movwf	((?_LCD_Inst))&0ffh
  1082  005246  ECBA  F029         	call	_LCD_Inst	;wreg free
  1083                           	
  1084  00524A                     l130:		; BSR set to: ?
  1085                           
  1086                           	line	57
  1087                           ;lcd_portd.c: 57: if (Row == 2) LCD_Inst(0x94 + 
                                 Col);
  1088  00524A  0101               	movlb	1	; () banked
  1089  00524C  0101               	movlb	1	; () banked
  1090  00524E  5122               	movf	((LCD_Move@Row))&0ffh,w
  1091  005250  0A02               	xorlw	2
  1092                           
  1093  005252  A4D8               	btfss	status,2
  1094  005254  D001               	goto	u5131
  1095  005256  D001               	goto	u5130
  1096  005258                     u5131:
  1097  005258  D009               	goto	l131
  1098  00525A                     u5130:
  1099  00525A  0101               	movlb	1	; () banked
  1100  00525C  0101               	movlb	1	; () banked
  1101  00525E  5123               	movf	((LCD_Move@Col))&0ffh,w
  1102  005260  0F94               	addlw	low(094h)
  1103  005262  0101               	movlb	1	; () banked
  1104  005264  0101               	movlb	1	; () banked
  1105  005266  6F24               	movwf	((?_LCD_Inst))&0ffh
  1106  005268  ECBA  F029         	call	_LCD_Inst	;wreg free
  1107                           	
  1108  00526C                     l131:		; BSR set to: ?
  1109                           
  1110                           	line	58
  1111                           ;lcd_portd.c: 58: if (Row == 3) LCD_Inst(0xD4 + 
                                 Col);
  1112  00526C  0101               	movlb	1	; () banked
  1113  00526E  0101               	movlb	1	; () banked
  1114  005270  5122               	movf	((LCD_Move@Row))&0ffh,w
  1115  005272  0A03               	xorlw	3
  1116                           
  1117  005274  A4D8               	btfss	status,2
  1118  005276  D001               	goto	u5141
  1119  005278  D001               	goto	u5140
  1120  00527A                     u5141:
  1121  00527A  D009               	goto	l132
  1122  00527C                     u5140:
  1123  00527C  0101               	movlb	1	; () banked
  1124  00527E  0101               	movlb	1	; () banked
  1125  005280  5123               	movf	((LCD_Move@Col))&0ffh,w
  1126  005282  0FD4               	addlw	low(0D4h)
  1127  005284  0101               	movlb	1	; () banked
  1128  005286  0101               	movlb	1	; () banked
  1129  005288  6F24               	movwf	((?_LCD_Inst))&0ffh
  1130  00528A  ECBA  F029         	call	_LCD_Inst	;wreg free
  1131                           	
  1132  00528E                     l132:		; BSR set to: ?
  1133                           
  1134                           	line	59
  1135                           ;lcd_portd.c: 59: }
  1136  00528E                     l128:
  1137                           			; BSR set to: ?
  1138                           
  1139  00528E  0012               	return
  1140                           	opt stack 0
  1141                           GLOBAL __end_of_LCD_Move
  1142  005290                     	__end_of_LCD_Move:
  1143                           	FNSIZE	_LCD_Move,0,2
  1144                           ; =============== function _LCD_Move ends ======
                                 ======
  1145                           
  1146                           	signat	_LCD_Move,8312
  1147                           	global	_sprintf
  1148                           	global	??_sprintf
  1149                           	global	?_sprintf
  1150                                   psect   text3,class=CODE,space=0,reloc=2
  1151                           
  1152                           	opt lm
  1153                           	file	"C:\Program Files (x86)\HI-TECH Software\P
                                 ICC-18\PRO\9.63\lib\doprnt.c"
  1154                           	line	492
  1155  000000                     	__size_of_sprintf	equ	__end_of_sprintf-_sprintf
  1156                           ;doprnt.c: 455: int
  1157                           ;doprnt.c: 491: sprintf(char * sp, const char * 
                                 f, ...)
  1158                           ;doprnt.c: 492: {
  1159                           	
  1160  0010B4                     _sprintf:		; BSR set to: ?
  1161                           
  1162                           	opt stack 29
  1163                           	line	541
  1164  0010B4  0101               	movlb	1	; () banked
  1165  0010B6  0E26               	movlw	low(?_sprintf+04h)
  1166  0010B8  0101               	movlb	1	; () banked
  1167  0010BA  0101               	movlb	1	; () banked
  1168  0010BC  6F3E               	movwf	((sprintf@ap))&0ffh
  1169  0010BE  0101               	movlb	1	; () banked
  1170  0010C0  0E01               	movlw	high(?_sprintf+04h)
  1171  0010C2  0101               	movlb	1	; () banked
  1172  0010C4  6F3F               	movwf	((sprintf@ap+1))&0ffh
  1173                           	line	544
  1174                           ;doprnt.c: 544: while(c = *f++) {
  1175  0010C6  EF76  F017         	goto	l198
  1176                           	
  1177  0010CA                     l199:		; BSR set to: ?
  1178                           
  1179                           	line	546
  1180                           ;doprnt.c: 546: if(c != '%')
  1181  0010CA  0101               	movlb	1	; () banked
  1182  0010CC  0101               	movlb	1	; () banked
  1183  0010CE  513D               	movf	((sprintf@c))&0ffh,w
  1184  0010D0  0A25               	xorlw	37
  1185                           
  1186  0010D2  B4D8               	btfsc	status,2
  1187  0010D4  D001               	goto	u5151
  1188  0010D6  D001               	goto	u5150
  1189  0010D8                     u5151:
  1190  0010D8  D00D               	goto	l201
  1191  0010DA                     u5150:
  1192                           	line	549
  1193  0010DA  C122  FFE9         	movff	(sprintf@sp),fsr0l
  1194  0010DE  C123  FFEA         	movff	(sprintf@sp+1),fsr0h
  1195  0010E2  0101               	movlb	1	; () banked
  1196  0010E4  C13D  FFEF         	movff	(sprintf@c),indf0
  1197                           
  1198                           ;doprnt.c: 548: {
  1199                           ;doprnt.c: 549: ((*sp++ = (c)));
  1200  0010E8  0101               	movlb	1	; () banked
  1201  0010EA  0101               	movlb	1	; () banked
  1202  0010EC  4B22               	infsnz	((sprintf@sp))&0ffh
  1203  0010EE  2B23               	incf	((sprintf@sp+1))&0ffh
  1204                           	line	550
  1205                           ;doprnt.c: 550: continue;
  1206  0010F0  EF76  F017         	goto	l198
  1207                           	line	551
  1208                           	
  1209  0010F4                     l201:		; BSR set to: ?
  1210                           
  1211                           	line	554
  1212                           ;doprnt.c: 551: }
  1213                           ;doprnt.c: 554: width = 0;
  1214  0010F4  0E00               	movlw	low(0)
  1215  0010F6  0101               	movlb	1	; () banked
  1216  0010F8  0101               	movlb	1	; () banked
  1217  0010FA  6F42               	movwf	((sprintf@width))&0ffh
  1218  0010FC  0E00               	movlw	high(0)
  1219  0010FE  0101               	movlb	1	; () banked
  1220  001100  6F43               	movwf	((sprintf@width+1))&0ffh
  1221                           	line	556
  1222                           ;doprnt.c: 556: flag = 0;
  1223  001102  0E00               	movlw	low(0)
  1224  001104  0101               	movlb	1	; () banked
  1225  001106  0101               	movlb	1	; () banked
  1226  001108  6F46               	movwf	((sprintf@flag))&0ffh
  1227  00110A  0E00               	movlw	high(0)
  1228  00110C  0101               	movlb	1	; () banked
  1229  00110E  6F47               	movwf	((sprintf@flag+1))&0ffh
  1230                           	line	558
  1231                           ;doprnt.c: 558: for(;;) {
  1232                           	
  1233  001110                     l202:		; BSR set to: ?
  1234                           
  1235                           	line	559
  1236                           ;doprnt.c: 559: switch(*f) {
  1237  001110  D020               	goto	l206
  1238                           	line	561
  1239                           ;doprnt.c: 561: case '-':
  1240                           	
  1241  001112                     l207:		; BSR set to: ?
  1242                           
  1243                           	line	562
  1244                           ;doprnt.c: 562: flag |= 0x08;
  1245  001112  0101               	movlb	1	; () banked
  1246  001114  0101               	movlb	1	; () banked
  1247  001116  8746               	bsf	(0+(3/8)+(sprintf@flag))&0ffh,(3)&7
  1248                           	line	563
  1249                           ;doprnt.c: 563: f++;
  1250  001118  0101               	movlb	1	; () banked
  1251  00111A  0101               	movlb	1	; () banked
  1252  00111C  4B24               	infsnz	((sprintf@f))&0ffh
  1253  00111E  2B25               	incf	((sprintf@f+1))&0ffh
  1254                           	line	564
  1255                           ;doprnt.c: 564: continue;
  1256  001120  D02C               	goto	l204
  1257                           	line	568
  1258                           ;doprnt.c: 568: case ' ':
  1259                           	
  1260  001122                     l208:		; BSR set to: ?
  1261                           
  1262                           	line	569
  1263                           ;doprnt.c: 569: flag |= 0x01;
  1264  001122  0101               	movlb	1	; () banked
  1265  001124  0101               	movlb	1	; () banked
  1266  001126  8146               	bsf	(0+(0/8)+(sprintf@flag))&0ffh,(0)&7
  1267                           	line	570
  1268                           ;doprnt.c: 570: f++;
  1269  001128  0101               	movlb	1	; () banked
  1270  00112A  0101               	movlb	1	; () banked
  1271  00112C  4B24               	infsnz	((sprintf@f))&0ffh
  1272  00112E  2B25               	incf	((sprintf@f+1))&0ffh
  1273                           	line	571
  1274                           ;doprnt.c: 571: continue;
  1275  001130  D024               	goto	l204
  1276                           	line	575
  1277                           ;doprnt.c: 575: case '+':
  1278                           	
  1279  001132                     l209:		; BSR set to: ?
  1280                           
  1281                           	line	576
  1282                           ;doprnt.c: 576: flag |= 0x02;
  1283  001132  0101               	movlb	1	; () banked
  1284  001134  0101               	movlb	1	; () banked
  1285  001136  8346               	bsf	(0+(1/8)+(sprintf@flag))&0ffh,(1)&7
  1286                           	line	577
  1287                           ;doprnt.c: 577: f++;
  1288  001138  0101               	movlb	1	; () banked
  1289  00113A  0101               	movlb	1	; () banked
  1290  00113C  4B24               	infsnz	((sprintf@f))&0ffh
  1291  00113E  2B25               	incf	((sprintf@f+1))&0ffh
  1292                           	line	578
  1293                           ;doprnt.c: 578: continue;
  1294  001140  D01C               	goto	l204
  1295                           	line	581
  1296                           ;doprnt.c: 581: case '#':
  1297                           	
  1298  001142                     l210:		; BSR set to: ?
  1299                           
  1300                           	line	582
  1301                           ;doprnt.c: 582: flag |= 0x800;
  1302  001142  0101               	movlb	1	; () banked
  1303  001144  0101               	movlb	1	; () banked
  1304  001146  8747               	bsf	(0+(11/8)+(sprintf@flag))&0ffh,(11)&7
  1305                           	line	583
  1306                           ;doprnt.c: 583: f++;
  1307  001148  0101               	movlb	1	; () banked
  1308  00114A  0101               	movlb	1	; () banked
  1309  00114C  4B24               	infsnz	((sprintf@f))&0ffh
  1310  00114E  2B25               	incf	((sprintf@f+1))&0ffh
  1311                           	line	584
  1312                           ;doprnt.c: 584: continue;
  1313  001150  D014               	goto	l204
  1314                           	line	559
  1315                           	
  1316  001152                     l206:		; BSR set to: ?
  1317                           
  1318  001152  0101               	movlb	1	; () banked
  1319  001154  C124  FFF6         	movff	(sprintf@f),tblptrl
  1320  001158  0101               	movlb	1	; () banked
  1321  00115A  C125  FFF7         	movff	(sprintf@f+1),tblptrh
  1322  00115E  0E00               	movlw	low highword(__mediumconst)
  1323  001160  6EF8               	movwf	tblptru
  1324  001162  0008               	tblrd	*
  1325                           	
  1326  001164  50F5               	movf	tablat,w
  1327                           
  1328  001166  0A20               	xorlw	32 ^ 0
  1329  001168  E0DC               	bz	l208
  1330  00116A  0A03               	xorlw	35 ^ 32
  1331  00116C  E0EA               	bz	l210
  1332  00116E  0A08               	xorlw	43 ^ 35
  1333  001170  E0E0               	bz	l209
  1334  001172  0A06               	xorlw	45 ^ 43
  1335  001174  E0CE               	bz	l207
  1336  001176  D000               	goto	l205
  1337                           
  1338                           	line	592
  1339                           	
  1340  001178                     l205:		; BSR set to: ?
  1341                           
  1342                           	line	593
  1343                           ;doprnt.c: 593: break;
  1344  001178  D001               	goto	l203
  1345                           	line	594
  1346                           	
  1347  00117A                     l204:		; BSR set to: ?
  1348                           
  1349                           ;doprnt.c: 594: }
  1350  00117A  D7CA               	goto	l202
  1351                           	
  1352  00117C                     l203:		; BSR set to: ?
  1353                           
  1354                           	line	597
  1355                           ;doprnt.c: 597: if(flag & 0x02)
  1356  00117C  0101               	movlb	1	; () banked
  1357                           	
  1358  00117E  0101               	movlb	1	; () banked
  1359  001180  A346               	btfss	((sprintf@flag))&0ffh,(1)&7
  1360  001182  D001               	goto	u5161
  1361  001184  D001               	goto	u5160
  1362  001186                     u5161:
  1363  001186  D003               	goto	l211
  1364  001188                     u5160:
  1365                           	line	598
  1366                           ;doprnt.c: 598: flag &= ~0x01;
  1367  001188  0101               	movlb	1	; () banked
  1368  00118A  0101               	movlb	1	; () banked
  1369  00118C  9146               	bcf	(0+(0/8)+(sprintf@flag))&0ffh,(0)&7
  1370                           	
  1371  00118E                     l211:		; BSR set to: ?
  1372                           
  1373                           	line	605
  1374                           ;doprnt.c: 605: if(isdigit((unsigned)*f)) {
  1375  00118E  0101               	movlb	1	; () banked
  1376  001190  C124  FFF6         	movff	(sprintf@f),tblptrl
  1377  001194  0101               	movlb	1	; () banked
  1378  001196  C125  FFF7         	movff	(sprintf@f+1),tblptrh
  1379  00119A  0E00               	movlw	low highword(__mediumconst)
  1380  00119C  6EF8               	movwf	tblptru
  1381  00119E  0008               	tblrd	*
  1382                           	
  1383  0011A0  0101               	movlb	1	; () banked
  1384  0011A2  CFF5 F15B          	movff	tablat,(?_isdigit)
  1385  0011A6  ECE3  F02A         	call	_isdigit	;wreg free
  1386  0011AA  A0D8               	btfss	status,0
  1387  0011AC  D001               	goto	u5171
  1388  0011AE  D001               	goto	u5170
  1389  0011B0                     u5171:
  1390  0011B0  D047               	goto	l212
  1391  0011B2                     u5170:
  1392                           	line	606
  1393                           ;doprnt.c: 606: width = 0;
  1394  0011B2  0E00               	movlw	low(0)
  1395  0011B4  0101               	movlb	1	; () banked
  1396  0011B6  0101               	movlb	1	; () banked
  1397  0011B8  6F42               	movwf	((sprintf@width))&0ffh
  1398  0011BA  0E00               	movlw	high(0)
  1399  0011BC  0101               	movlb	1	; () banked
  1400  0011BE  6F43               	movwf	((sprintf@width+1))&0ffh
  1401                           	line	607
  1402                           ;doprnt.c: 607: do
  1403                           	
  1404  0011C0                     l215:		; BSR set to: ?
  1405                           
  1406                           	line	608
  1407  0011C0  0E0A               	movlw	low(0Ah)
  1408  0011C2  0101               	movlb	1	; () banked
  1409  0011C4  0101               	movlb	1	; () banked
  1410  0011C6  6F7C               	movwf	(0+(?___wmul+02h))&0ffh
  1411  0011C8  0E00               	movlw	high(0Ah)
  1412  0011CA  0101               	movlb	1	; () banked
  1413  0011CC  6F7D               	movwf	(1+(?___wmul+02h))&0ffh
  1414  0011CE  C142  F17A         	movff	(sprintf@width),(?___wmul)
  1415  0011D2  C143  F17B         	movff	(sprintf@width+1),(?___wmul+1)
  1416  0011D6  EC87  F029         	call	___wmul	;wreg free
  1417  0011DA  0101               	movlb	1	; () banked
  1418  0011DC  C124  FFF6         	movff	(sprintf@f),tblptrl
  1419  0011E0  0101               	movlb	1	; () banked
  1420  0011E2  C125  FFF7         	movff	(sprintf@f+1),tblptrh
  1421  0011E6  0E00               	movlw	low highword(__mediumconst)
  1422  0011E8  6EF8               	movwf	tblptru
  1423  0011EA  0008               	tblrd	*
  1424                           	
  1425  0011EC  50F5               	movf	tablat,w
  1426                           
  1427  0011EE  0101               	movlb	1	; () banked
  1428  0011F0  0101               	movlb	1	; () banked
  1429  0011F2  277A               	addwf	(0+?___wmul)&0ffh
  1430  0011F4  0E00               	movlw	0
  1431  0011F6  0101               	movlb	1	; () banked
  1432  0011F8  237B               	addwfc	(1+?___wmul)&0ffh
  1433  0011FA  0ED0               	movlw	low(-48)
  1434  0011FC  0101               	movlb	1	; () banked
  1435  0011FE  0101               	movlb	1	; () banked
  1436  001200  257A               	addwf	(0+?___wmul)&0ffh,w
  1437  001202  0101               	movlb	1	; () banked
  1438                           	
  1439  001204  0101               	movlb	1	; () banked
  1440  001206  6F42               	movwf	((sprintf@width))&0ffh
  1441  001208  0EFF               	movlw	high(-48)
  1442  00120A  0101               	movlb	1	; () banked
  1443  00120C  0101               	movlb	1	; () banked
  1444  00120E  217B               	addwfc	(1+?___wmul)&0ffh,w
  1445  001210  0101               	movlb	1	; () banked
  1446  001212  6F43               	movwf	1+((sprintf@width))&0ffh
  1447                           ;doprnt.c: 608: width = width*10 + *f++ - '0';
  1448  001214  0101               	movlb	1	; () banked
  1449  001216  0101               	movlb	1	; () banked
  1450  001218  4B24               	infsnz	((sprintf@f))&0ffh
  1451  00121A  2B25               	incf	((sprintf@f+1))&0ffh
  1452                           	line	609
  1453                           ;doprnt.c: 609: while(isdigit((unsigned)*f));
  1454  00121C  0101               	movlb	1	; () banked
  1455  00121E  C124  FFF6         	movff	(sprintf@f),tblptrl
  1456  001222  0101               	movlb	1	; () banked
  1457  001224  C125  FFF7         	movff	(sprintf@f+1),tblptrh
  1458  001228  0E00               	movlw	low highword(__mediumconst)
  1459  00122A  6EF8               	movwf	tblptru
  1460  00122C  0008               	tblrd	*
  1461                           	
  1462  00122E  0101               	movlb	1	; () banked
  1463  001230  CFF5 F15B          	movff	tablat,(?_isdigit)
  1464  001234  ECE3  F02A         	call	_isdigit	;wreg free
  1465  001238  B0D8               	btfsc	status,0
  1466  00123A  D001               	goto	u5181
  1467  00123C  D001               	goto	u5180
  1468  00123E                     u5181:
  1469  00123E  D7C0               	goto	l215
  1470  001240                     u5180:
  1471                           	
  1472  001240                     l214:		; BSR set to: ?
  1473                           
  1474                           	line	615
  1475                           	
  1476  001240                     l212:		; BSR set to: ?
  1477                           
  1478                           	line	618
  1479                           ;doprnt.c: 615: }
  1480                           ;doprnt.c: 618: if(*f == '.') {
  1481  001240  0101               	movlb	1	; () banked
  1482  001242  C124  FFF6         	movff	(sprintf@f),tblptrl
  1483  001246  0101               	movlb	1	; () banked
  1484  001248  C125  FFF7         	movff	(sprintf@f+1),tblptrh
  1485  00124C  0E00               	movlw	low highword(__mediumconst)
  1486  00124E  6EF8               	movwf	tblptru
  1487  001250  0008               	tblrd	*
  1488                           	
  1489  001252  50F5               	movf	tablat,w
  1490                           
  1491  001254  0A2E               	xorlw	02Eh
  1492  001256  A4D8               	btfss	status,2
  1493  001258  D001               	goto	u5191
  1494  00125A  D001               	goto	u5190
  1495  00125C                     u5191:
  1496  00125C  D050               	goto	l216
  1497  00125E                     u5190:
  1498                           	line	619
  1499                           ;doprnt.c: 619: flag |= 0x4000;
  1500  00125E  0101               	movlb	1	; () banked
  1501  001260  0101               	movlb	1	; () banked
  1502  001262  8D47               	bsf	(0+(14/8)+(sprintf@flag))&0ffh,(14)&7
  1503                           	line	620
  1504                           ;doprnt.c: 620: f++;
  1505  001264  0101               	movlb	1	; () banked
  1506  001266  0101               	movlb	1	; () banked
  1507  001268  4B24               	infsnz	((sprintf@f))&0ffh
  1508  00126A  2B25               	incf	((sprintf@f+1))&0ffh
  1509                           	line	628
  1510                           ;doprnt.c: 627: {
  1511                           ;doprnt.c: 628: prec = 0;
  1512  00126C  0E00               	movlw	low(0)
  1513  00126E  0101               	movlb	1	; () banked
  1514  001270  0101               	movlb	1	; () banked
  1515  001272  6F44               	movwf	((sprintf@prec))&0ffh
  1516  001274  0E00               	movlw	high(0)
  1517  001276  0101               	movlb	1	; () banked
  1518  001278  6F45               	movwf	((sprintf@prec+1))&0ffh
  1519                           	line	629
  1520                           ;doprnt.c: 629: while(isdigit((unsigned)*f))
  1521  00127A  D02E               	goto	l217
  1522                           	
  1523  00127C                     l218:		; BSR set to: ?
  1524                           
  1525                           	line	630
  1526  00127C  0E0A               	movlw	low(0Ah)
  1527  00127E  0101               	movlb	1	; () banked
  1528  001280  0101               	movlb	1	; () banked
  1529  001282  6F7C               	movwf	(0+(?___wmul+02h))&0ffh
  1530  001284  0E00               	movlw	high(0Ah)
  1531  001286  0101               	movlb	1	; () banked
  1532  001288  6F7D               	movwf	(1+(?___wmul+02h))&0ffh
  1533  00128A  C144  F17A         	movff	(sprintf@prec),(?___wmul)
  1534  00128E  C145  F17B         	movff	(sprintf@prec+1),(?___wmul+1)
  1535  001292  EC87  F029         	call	___wmul	;wreg free
  1536  001296  0101               	movlb	1	; () banked
  1537  001298  C124  FFF6         	movff	(sprintf@f),tblptrl
  1538  00129C  0101               	movlb	1	; () banked
  1539  00129E  C125  FFF7         	movff	(sprintf@f+1),tblptrh
  1540  0012A2  0E00               	movlw	low highword(__mediumconst)
  1541  0012A4  6EF8               	movwf	tblptru
  1542  0012A6  0008               	tblrd	*
  1543                           	
  1544  0012A8  50F5               	movf	tablat,w
  1545                           
  1546  0012AA  0101               	movlb	1	; () banked
  1547  0012AC  0101               	movlb	1	; () banked
  1548  0012AE  277A               	addwf	(0+?___wmul)&0ffh
  1549  0012B0  0E00               	movlw	0
  1550  0012B2  0101               	movlb	1	; () banked
  1551  0012B4  237B               	addwfc	(1+?___wmul)&0ffh
  1552  0012B6  0ED0               	movlw	low(-48)
  1553  0012B8  0101               	movlb	1	; () banked
  1554  0012BA  0101               	movlb	1	; () banked
  1555  0012BC  257A               	addwf	(0+?___wmul)&0ffh,w
  1556  0012BE  0101               	movlb	1	; () banked
  1557                           	
  1558  0012C0  0101               	movlb	1	; () banked
  1559  0012C2  6F44               	movwf	((sprintf@prec))&0ffh
  1560  0012C4  0EFF               	movlw	high(-48)
  1561  0012C6  0101               	movlb	1	; () banked
  1562  0012C8  0101               	movlb	1	; () banked
  1563  0012CA  217B               	addwfc	(1+?___wmul)&0ffh,w
  1564  0012CC  0101               	movlb	1	; () banked
  1565  0012CE  6F45               	movwf	1+((sprintf@prec))&0ffh
  1566                           ;doprnt.c: 630: prec = prec*10 + *f++ - '0';
  1567  0012D0  0101               	movlb	1	; () banked
  1568  0012D2  0101               	movlb	1	; () banked
  1569  0012D4  4B24               	infsnz	((sprintf@f))&0ffh
  1570  0012D6  2B25               	incf	((sprintf@f+1))&0ffh
  1571                           	
  1572  0012D8                     l217:		; BSR set to: ?
  1573                           
  1574                           	line	629
  1575  0012D8  0101               	movlb	1	; () banked
  1576  0012DA  C124  FFF6         	movff	(sprintf@f),tblptrl
  1577  0012DE  0101               	movlb	1	; () banked
  1578  0012E0  C125  FFF7         	movff	(sprintf@f+1),tblptrh
  1579  0012E4  0E00               	movlw	low highword(__mediumconst)
  1580  0012E6  6EF8               	movwf	tblptru
  1581  0012E8  0008               	tblrd	*
  1582                           	
  1583  0012EA  0101               	movlb	1	; () banked
  1584  0012EC  CFF5 F15B          	movff	tablat,(?_isdigit)
  1585  0012F0  ECE3  F02A         	call	_isdigit	;wreg free
  1586  0012F4  B0D8               	btfsc	status,0
  1587  0012F6  D001               	goto	u5201
  1588  0012F8  D001               	goto	u5200
  1589  0012FA                     u5201:
  1590  0012FA  D7C0               	goto	l218
  1591  0012FC                     u5200:
  1592                           	
  1593  0012FC                     l219:		; BSR set to: ?
  1594                           
  1595                           	line	632
  1596                           ;doprnt.c: 631: }
  1597                           ;doprnt.c: 632: } else {
  1598  0012FC  D00A               	goto	l220
  1599                           	
  1600  0012FE                     l216:		; BSR set to: ?
  1601                           
  1602                           	line	633
  1603                           ;doprnt.c: 633: prec = 0;
  1604  0012FE  0E00               	movlw	low(0)
  1605  001300  0101               	movlb	1	; () banked
  1606  001302  0101               	movlb	1	; () banked
  1607  001304  6F44               	movwf	((sprintf@prec))&0ffh
  1608  001306  0E00               	movlw	high(0)
  1609  001308  0101               	movlb	1	; () banked
  1610  00130A  6F45               	movwf	((sprintf@prec+1))&0ffh
  1611                           	line	635
  1612                           ;doprnt.c: 635: flag |= 0x1000;
  1613  00130C  0101               	movlb	1	; () banked
  1614  00130E  0101               	movlb	1	; () banked
  1615  001310  8947               	bsf	(0+(12/8)+(sprintf@flag))&0ffh,(12)&7
  1616                           	line	637
  1617                           	
  1618  001312                     l220:		; BSR set to: ?
  1619                           
  1620                           	line	642
  1621                           ;doprnt.c: 637: }
  1622                           ;doprnt.c: 642: switch(c = *f++) {
  1623  001312  D127               	goto	l222
  1624                           	line	644
  1625                           ;doprnt.c: 644: case 0:
  1626                           	
  1627  001314                     l223:		; BSR set to: ?
  1628                           
  1629                           	line	645
  1630                           ;doprnt.c: 645: goto alldone;
  1631  001314  EF93  F017         	goto	l224
  1632                           	line	669
  1633                           ;doprnt.c: 669: case 'f':
  1634                           	
  1635  001318                     l225:		; BSR set to: ?
  1636                           
  1637                           	line	670
  1638                           ;doprnt.c: 670: flag |= 0x400;
  1639  001318  0101               	movlb	1	; () banked
  1640  00131A  0101               	movlb	1	; () banked
  1641  00131C  8547               	bsf	(0+(10/8)+(sprintf@flag))&0ffh,(10)&7
  1642                           	line	671
  1643                           ;doprnt.c: 671: break;
  1644  00131E  D153               	goto	l221
  1645                           	line	676
  1646                           ;doprnt.c: 676: case 'E':
  1647                           	
  1648  001320                     l226:		; BSR set to: ?
  1649                           
  1650                           	line	677
  1651                           ;doprnt.c: 677: flag |= 0x20;
  1652  001320  0101               	movlb	1	; () banked
  1653  001322  0101               	movlb	1	; () banked
  1654  001324  8B46               	bsf	(0+(5/8)+(sprintf@flag))&0ffh,(5)&7
  1655                           	line	679
  1656                           ;doprnt.c: 679: case 'e':
  1657                           	
  1658  001326                     l227:		; BSR set to: ?
  1659                           
  1660                           	line	680
  1661                           ;doprnt.c: 680: flag |= 0x100;
  1662  001326  0101               	movlb	1	; () banked
  1663  001328  0101               	movlb	1	; () banked
  1664  00132A  8147               	bsf	(0+(8/8)+(sprintf@flag))&0ffh,(8)&7
  1665                           	line	681
  1666                           ;doprnt.c: 681: break;
  1667  00132C  D14C               	goto	l221
  1668                           	line	686
  1669                           ;doprnt.c: 686: case 'G':
  1670                           	
  1671  00132E                     l228:		; BSR set to: ?
  1672                           
  1673                           	line	687
  1674                           ;doprnt.c: 687: flag |= 0x20;
  1675  00132E  0101               	movlb	1	; () banked
  1676  001330  0101               	movlb	1	; () banked
  1677  001332  8B46               	bsf	(0+(5/8)+(sprintf@flag))&0ffh,(5)&7
  1678                           	line	689
  1679                           ;doprnt.c: 689: case 'g':
  1680                           	
  1681  001334                     l229:		; BSR set to: ?
  1682                           
  1683                           	line	690
  1684                           ;doprnt.c: 690: flag |= 0x200;
  1685  001334  0101               	movlb	1	; () banked
  1686  001336  0101               	movlb	1	; () banked
  1687  001338  8347               	bsf	(0+(9/8)+(sprintf@flag))&0ffh,(9)&7
  1688                           	line	691
  1689                           ;doprnt.c: 691: break;
  1690  00133A  D145               	goto	l221
  1691                           	line	710
  1692                           ;doprnt.c: 710: case 'p':
  1693                           	
  1694  00133C                     l230:		; BSR set to: ?
  1695                           
  1696                           	line	730
  1697                           ;doprnt.c: 730: break;
  1698  00133C  D144               	goto	l221
  1699                           	line	735
  1700                           ;doprnt.c: 735: case 's':
  1701                           	
  1702  00133E                     l231:		; BSR set to: ?
  1703                           
  1704                           	line	741
  1705                           ;doprnt.c: 741: _val._str._cp = (*(const char * 
                                 *)__va_arg((*(const char * **)ap)));
  1706  00133E  0101               	movlb	1	; () banked
  1707  001340  C13E  FFE9         	movff	(sprintf@ap),fsr0l
  1708  001344  0101               	movlb	1	; () banked
  1709  001346  C13F  FFEA         	movff	(sprintf@ap+1),fsr0h
  1710  00134A  0101               	movlb	1	; () banked
  1711  00134C  0E02               	movlw	low(02h)
  1712  00134E  0101               	movlb	1	; () banked
  1713  001350  273E               	addwf	((sprintf@ap))&0ffh
  1714  001352  0E00               	movlw	high(02h)
  1715  001354  0101               	movlb	1	; () banked
  1716  001356  233F               	addwfc	((sprintf@ap+1))&0ffh
  1717  001358  0101               	movlb	1	; () banked
  1718  00135A  CFEE F14E          	movff	postinc0,(sprintf@_val)
  1719  00135E  0101               	movlb	1	; () banked
  1720  001360  CFED F14F          	movff	postdec0,(sprintf@_val+1)
  1721                           	line	747
  1722                           ;doprnt.c: 747: if(!_val._str._cp)
  1723  001364  0101               	movlb	1	; () banked
  1724  001366  0101               	movlb	1	; () banked
  1725  001368  514F               	movf	((sprintf@_val+1))&0ffh,w
  1726  00136A  114E               	iorwf ((sprintf@_val))&0ffh,w
  1727                           
  1728  00136C  A4D8               	btfss	status,2
  1729  00136E  D001               	goto	u5211
  1730  001370  D001               	goto	u5210
  1731  001372                     u5211:
  1732  001372  D007               	goto	l232
  1733  001374                     u5210:
  1734                           	line	748
  1735                           ;doprnt.c: 748: _val._str._cp = "(null)";
  1736  001374  0EA8               	movlw	low(STR_2)
  1737  001376  0101               	movlb	1	; () banked
  1738  001378  0101               	movlb	1	; () banked
  1739  00137A  6F4E               	movwf	((sprintf@_val))&0ffh
  1740  00137C  0E10               	movlw	high(STR_2)
  1741  00137E  0101               	movlb	1	; () banked
  1742  001380  6F4F               	movwf	((sprintf@_val+1))&0ffh
  1743                           	
  1744  001382                     l232:		; BSR set to: ?
  1745                           
  1746                           	line	752
  1747                           ;doprnt.c: 752: _val._str._len = 0;
  1748  001382  0E00               	movlw	low(0)
  1749  001384  0101               	movlb	1	; () banked
  1750  001386  0101               	movlb	1	; () banked
  1751  001388  6F50               	movwf	(0+(sprintf@_val+02h))&0ffh
  1752  00138A  0E00               	movlw	high(0)
  1753  00138C  0101               	movlb	1	; () banked
  1754  00138E  6F51               	movwf	(1+(sprintf@_val+02h))&0ffh
  1755                           	line	753
  1756                           ;doprnt.c: 753: while(_val._str._cp[_val._str._l
                                 en])
  1757  001390  D004               	goto	l233
  1758                           	
  1759  001392                     l234:		; BSR set to: ?
  1760                           
  1761                           	line	754
  1762                           ;doprnt.c: 754: _val._str._len++;
  1763  001392  0101               	movlb	1	; () banked
  1764  001394  0101               	movlb	1	; () banked
  1765  001396  4B50               	infsnz	(0+(sprintf@_val+02h))&0ffh
  1766  001398  2B51               	incf	(1+(sprintf@_val+02h))&0ffh
  1767                           	
  1768  00139A                     l233:		; BSR set to: ?
  1769                           
  1770                           	line	753
  1771  00139A  0101               	movlb	1	; () banked
  1772  00139C  0101               	movlb	1	; () banked
  1773  00139E  5150               	movf	(0+(sprintf@_val+02h))&0ffh,w
  1774  0013A0  0101               	movlb	1	; () banked
  1775  0013A2  0101               	movlb	1	; () banked
  1776  0013A4  254E               	addwf	((sprintf@_val))&0ffh,w
  1777  0013A6  0101               	movlb	1	; () banked
  1778  0013A8  6F55               	movwf	(??_sprintf+42+0)&0ffh
  1779  0013AA  6AE8               	clrf	wreg
  1780  0013AC  0101               	movlb	1	; () banked
  1781  0013AE  0101               	movlb	1	; () banked
  1782  0013B0  BF50               	btfsc	(0+(sprintf@_val+02h))&0ffh,7
  1783  0013B2  68E8               	setf	wreg
  1784  0013B4  0101               	movlb	1	; () banked
  1785  0013B6  0101               	movlb	1	; () banked
  1786  0013B8  214F               	addwfc	((sprintf@_val+1))&0ffh,w
  1787  0013BA  0101               	movlb	1	; () banked
  1788  0013BC  6F56               	movwf	(??_sprintf+42+0+1)&0ffh
  1789  0013BE  C155  FFF6         	movff	??_sprintf+42+0,tblptrl
  1790  0013C2  C156  FFF7         	movff	??_sprintf+42+1,tblptrh
  1791  0013C6  0E00               	movlw	low highword(__smallconst)
  1792  0013C8  6EF8               	movwf	tblptru
  1793  0013CA  0E0F               	movlw	high __ramtop-1
  1794  0013CC  64F7               	cpfsgt	tblptrh
  1795  0013CE  D003               	bra	u5227
  1796  0013D0  0008               	tblrd	*
  1797                           	
  1798  0013D2  50F5               	movf	tablat,w
  1799  0013D4  D005               	bra	u5220
  1800  0013D6                     u5227:
  1801  0013D6  CFF6 FFE9          	movff	tblptrl,fsr0l
  1802  0013DA  CFF7 FFEA          	movff	tblptrh,fsr0h
  1803  0013DE  50EF               	movf	indf0,w
  1804  0013E0                     u5220:
  1805  0013E0  0900               	iorlw	0
  1806  0013E2  A4D8               	btfss	status,2
  1807  0013E4  D001               	goto	u5231
  1808  0013E6  D001               	goto	u5230
  1809  0013E8                     u5231:
  1810  0013E8  D7D4               	goto	l234
  1811  0013EA                     u5230:
  1812                           	
  1813  0013EA                     l235:		; BSR set to: ?
  1814                           
  1815                           	line	757
  1816                           ;doprnt.c: 757: dostring:
  1817                           	
  1818  0013EA                     l236:		; BSR set to: ?
  1819                           
  1820                           	line	760
  1821                           ;doprnt.c: 760: if(prec && prec < _val._str._len
                                 )
  1822  0013EA  0101               	movlb	1	; () banked
  1823  0013EC  0101               	movlb	1	; () banked
  1824  0013EE  5145               	movf	((sprintf@prec+1))&0ffh,w
  1825  0013F0  1144               	iorwf ((sprintf@prec))&0ffh,w
  1826                           
  1827  0013F2  B4D8               	btfsc	status,2
  1828  0013F4  D001               	goto	u5241
  1829  0013F6  D001               	goto	u5240
  1830  0013F8                     u5241:
  1831  0013F8  D014               	goto	l237
  1832  0013FA                     u5240:
  1833  0013FA  0101               	movlb	1	; () banked
  1834  0013FC  0101               	movlb	1	; () banked
  1835  0013FE  5150               	movf	(0+(sprintf@_val+02h))&0ffh,w
  1836  001400  0101               	movlb	1	; () banked
  1837  001402  0101               	movlb	1	; () banked
  1838  001404  5D44               	subwf	((sprintf@prec))&0ffh,w
  1839  001406  0101               	movlb	1	; () banked
  1840  001408  0101               	movlb	1	; () banked
  1841  00140A  5151               	movf	(1+(sprintf@_val+02h))&0ffh,w
  1842  00140C  0101               	movlb	1	; () banked
  1843  00140E  0101               	movlb	1	; () banked
  1844  001410  5945               	subwfb	((sprintf@prec+1))&0ffh,w
  1845  001412  B0D8               	btfsc	status,0
  1846  001414  D001               	goto	u5251
  1847  001416  D001               	goto	u5250
  1848  001418                     u5251:
  1849  001418  D004               	goto	l237
  1850  00141A                     u5250:
  1851                           	line	761
  1852                           ;doprnt.c: 761: _val._str._len = prec;
  1853  00141A  C144  F150         	movff	(sprintf@prec),0+(sprintf@_val+02h)
  1854  00141E  C145  F151         	movff	(sprintf@prec+1),1+(sprintf@_val+02h)
  1855                           	
  1856  001422                     l237:		; BSR set to: ?
  1857                           
  1858                           	line	764
  1859                           ;doprnt.c: 764: if(width > _val._str._len)
  1860  001422  0101               	movlb	1	; () banked
  1861  001424  0101               	movlb	1	; () banked
  1862  001426  5142               	movf	((sprintf@width))&0ffh,w
  1863  001428  0101               	movlb	1	; () banked
  1864  00142A  0101               	movlb	1	; () banked
  1865  00142C  5D50               	subwf	(0+(sprintf@_val+02h))&0ffh,w
  1866  00142E  0101               	movlb	1	; () banked
  1867  001430  0101               	movlb	1	; () banked
  1868  001432  5143               	movf	((sprintf@width+1))&0ffh,w
  1869  001434  0101               	movlb	1	; () banked
  1870  001436  0101               	movlb	1	; () banked
  1871  001438  5951               	subwfb	(1+(sprintf@_val+02h))&0ffh,w
  1872  00143A  B0D8               	btfsc	status,0
  1873  00143C  D001               	goto	u5261
  1874  00143E  D001               	goto	u5260
  1875  001440                     u5261:
  1876  001440  D00C               	goto	l238
  1877  001442                     u5260:
  1878                           	line	765
  1879                           ;doprnt.c: 765: width -= _val._str._len;
  1880  001442  0101               	movlb	1	; () banked
  1881  001444  EE01  F050         	lfsr	0,sprintf@_val+02h
  1882  001448  50EE               	movf	postinc0,w
  1883  00144A  0101               	movlb	1	; () banked
  1884  00144C  0101               	movlb	1	; () banked
  1885  00144E  5F42               	subwf	((sprintf@width))&0ffh
  1886  001450  50ED               	movf	postdec0,w
  1887  001452  0101               	movlb	1	; () banked
  1888  001454  0101               	movlb	1	; () banked
  1889  001456  5B43               	subwfb	((sprintf@width+1))&0ffh
  1890                           
  1891  001458  D007               	goto	l239
  1892                           	line	766
  1893                           	
  1894  00145A                     l238:		; BSR set to: ?
  1895                           
  1896                           	line	767
  1897                           ;doprnt.c: 766: else
  1898                           ;doprnt.c: 767: width = 0;
  1899  00145A  0E00               	movlw	low(0)
  1900  00145C  0101               	movlb	1	; () banked
  1901  00145E  0101               	movlb	1	; () banked
  1902  001460  6F42               	movwf	((sprintf@width))&0ffh
  1903  001462  0E00               	movlw	high(0)
  1904  001464  0101               	movlb	1	; () banked
  1905  001466  6F43               	movwf	((sprintf@width+1))&0ffh
  1906                           	
  1907  001468                     l239:		; BSR set to: ?
  1908                           
  1909                           	line	769
  1910                           ;doprnt.c: 769: if(!(flag & 0x08))
  1911  001468  0101               	movlb	1	; () banked
  1912                           	
  1913  00146A  0101               	movlb	1	; () banked
  1914  00146C  B746               	btfsc	((sprintf@flag))&0ffh,(3)&7
  1915  00146E  D001               	goto	u5271
  1916  001470  D001               	goto	u5270
  1917  001472                     u5271:
  1918  001472  D018               	goto	l240
  1919  001474                     u5270:
  1920                           	line	771
  1921                           ;doprnt.c: 771: while(width--)
  1922  001474  D00A               	goto	l241
  1923                           	
  1924  001476                     l242:		; BSR set to: ?
  1925                           
  1926                           	line	772
  1927  001476  C122  FFE9         	movff	(sprintf@sp),fsr0l
  1928  00147A  C123  FFEA         	movff	(sprintf@sp+1),fsr0h
  1929  00147E  0E20               	movlw	low(020h)
  1930  001480  6EEF               	movwf	indf0
  1931                           ;doprnt.c: 772: ((*sp++ = (' ')));
  1932  001482  0101               	movlb	1	; () banked
  1933  001484  0101               	movlb	1	; () banked
  1934  001486  4B22               	infsnz	((sprintf@sp))&0ffh
  1935  001488  2B23               	incf	((sprintf@sp+1))&0ffh
  1936                           	
  1937  00148A                     l241:		; BSR set to: ?
  1938                           
  1939                           	line	771
  1940  00148A  0101               	movlb	1	; () banked
  1941  00148C  0101               	movlb	1	; () banked
  1942  00148E  0742               	decf	((sprintf@width))&0ffh
  1943  001490  A0D8               	btfss	status,0
  1944  001492  0743               	decf	((sprintf@width+1))&0ffh
  1945  001494  0101               	movlb	1	; () banked
  1946  001496  2942               	incf	((sprintf@width))&0ffh,w
  1947  001498  B4D8               	btfsc	status,2
  1948  00149A  2943               	incf ((sprintf@width+1))&0ffh,w
  1949                           
  1950  00149C  A4D8               	btfss	status,2
  1951  00149E  D001               	goto	u5281
  1952  0014A0  D001               	goto	u5280
  1953  0014A2                     u5281:
  1954  0014A2  D7E9               	goto	l242
  1955  0014A4                     u5280:
  1956                           	
  1957  0014A4                     l243:		; BSR set to: ?
  1958                           
  1959                           	line	772
  1960                           	
  1961  0014A4                     l240:		; BSR set to: ?
  1962                           
  1963                           	line	774
  1964                           ;doprnt.c: 774: while(_val._str._len--)
  1965  0014A4  D020               	goto	l244
  1966                           	
  1967  0014A6                     l245:		; BSR set to: ?
  1968                           
  1969                           	line	775
  1970  0014A6  0101               	movlb	1	; () banked
  1971  0014A8  C14E  FFF6         	movff	(sprintf@_val),tblptrl
  1972  0014AC  0101               	movlb	1	; () banked
  1973  0014AE  C14F  FFF7         	movff	(sprintf@_val+1),tblptrh
  1974  0014B2  0E00               	movlw	low highword(__smallconst)
  1975  0014B4  6EF8               	movwf	tblptru
  1976  0014B6  C122  FFE1         	movff	(sprintf@sp),fsr1l
  1977  0014BA  C123  FFE2         	movff	(sprintf@sp+1),fsr1h
  1978  0014BE  0E0F               	movlw	high __ramtop-1
  1979  0014C0  64F7               	cpfsgt	tblptrh
  1980  0014C2  D003               	bra	u5297
  1981  0014C4  0008               	tblrd	*
  1982                           	
  1983  0014C6  50F5               	movf	tablat,w
  1984  0014C8  D005               	bra	u5290
  1985  0014CA                     u5297:
  1986  0014CA  CFF6 FFE9          	movff	tblptrl,fsr0l
  1987  0014CE  CFF7 FFEA          	movff	tblptrh,fsr0h
  1988  0014D2  50EF               	movf	indf0,w
  1989  0014D4                     u5290:
  1990  0014D4  6EE7               	movwf	indf1
  1991                           ;doprnt.c: 775: ((*sp++ = (*_val._str._cp++)));
  1992  0014D6  0101               	movlb	1	; () banked
  1993  0014D8  0101               	movlb	1	; () banked
  1994  0014DA  4B4E               	infsnz	((sprintf@_val))&0ffh
  1995  0014DC  2B4F               	incf	((sprintf@_val+1))&0ffh
  1996  0014DE  0101               	movlb	1	; () banked
  1997  0014E0  0101               	movlb	1	; () banked
  1998  0014E2  4B22               	infsnz	((sprintf@sp))&0ffh
  1999  0014E4  2B23               	incf	((sprintf@sp+1))&0ffh
  2000                           	
  2001  0014E6                     l244:		; BSR set to: ?
  2002                           
  2003                           	line	774
  2004  0014E6  0101               	movlb	1	; () banked
  2005  0014E8  0101               	movlb	1	; () banked
  2006  0014EA  0750               	decf	(0+(sprintf@_val+02h))&0ffh
  2007  0014EC  A0D8               	btfss	status,0
  2008  0014EE  0751               	decf	(1+(sprintf@_val+02h))&0ffh
  2009  0014F0  0101               	movlb	1	; () banked
  2010  0014F2  2950               	incf	(0+(sprintf@_val+02h))&0ffh,w
  2011  0014F4  B4D8               	btfsc	status,2
  2012  0014F6  2951               	incf (1+(sprintf@_val+02h))&0ffh,w
  2013                           
  2014  0014F8  A4D8               	btfss	status,2
  2015  0014FA  D001               	goto	u5301
  2016  0014FC  D001               	goto	u5300
  2017  0014FE                     u5301:
  2018  0014FE  D7D3               	goto	l245
  2019  001500                     u5300:
  2020                           	
  2021  001500                     l246:		; BSR set to: ?
  2022                           
  2023                           	line	777
  2024                           ;doprnt.c: 777: if(flag & 0x08)
  2025  001500  0101               	movlb	1	; () banked
  2026                           	
  2027  001502  0101               	movlb	1	; () banked
  2028  001504  A746               	btfss	((sprintf@flag))&0ffh,(3)&7
  2029  001506  D001               	goto	u5311
  2030  001508  D001               	goto	u5310
  2031  00150A                     u5311:
  2032  00150A  D018               	goto	l247
  2033  00150C                     u5310:
  2034                           	line	778
  2035                           ;doprnt.c: 778: while(width--)
  2036  00150C  D00A               	goto	l248
  2037                           	
  2038  00150E                     l249:		; BSR set to: ?
  2039                           
  2040                           	line	779
  2041  00150E  C122  FFE9         	movff	(sprintf@sp),fsr0l
  2042  001512  C123  FFEA         	movff	(sprintf@sp+1),fsr0h
  2043  001516  0E20               	movlw	low(020h)
  2044  001518  6EEF               	movwf	indf0
  2045                           ;doprnt.c: 779: ((*sp++ = (' ')));
  2046  00151A  0101               	movlb	1	; () banked
  2047  00151C  0101               	movlb	1	; () banked
  2048  00151E  4B22               	infsnz	((sprintf@sp))&0ffh
  2049  001520  2B23               	incf	((sprintf@sp+1))&0ffh
  2050                           	
  2051  001522                     l248:		; BSR set to: ?
  2052                           
  2053                           	line	778
  2054  001522  0101               	movlb	1	; () banked
  2055  001524  0101               	movlb	1	; () banked
  2056  001526  0742               	decf	((sprintf@width))&0ffh
  2057  001528  A0D8               	btfss	status,0
  2058  00152A  0743               	decf	((sprintf@width+1))&0ffh
  2059  00152C  0101               	movlb	1	; () banked
  2060  00152E  2942               	incf	((sprintf@width))&0ffh,w
  2061  001530  B4D8               	btfsc	status,2
  2062  001532  2943               	incf ((sprintf@width+1))&0ffh,w
  2063                           
  2064  001534  A4D8               	btfss	status,2
  2065  001536  D001               	goto	u5321
  2066  001538  D001               	goto	u5320
  2067  00153A                     u5321:
  2068  00153A  D7E9               	goto	l249
  2069  00153C                     u5320:
  2070                           	
  2071  00153C                     l250:		; BSR set to: ?
  2072                           
  2073                           	line	779
  2074                           	
  2075  00153C                     l247:		; BSR set to: ?
  2076                           
  2077                           	line	781
  2078                           ;doprnt.c: 781: continue;
  2079  00153C  EF76  F017         	goto	l198
  2080                           	line	809
  2081                           ;doprnt.c: 809: default:
  2082                           	
  2083  001540                     l251:		; BSR set to: ?
  2084                           
  2085                           	line	812
  2086                           ;doprnt.c: 812: _val._str._cp = (char *)&c;
  2087  001540  0101               	movlb	1	; () banked
  2088  001542  0E3D               	movlw	low(sprintf@c)
  2089  001544  0101               	movlb	1	; () banked
  2090  001546  0101               	movlb	1	; () banked
  2091  001548  6F4E               	movwf	((sprintf@_val))&0ffh
  2092  00154A  0101               	movlb	1	; () banked
  2093  00154C  0E01               	movlw	high(sprintf@c)
  2094  00154E  0101               	movlb	1	; () banked
  2095  001550  6F4F               	movwf	((sprintf@_val+1))&0ffh
  2096                           	line	813
  2097                           ;doprnt.c: 813: _val._str._len = 1;
  2098  001552  0E01               	movlw	low(01h)
  2099  001554  0101               	movlb	1	; () banked
  2100  001556  0101               	movlb	1	; () banked
  2101  001558  6F50               	movwf	(0+(sprintf@_val+02h))&0ffh
  2102  00155A  0E00               	movlw	high(01h)
  2103  00155C  0101               	movlb	1	; () banked
  2104  00155E  6F51               	movwf	(1+(sprintf@_val+02h))&0ffh
  2105                           	line	814
  2106                           ;doprnt.c: 814: goto dostring;
  2107  001560  D744               	goto	l236
  2108                           	line	642
  2109                           	
  2110  001562                     l222:		; BSR set to: ?
  2111                           
  2112  001562  0101               	movlb	1	; () banked
  2113  001564  0101               	movlb	1	; () banked
  2114  001566  5124               	movf	((sprintf@f))&0ffh,w
  2115  001568  0101               	movlb	1	; () banked
  2116  00156A  6F55               	movwf	(??_sprintf+42+0)&0ffh
  2117  00156C  0101               	movlb	1	; () banked
  2118  00156E  0101               	movlb	1	; () banked
  2119  001570  5125               	movf	((sprintf@f+1))&0ffh,w
  2120  001572  0101               	movlb	1	; () banked
  2121  001574  6F56               	movwf	1+(??_sprintf+42+0)&0ffh
  2122  001576  0101               	movlb	1	; () banked
  2123  001578  4B24               	infsnz	((sprintf@f))&0ffh
  2124  00157A  2B25               	incf	((sprintf@f+1))&0ffh
  2125  00157C  C155  FFF6         	movff	??_sprintf+42+0,tblptrl
  2126  001580  C156  FFF7         	movff	??_sprintf+42+1,tblptrh
  2127  001584  0E00               	movlw	low highword(__mediumconst)
  2128  001586  6EF8               	movwf	tblptru
  2129  001588  0008               	tblrd	*
  2130                           	
  2131  00158A  0101               	movlb	1	; () banked
  2132  00158C  CFF5 F13D          	movff	tablat,(sprintf@c)
  2133  001590  0101               	movlb	1	; () banked
  2134  001592  513D               	movf	((sprintf@c))&0ffh,w
  2135  001594  0A00               	xorlw	0 ^ 0
  2136  001596  E101 D6BD          	bz	l223
  2137  00159A  0A45               	xorlw	69 ^ 0
  2138  00159C  E101 D6C0          	bz	l226
  2139  0015A0  0A02               	xorlw	71 ^ 69
  2140  0015A2  E101 D6C4          	bz	l228
  2141  0015A6  0A22               	xorlw	101 ^ 71
  2142  0015A8  E101 D6BD          	bz	l227
  2143  0015AC  0A03               	xorlw	102 ^ 101
  2144  0015AE  E101 D6B3          	bz	l225
  2145  0015B2  0A01               	xorlw	103 ^ 102
  2146  0015B4  E101 D6BE          	bz	l229
  2147  0015B8  0A17               	xorlw	112 ^ 103
  2148  0015BA  E101 D6BF          	bz	l230
  2149  0015BE  0A03               	xorlw	115 ^ 112
  2150  0015C0  E101 D6BD          	bz	l231
  2151  0015C4  D7BD               	goto	l251
  2152                           
  2153                           	line	829
  2154                           	
  2155  0015C6                     l221:		; BSR set to: ?
  2156                           
  2157                           	line	832
  2158                           ;doprnt.c: 832: if(flag & (0x700)) {
  2159  0015C6  0E07               	movlw	high(0700h)
  2160  0015C8  0101               	movlb	1	; () banked
  2161  0015CA  0101               	movlb	1	; () banked
  2162  0015CC  1547               	andwf	((sprintf@flag+1))&0ffh,w
  2163                           
  2164  0015CE  B4D8               	btfsc	status,2
  2165  0015D0  D001               	goto	u5331
  2166  0015D2  D002               	goto	u5330
  2167  0015D4                     u5331:
  2168  0015D4  EF39  F015         	goto	l252
  2169  0015D8                     u5330:
  2170                           	line	834
  2171                           ;doprnt.c: 834: if(flag & 0x1000)
  2172  0015D8  0101               	movlb	1	; () banked
  2173                           	
  2174  0015DA  0101               	movlb	1	; () banked
  2175  0015DC  A947               	btfss	((sprintf@flag+1))&0ffh,(12)&7
  2176  0015DE  D001               	goto	u5341
  2177  0015E0  D001               	goto	u5340
  2178  0015E2                     u5341:
  2179  0015E2  D007               	goto	l253
  2180  0015E4                     u5340:
  2181                           	line	836
  2182                           ;doprnt.c: 836: prec = 6;
  2183  0015E4  0E06               	movlw	low(06h)
  2184  0015E6  0101               	movlb	1	; () banked
  2185  0015E8  0101               	movlb	1	; () banked
  2186  0015EA  6F44               	movwf	((sprintf@prec))&0ffh
  2187  0015EC  0E00               	movlw	high(06h)
  2188  0015EE  0101               	movlb	1	; () banked
  2189  0015F0  6F45               	movwf	((sprintf@prec+1))&0ffh
  2190                           	
  2191  0015F2                     l253:		; BSR set to: ?
  2192                           
  2193                           	line	837
  2194                           ;doprnt.c: 837: fval = (*(double *)__va_arg((*(d
                                 ouble **)ap)));
  2195  0015F2  0101               	movlb	1	; () banked
  2196  0015F4  C13E  FFE9         	movff	(sprintf@ap),fsr0l
  2197  0015F8  0101               	movlb	1	; () banked
  2198  0015FA  C13F  FFEA         	movff	(sprintf@ap+1),fsr0h
  2199  0015FE  0101               	movlb	1	; () banked
  2200  001600  0E03               	movlw	low(03h)
  2201  001602  0101               	movlb	1	; () banked
  2202  001604  273E               	addwf	((sprintf@ap))&0ffh
  2203  001606  0E00               	movlw	high(03h)
  2204  001608  0101               	movlb	1	; () banked
  2205  00160A  233F               	addwfc	((sprintf@ap+1))&0ffh
  2206  00160C  0101               	movlb	1	; () banked
  2207  00160E  CFEE F14B          	movff	postinc0,(sprintf@fval)
  2208  001612  0101               	movlb	1	; () banked
  2209  001614  CFEE F14C          	movff	postinc0,(sprintf@fval+1)
  2210  001618  0101               	movlb	1	; () banked
  2211  00161A  CFED F14D          	movff	postdec0,(sprintf@fval+2)
  2212                           	line	838
  2213                           ;doprnt.c: 838: if(fval < 0.0) {
  2214  00161E  0101               	movlb	1	; () banked
  2215  001620  0101               	movlb	1	; () banked
  2216  001622  514D               	movf	((sprintf@fval+2))&0ffh,w
  2217  001624  0A80               	xorlw	80h
  2218  001626  0F80               	addlw	-(low highword(float24(0.0000000000000000
                                 0)))^80h
  2219                           	
  2220  001628  E107               	bnz	u5355
  2221  00162A  0E00               	movlw	high(float24(0.00000000000000000))
  2222  00162C  0101               	movlb	1	; () banked
  2223  00162E  5D4C               	subwf	((sprintf@fval+1))&0ffh,w
  2224  001630  E103               	bnz	u5355
  2225  001632  0E00               	movlw	low(float24(0.00000000000000000))
  2226  001634  0101               	movlb	1	; () banked
  2227  001636  5D4B               	subwf	((sprintf@fval))&0ffh,w
  2228  001638                     u5355:
  2229  001638  B0D8               	btfsc	status,0
  2230  00163A  D001               	goto	u5351
  2231  00163C  D001               	goto	u5350
  2232  00163E                     u5351:
  2233  00163E  D012               	goto	l254
  2234  001640                     u5350:
  2235                           	line	839
  2236                           ;doprnt.c: 839: fval = -fval;
  2237  001640  C14B  F15B         	movff	(sprintf@fval),(?___ftneg)
  2238  001644  C14C  F15C         	movff	(sprintf@fval+1),(?___ftneg+1)
  2239  001648  C14D  F15D         	movff	(sprintf@fval+2),(?___ftneg+2)
  2240  00164C  EC8B  F02A         	call	___ftneg	;wreg free
  2241  001650  C15B  F14B         	movff	0+?___ftneg,(sprintf@fval)
  2242  001654  C15C  F14C         	movff	1+?___ftneg,(sprintf@fval+1)
  2243  001658  C15D  F14D         	movff	2+?___ftneg,(sprintf@fval+2)
  2244                           	line	840
  2245                           ;doprnt.c: 840: flag |= 0x03;
  2246  00165C  0E03               	movlw	03h
  2247  00165E  0101               	movlb	1	; () banked
  2248  001660  0101               	movlb	1	; () banked
  2249  001662  1346               	iorwf	((sprintf@flag))&0ffh
  2250                           	line	841
  2251                           	
  2252  001664                     l254:		; BSR set to: ?
  2253                           
  2254                           	line	842
  2255                           ;doprnt.c: 841: }
  2256                           ;doprnt.c: 842: exp = 0;
  2257  001664  0E00               	movlw	low(0)
  2258  001666  0101               	movlb	1	; () banked
  2259  001668  0101               	movlb	1	; () banked
  2260  00166A  6F40               	movwf	((sprintf@exp))&0ffh
  2261  00166C  0E00               	movlw	high(0)
  2262  00166E  0101               	movlb	1	; () banked
  2263  001670  6F41               	movwf	((sprintf@exp+1))&0ffh
  2264                           	line	843
  2265                           ;doprnt.c: 843: if( fval!=0) {
  2266  001672  0101               	movlb	1	; () banked
  2267  001674  0101               	movlb	1	; () banked
  2268  001676  514B               	movf	((sprintf@fval))&0ffh,w
  2269  001678  0101               	movlb	1	; () banked
  2270  00167A  114C               	iorwf	((sprintf@fval+1))&0ffh,w
  2271  00167C  0101               	movlb	1	; () banked
  2272  00167E  114D               	iorwf	((sprintf@fval+2))&0ffh,w
  2273  001680  B4D8               	btfsc	status,2
  2274  001682  D001               	goto	u5361
  2275  001684  D001               	goto	u5360
  2276  001686                     u5361:
  2277  001686  D0B0               	goto	l255
  2278  001688                     u5360:
  2279                           	line	844
  2280                           ;doprnt.c: 844: (void)(*(&exp) = ((*(unsigned lo
                                 ng *)&fval >> 15) & 255) - 126);
  2281  001688  0E82               	movlw	low(-126)
  2282  00168A  0101               	movlb	1	; () banked
  2283  00168C  6F55               	movwf	(??_sprintf+42+0)&0ffh
  2284  00168E  0EFF               	movlw	high(-126)
  2285  001690  6F56               	movwf	(??_sprintf+42+0+1)&0ffh
  2286  001692  0101               	movlb	1	; () banked
  2287  001694  C14B  F157         	movff	0+(sprintf@fval),??_sprintf+44+0
  2288  001698  0101               	movlb	1	; () banked
  2289  00169A  C14C  F158         	movff	1+(sprintf@fval),??_sprintf+44+0+1
  2290  00169E  0101               	movlb	1	; () banked
  2291  0016A0  C14D  F159         	movff	2+(sprintf@fval),??_sprintf+44+0+2
  2292  0016A4  0101               	movlb	1	; () banked
  2293  0016A6  C14E  F15A         	movff	3+(sprintf@fval),??_sprintf+44+0+3
  2294  0016AA  0E10               	movlw	0Fh+1
  2295  0016AC  D006               	goto	u5370
  2296  0016AE                     u5375:
  2297  0016AE  90D8               	bcf	status,0
  2298  0016B0  0101               	movlb	1	; () banked
  2299  0016B2  335A               	rrcf	(??_sprintf+44+3)&0ffh
  2300  0016B4  3359               	rrcf	(??_sprintf+44+2)&0ffh
  2301  0016B6  3358               	rrcf	(??_sprintf+44+1)&0ffh
  2302  0016B8  3357               	rrcf	(??_sprintf+44+0)&0ffh
  2303  0016BA                     u5370:
  2304  0016BA  2EE8               	decfsz	wreg
  2305  0016BC  D7F8               	goto	u5375
  2306  0016BE  0101               	movlb	1	; () banked
  2307  0016C0  5157               	movf	(??_sprintf+44+0)&0ffh,w
  2308  0016C2  0101               	movlb	1	; () banked
  2309  0016C4  2555               	addwf	(??_sprintf+42+0)&0ffh,w
  2310  0016C6  0101               	movlb	1	; () banked
  2311                           	
  2312  0016C8  0101               	movlb	1	; () banked
  2313  0016CA  6F40               	movwf	((sprintf@exp))&0ffh
  2314  0016CC  0E00               	movlw	0
  2315  0016CE  0101               	movlb	1	; () banked
  2316  0016D0  2156               	addwfc	(??_sprintf+42+1)&0ffh,w
  2317  0016D2  0101               	movlb	1	; () banked
  2318  0016D4  6F41               	movwf	1+((sprintf@exp))&0ffh
  2319                           	line	845
  2320                           ;doprnt.c: 845: exp--;
  2321  0016D6  0101               	movlb	1	; () banked
  2322  0016D8  0101               	movlb	1	; () banked
  2323  0016DA  0740               	decf	((sprintf@exp))&0ffh
  2324  0016DC  A0D8               	btfss	status,0
  2325  0016DE  0741               	decf	((sprintf@exp+1))&0ffh
  2326                           	line	846
  2327                           ;doprnt.c: 846: exp *= 3;
  2328  0016E0  0E03               	movlw	low(03h)
  2329  0016E2  0101               	movlb	1	; () banked
  2330  0016E4  0101               	movlb	1	; () banked
  2331  0016E6  6F7C               	movwf	(0+(?___wmul+02h))&0ffh
  2332  0016E8  0E00               	movlw	high(03h)
  2333  0016EA  0101               	movlb	1	; () banked
  2334  0016EC  6F7D               	movwf	(1+(?___wmul+02h))&0ffh
  2335  0016EE  C140  F17A         	movff	(sprintf@exp),(?___wmul)
  2336  0016F2  C141  F17B         	movff	(sprintf@exp+1),(?___wmul+1)
  2337  0016F6  EC87  F029         	call	___wmul	;wreg free
  2338  0016FA  C17A  F140         	movff	0+?___wmul,(sprintf@exp)
  2339  0016FE  C17B  F141         	movff	1+?___wmul,(sprintf@exp+1)
  2340                           	line	847
  2341                           ;doprnt.c: 847: exp /= 10;
  2342  001702  0E0A               	movlw	low(0Ah)
  2343  001704  0101               	movlb	1	; () banked
  2344  001706  0101               	movlb	1	; () banked
  2345  001708  6F7C               	movwf	(0+(?___awdiv+02h))&0ffh
  2346  00170A  0E00               	movlw	high(0Ah)
  2347  00170C  0101               	movlb	1	; () banked
  2348  00170E  6F7D               	movwf	(1+(?___awdiv+02h))&0ffh
  2349  001710  C140  F17A         	movff	(sprintf@exp),(?___awdiv)
  2350  001714  C141  F17B         	movff	(sprintf@exp+1),(?___awdiv+1)
  2351  001718  EC15  F025         	call	___awdiv	;wreg free
  2352  00171C  C17A  F140         	movff	0+?___awdiv,(sprintf@exp)
  2353  001720  C17B  F141         	movff	1+?___awdiv,(sprintf@exp+1)
  2354                           	line	848
  2355                           ;doprnt.c: 848: if(exp < 0)
  2356  001724  0101               	movlb	1	; () banked
  2357  001726  0101               	movlb	1	; () banked
  2358  001728  AF41               	btfss	((sprintf@exp+1))&0ffh,7
  2359  00172A  D001               	goto	u5381
  2360  00172C  D001               	goto	u5380
  2361  00172E                     u5381:
  2362  00172E  D005               	goto	l256
  2363  001730                     u5380:
  2364                           	line	849
  2365                           ;doprnt.c: 849: exp--;
  2366  001730  0101               	movlb	1	; () banked
  2367  001732  0101               	movlb	1	; () banked
  2368  001734  0740               	decf	((sprintf@exp))&0ffh
  2369  001736  A0D8               	btfss	status,0
  2370  001738  0741               	decf	((sprintf@exp+1))&0ffh
  2371                           	
  2372  00173A                     l256:		; BSR set to: ?
  2373                           
  2374                           	line	850
  2375                           ;doprnt.c: 850: integ = fval * scale(-exp);
  2376  00173A  0101               	movlb	1	; () banked
  2377  00173C  0101               	movlb	1	; () banked
  2378  00173E  5140               	movf	((sprintf@exp))&0ffh,w
  2379  001740  0800               	sublw	0
  2380  001742  0101               	movlb	1	; () banked
  2381  001744  0101               	movlb	1	; () banked
  2382  001746  6F5B               	movwf	((?_scale))&0ffh
  2383  001748  EC9B  F017         	call	_scale	;wreg free
  2384  00174C  C15B  F17A         	movff	0+?_scale,(?___ftmul)
  2385  001750  C15C  F17B         	movff	1+?_scale,(?___ftmul+1)
  2386  001754  C15D  F17C         	movff	2+?_scale,(?___ftmul+2)
  2387  001758  C14B  F17D         	movff	(sprintf@fval),0+(?___ftmul+03h)
  2388  00175C  C14C  F17E         	movff	(sprintf@fval+1),1+(?___ftmul+03h)
  2389  001760  C14D  F17F         	movff	(sprintf@fval+2),2+(?___ftmul+03h)
  2390  001764  ECA9  F020         	call	___ftmul	;wreg free
  2391  001768  C17A  F148         	movff	0+?___ftmul,(sprintf@integ)
  2392  00176C  C17B  F149         	movff	1+?___ftmul,(sprintf@integ+1)
  2393  001770  C17C  F14A         	movff	2+?___ftmul,(sprintf@integ+2)
  2394                           	line	851
  2395                           ;doprnt.c: 851: if(integ < 1.0)
  2396  001774  0E00               	movlw	low(float24(1.0000000000000000))
  2397  001776  0101               	movlb	1	; () banked
  2398  001778  0101               	movlb	1	; () banked
  2399  00177A  6F5E               	movwf	(0+(?___ftge+03h))&0ffh
  2400  00177C  0E80               	movlw	high(float24(1.0000000000000000))
  2401  00177E  0101               	movlb	1	; () banked
  2402  001780  0101               	movlb	1	; () banked
  2403  001782  6F5F               	movwf	(1+(?___ftge+03h))&0ffh
  2404  001784  0E3F               	movlw	low highword(float24(1.0000000000000000))
  2405  001786  0101               	movlb	1	; () banked
  2406  001788  0101               	movlb	1	; () banked
  2407  00178A  6F60               	movwf	(2+(?___ftge+03h))&0ffh
  2408                           
  2409  00178C  C148  F15B         	movff	(sprintf@integ),(?___ftge)
  2410  001790  C149  F15C         	movff	(sprintf@integ+1),(?___ftge+1)
  2411  001794  C14A  F15D         	movff	(sprintf@integ+2),(?___ftge+2)
  2412  001798  EC2D  F027         	call	___ftge	;wreg free
  2413  00179C  B0D8               	btfsc	status,0
  2414  00179E  D001               	goto	u5391
  2415  0017A0  D001               	goto	u5390
  2416  0017A2                     u5391:
  2417  0017A2  D006               	goto	l257
  2418  0017A4                     u5390:
  2419                           	line	852
  2420                           ;doprnt.c: 852: exp--;
  2421  0017A4  0101               	movlb	1	; () banked
  2422  0017A6  0101               	movlb	1	; () banked
  2423  0017A8  0740               	decf	((sprintf@exp))&0ffh
  2424  0017AA  A0D8               	btfss	status,0
  2425  0017AC  0741               	decf	((sprintf@exp+1))&0ffh
  2426  0017AE  D01C               	goto	l255
  2427                           	line	853
  2428                           	
  2429  0017B0                     l257:		; BSR set to: ?
  2430                           
  2431                           ;doprnt.c: 853: else if(integ >= 10.0)
  2432  0017B0  0E00               	movlw	low(float24(10.000000000000000))
  2433  0017B2  0101               	movlb	1	; () banked
  2434  0017B4  0101               	movlb	1	; () banked
  2435  0017B6  6F5E               	movwf	(0+(?___ftge+03h))&0ffh
  2436  0017B8  0E20               	movlw	high(float24(10.000000000000000))
  2437  0017BA  0101               	movlb	1	; () banked
  2438  0017BC  0101               	movlb	1	; () banked
  2439  0017BE  6F5F               	movwf	(1+(?___ftge+03h))&0ffh
  2440  0017C0  0E41               	movlw	low highword(float24(10.000000000000000))
  2441  0017C2  0101               	movlb	1	; () banked
  2442  0017C4  0101               	movlb	1	; () banked
  2443  0017C6  6F60               	movwf	(2+(?___ftge+03h))&0ffh
  2444                           
  2445  0017C8  C148  F15B         	movff	(sprintf@integ),(?___ftge)
  2446  0017CC  C149  F15C         	movff	(sprintf@integ+1),(?___ftge+1)
  2447  0017D0  C14A  F15D         	movff	(sprintf@integ+2),(?___ftge+2)
  2448  0017D4  EC2D  F027         	call	___ftge	;wreg free
  2449  0017D8  A0D8               	btfss	status,0
  2450  0017DA  D001               	goto	u5401
  2451  0017DC  D001               	goto	u5400
  2452  0017DE                     u5401:
  2453  0017DE  D004               	goto	l255
  2454  0017E0                     u5400:
  2455                           	line	854
  2456                           ;doprnt.c: 854: exp++;
  2457  0017E0  0101               	movlb	1	; () banked
  2458  0017E2  0101               	movlb	1	; () banked
  2459  0017E4  4B40               	infsnz	((sprintf@exp))&0ffh
  2460  0017E6  2B41               	incf	((sprintf@exp+1))&0ffh
  2461                           	
  2462  0017E8                     l259:		; BSR set to: ?
  2463                           
  2464                           	line	855
  2465                           	
  2466  0017E8                     l258:		; BSR set to: ?
  2467                           
  2468                           	
  2469  0017E8                     l255:		; BSR set to: ?
  2470                           
  2471                           	line	857
  2472                           ;doprnt.c: 855: }
  2473                           ;doprnt.c: 857: if(exp <= 0)
  2474  0017E8  0101               	movlb	1	; () banked
  2475  0017EA  0101               	movlb	1	; () banked
  2476  0017EC  5141               	movf	((sprintf@exp+1))&0ffh,w
  2477  0017EE  0A80               	xorlw	80h
  2478  0017F0  0F80               	addlw	-((0)^80h)
  2479  0017F2  0E01               	movlw	01h
  2480  0017F4  B4D8               	btfsc	status,2
  2481  0017F6  5D40               	subwf	((sprintf@exp))&0ffh,w
  2482  0017F8  B0D8               	btfsc	status,0
  2483  0017FA  D001               	goto	u5411
  2484  0017FC  D001               	goto	u5410
  2485  0017FE                     u5411:
  2486  0017FE  D009               	goto	l260
  2487  001800                     u5410:
  2488                           	line	858
  2489                           ;doprnt.c: 858: c = 1;
  2490  001800  0101               	movlb	1	; () banked
  2491  001802  6F55               	movwf	(??_sprintf+42+0)&0ffh
  2492  001804  0E01               	movlw	low(01h)
  2493  001806  0101               	movlb	1	; () banked
  2494  001808  0101               	movlb	1	; () banked
  2495  00180A  6F3D               	movwf	((sprintf@c))&0ffh
  2496  00180C  0101               	movlb	1	; () banked
  2497  00180E  5155               	movf	(??_sprintf+42+0)&0ffh,w
  2498  001810  D002               	goto	l261
  2499                           	line	859
  2500                           	
  2501  001812                     l260:		; BSR set to: ?
  2502                           
  2503                           	line	860
  2504                           ;doprnt.c: 859: else
  2505                           ;doprnt.c: 860: c = exp;
  2506  001812  C140  F13D         	movff	(sprintf@exp),(sprintf@c)
  2507                           	
  2508  001816                     l261:		; BSR set to: ?
  2509                           
  2510                           	line	871
  2511                           ;doprnt.c: 861: if(
  2512                           ;doprnt.c: 863: flag & 0x100
  2513                           ;doprnt.c: 865: ||
  2514                           ;doprnt.c: 869: flag & 0x200 && (exp < -4 || exp
                                  >= (int)prec)
  2515                           ;doprnt.c: 871: ) {
  2516  001816  0101               	movlb	1	; () banked
  2517                           	
  2518  001818  0101               	movlb	1	; () banked
  2519  00181A  B147               	btfsc	((sprintf@flag+1))&0ffh,(8)&7
  2520  00181C  D001               	goto	u5421
  2521  00181E  D001               	goto	u5420
  2522  001820                     u5421:
  2523  001820  D029               	goto	l600000647
  2524  001822                     u5420:
  2525  001822  0101               	movlb	1	; () banked
  2526                           	
  2527  001824  0101               	movlb	1	; () banked
  2528  001826  A347               	btfss	((sprintf@flag+1))&0ffh,(9)&7
  2529  001828  D001               	goto	u5431
  2530  00182A  D002               	goto	u5430
  2531  00182C                     u5431:
  2532  00182C  EFA2  F010         	goto	l262
  2533  001830                     u5430:
  2534  001830  0101               	movlb	1	; () banked
  2535  001832  0101               	movlb	1	; () banked
  2536  001834  5141               	movf	((sprintf@exp+1))&0ffh,w
  2537  001836  0A80               	xorlw	80h
  2538  001838  0F81               	addlw	-((0FFh)^80h)
  2539  00183A  0EFC               	movlw	0FCh
  2540  00183C  B4D8               	btfsc	status,2
  2541  00183E  5D40               	subwf	((sprintf@exp))&0ffh,w
  2542  001840  A0D8               	btfss	status,0
  2543  001842  D001               	goto	u5441
  2544  001844  D001               	goto	u5440
  2545  001846                     u5441:
  2546  001846  D016               	goto	l600000647
  2547  001848                     u5440:
  2548  001848  0101               	movlb	1	; () banked
  2549  00184A  0101               	movlb	1	; () banked
  2550  00184C  5141               	movf	((sprintf@exp+1))&0ffh,w
  2551  00184E  0A80               	xorlw	80h
  2552  001850  0101               	movlb	1	; () banked
  2553  001852  6F55               	movwf	(??_sprintf+42+0)&0ffh
  2554  001854  0101               	movlb	1	; () banked
  2555  001856  5144               	movf	((sprintf@prec))&0ffh,w
  2556  001858  0101               	movlb	1	; () banked
  2557  00185A  0101               	movlb	1	; () banked
  2558  00185C  5D40               	subwf	((sprintf@exp))&0ffh,w
  2559  00185E  0101               	movlb	1	; () banked
  2560  001860  0101               	movlb	1	; () banked
  2561  001862  5145               	movf	((sprintf@prec+1))&0ffh,w
  2562  001864  0A80               	xorlw	80h
  2563  001866  0101               	movlb	1	; () banked
  2564  001868  5955               	subwfb	(??_sprintf+42+0)&0ffh,w
  2565  00186A  A0D8               	btfss	status,0
  2566  00186C  D001               	goto	u5451
  2567  00186E  D002               	goto	u5450
  2568  001870                     u5451:
  2569  001870  EFA2  F010         	goto	l262
  2570  001874                     u5450:
  2571                           	
  2572  001874                     l600000648:		; BSR set to: ?
  2573                           
  2574                           	
  2575  001874                     l600000647:		; BSR set to: ?
  2576                           
  2577                           	line	873
  2578                           ;doprnt.c: 873: if(prec && flag & 0x200)
  2579  001874  0101               	movlb	1	; () banked
  2580  001876  0101               	movlb	1	; () banked
  2581  001878  5145               	movf	((sprintf@prec+1))&0ffh,w
  2582  00187A  1144               	iorwf ((sprintf@prec))&0ffh,w
  2583                           
  2584  00187C  B4D8               	btfsc	status,2
  2585  00187E  D001               	goto	u5461
  2586  001880  D001               	goto	u5460
  2587  001882                     u5461:
  2588  001882  D00B               	goto	l263
  2589  001884                     u5460:
  2590  001884  0101               	movlb	1	; () banked
  2591                           	
  2592  001886  0101               	movlb	1	; () banked
  2593  001888  A347               	btfss	((sprintf@flag+1))&0ffh,(9)&7
  2594  00188A  D001               	goto	u5471
  2595  00188C  D001               	goto	u5470
  2596  00188E                     u5471:
  2597  00188E  D005               	goto	l263
  2598  001890                     u5470:
  2599                           	line	874
  2600                           ;doprnt.c: 874: prec--;
  2601  001890  0101               	movlb	1	; () banked
  2602  001892  0101               	movlb	1	; () banked
  2603  001894  0744               	decf	((sprintf@prec))&0ffh
  2604  001896  A0D8               	btfss	status,0
  2605  001898  0745               	decf	((sprintf@prec+1))&0ffh
  2606                           	
  2607  00189A                     l263:		; BSR set to: ?
  2608                           
  2609                           	line	876
  2610                           ;doprnt.c: 876: if((unsigned)prec > (sizeof dpow
                                 ers/sizeof dpowers[0]) - 2)
  2611  00189A  0E09               	movlw	09h
  2612  00189C  0101               	movlb	1	; () banked
  2613  00189E  0101               	movlb	1	; () banked
  2614  0018A0  5D44               	subwf	((sprintf@prec))&0ffh,w
  2615  0018A2  0E00               	movlw	0
  2616  0018A4  0101               	movlb	1	; () banked
  2617  0018A6  5945               	subwfb	((sprintf@prec+1))&0ffh,w
  2618  0018A8  A0D8               	btfss	status,0
  2619  0018AA  D001               	goto	u5481
  2620  0018AC  D001               	goto	u5480
  2621  0018AE                     u5481:
  2622  0018AE  D009               	goto	l264
  2623  0018B0                     u5480:
  2624                           	line	877
  2625                           ;doprnt.c: 877: c = (sizeof dpowers/sizeof dpowe
                                 rs[0]) - 2;
  2626  0018B0  0101               	movlb	1	; () banked
  2627  0018B2  6F55               	movwf	(??_sprintf+42+0)&0ffh
  2628  0018B4  0E08               	movlw	low(08h)
  2629  0018B6  0101               	movlb	1	; () banked
  2630  0018B8  0101               	movlb	1	; () banked
  2631  0018BA  6F3D               	movwf	((sprintf@c))&0ffh
  2632  0018BC  0101               	movlb	1	; () banked
  2633  0018BE  5155               	movf	(??_sprintf+42+0)&0ffh,w
  2634  0018C0  D002               	goto	l265
  2635                           	line	878
  2636                           	
  2637  0018C2                     l264:		; BSR set to: ?
  2638                           
  2639                           	line	879
  2640                           ;doprnt.c: 878: else
  2641                           ;doprnt.c: 879: c = prec;
  2642  0018C2  C144  F13D         	movff	(sprintf@prec),(sprintf@c)
  2643                           	
  2644  0018C6                     l265:		; BSR set to: ?
  2645                           
  2646                           	line	880
  2647                           ;doprnt.c: 880: if( fval!=0) {
  2648  0018C6  0101               	movlb	1	; () banked
  2649  0018C8  0101               	movlb	1	; () banked
  2650  0018CA  514B               	movf	((sprintf@fval))&0ffh,w
  2651  0018CC  0101               	movlb	1	; () banked
  2652  0018CE  114C               	iorwf	((sprintf@fval+1))&0ffh,w
  2653  0018D0  0101               	movlb	1	; () banked
  2654  0018D2  114D               	iorwf	((sprintf@fval+2))&0ffh,w
  2655  0018D4  B4D8               	btfsc	status,2
  2656  0018D6  D001               	goto	u5491
  2657  0018D8  D001               	goto	u5490
  2658  0018DA                     u5491:
  2659  0018DA  D105               	goto	l266
  2660  0018DC                     u5490:
  2661                           	line	881
  2662                           ;doprnt.c: 881: fval /= scale(exp-c);
  2663  0018DC  0101               	movlb	1	; () banked
  2664  0018DE  0101               	movlb	1	; () banked
  2665  0018E0  513D               	movf	((sprintf@c))&0ffh,w
  2666  0018E2  0101               	movlb	1	; () banked
  2667  0018E4  0101               	movlb	1	; () banked
  2668  0018E6  5D40               	subwf	((sprintf@exp))&0ffh,w
  2669  0018E8  0101               	movlb	1	; () banked
  2670  0018EA  0101               	movlb	1	; () banked
  2671  0018EC  6F5B               	movwf	((?_scale))&0ffh
  2672  0018EE  EC9B  F017         	call	_scale	;wreg free
  2673  0018F2  C15B  F12B         	movff	0+?_scale,(_sprintf$1154)
  2674  0018F6  C15C  F12C         	movff	1+?_scale,(_sprintf$1154+1)
  2675  0018FA  C15D  F12D         	movff	2+?_scale,(_sprintf$1154+2)
  2676  0018FE  C12B  F15D         	movff	(_sprintf$1154),0+(?___asftdiv+02h)
  2677  001902  C12C  F15E         	movff	(_sprintf$1154+1),1+(?___asftdiv+02h)
  2678  001906  C12D  F15F         	movff	(_sprintf$1154+2),2+(?___asftdiv+02h)
  2679  00190A  0101               	movlb	1	; () banked
  2680  00190C  0E4B               	movlw	low(sprintf@fval)
  2681  00190E  0101               	movlb	1	; () banked
  2682  001910  0101               	movlb	1	; () banked
  2683  001912  6F5B               	movwf	((?___asftdiv))&0ffh
  2684  001914  0101               	movlb	1	; () banked
  2685  001916  0E01               	movlw	high(sprintf@fval)
  2686  001918  0101               	movlb	1	; () banked
  2687  00191A  6F5C               	movwf	((?___asftdiv+1))&0ffh
  2688  00191C  EC47  F02A         	call	___asftdiv	;wreg free
  2689                           	line	896
  2690                           ;doprnt.c: 896: if(fval - (double)(unsigned long
                                 )fval >= 0.5)
  2691  001920  C14B  F15B         	movff	(sprintf@fval),(?___fttol)
  2692  001924  C14C  F15C         	movff	(sprintf@fval+1),(?___fttol+1)
  2693  001928  C14D  F15D         	movff	(sprintf@fval+2),(?___fttol+2)
  2694  00192C  ECD4  F023         	call	___fttol	;wreg free
  2695  001930  C15B  F15B         	movff	0+?___fttol,(?___lltoft)
  2696  001934  C15C  F15C         	movff	1+?___fttol,(?___lltoft+1)
  2697  001938  C15D  F15D         	movff	2+?___fttol,(?___lltoft+2)
  2698  00193C  C15E  F15E         	movff	3+?___fttol,(?___lltoft+3)
  2699  001940  EC9D  F027         	call	___lltoft	;wreg free
  2700  001944  C15B  F163         	movff	0+?___lltoft,0+(?___ftsub+03h)
  2701  001948  C15C  F164         	movff	1+?___lltoft,1+(?___ftsub+03h)
  2702+ 00194C  C15D  F165         	movff	2+?___lltoft,2+(?___ftsub+03h)
  2703+ 001950  C14B  F160         	movff	(sprintf@fval),(?___ftsub)
  2704+ 001954  C14C  F161         	movff	(sprintf@fval+1),(?___ftsub+1)
  2705+ 001958  C14D  F162         	movff	(sprintf@fval+2),(?___ftsub+2)
  2706+ 00195C  EC69  F02A         	call	___ftsub	;wreg free
  2707+ 001960  C160  F15B         	movff	0+?___ftsub,(?___ftge)
  2708+ 001964  C161  F15C         	movff	1+?___ftsub,(?___ftge+1)
  2709+ 001968  C162  F15D         	movff	2+?___ftsub,(?___ftge+2)
  2710+ 00196C  0E00               	movlw	low(float24(0.50000000000000000))
  2711+ 00196E  0101               	movlb	1	; () banked
  2712+ 001970  0101               	movlb	1	; () banked
  2713+ 001972  6F5E               	movwf	(0+(?___ftge+03h))&0ffh
  2714+ 001974  0E00               	movlw	high(float24(0.50000000000000000))
  2715+ 001976  0101               	movlb	1	; () banked
  2716+ 001978  0101               	movlb	1	; () banked
  2717+ 00197A  6F5F               	movwf	(1+(?___ftge+03h))&0ffh
  2718+ 00197C  0E3F               	movlw	low highword(float24(0.50000000000000000)
      +                          )
  2719+ 00197E  0101               	movlb	1	; () banked
  2720+ 001980  0101               	movlb	1	; () banked
  2721+ 001982  6F60               	movwf	(2+(?___ftge+03h))&0ffh
  2722+                          
  2723+ 001984  EC2D  F027         	call	___ftge	;wreg free
  2724+ 001988  A0D8               	btfss	status,0
  2725+ 00198A  D001               	goto	u5501
  2726+ 00198C  D001               	goto	u5500
  2727+ 00198E                     u5501:
  2728+ 00198E  D017               	goto	l267
  2729+ 001990                     u5500:
  2730+                          	line	897
  2731+                          ;doprnt.c: 897: fval += 0.5;
  2732+ 001990  0E00               	movlw	low(float24(0.50000000000000000))
  2733+ 001992  0101               	movlb	1	; () banked
  2734+ 001994  0101               	movlb	1	; () banked
  2735+ 001996  6F5D               	movwf	(0+(?___asftadd+02h))&0ffh
  2736+ 001998  0E00               	movlw	high(float24(0.50000000000000000))
  2737+ 00199A  0101               	movlb	1	; () banked
  2738+ 00199C  0101               	movlb	1	; () banked
  2739+ 00199E  6F5E               	movwf	(1+(?___asftadd+02h))&0ffh
  2740+ 0019A0  0E3F               	movlw	low highword(float24(0.50000000000000000)
      +                          )
  2741+ 0019A2  0101               	movlb	1	; () banked
  2742+ 0019A4  0101               	movlb	1	; () banked
  2743+ 0019A6  6F5F               	movwf	(2+(?___asftadd+02h))&0ffh
  2744+                          
  2745+ 0019A8  0101               	movlb	1	; () banked
  2746+ 0019AA  0E4B               	movlw	low(sprintf@fval)
  2747+ 0019AC  0101               	movlb	1	; () banked
  2748+ 0019AE  0101               	movlb	1	; () banked
  2749+ 0019B0  6F5B               	movwf	((?___asftadd))&0ffh
  2750+ 0019B2  0101               	movlb	1	; () banked
  2751+ 0019B4  0E01               	movlw	high(sprintf@fval)
  2752+ 0019B6  0101               	movlb	1	; () banked
  2753+ 0019B8  6F5C               	movwf	((?___asftadd+1))&0ffh
  2754+ 0019BA  EC25  F02A         	call	___asftadd	;wreg free
  2755+                          	
  2756+ 0019BE                     l267:		; BSR set to: ?
  2757+                          
  2758+                          	line	898
  2759+                          ;doprnt.c: 898: if((unsigned long)fval >= dpower
      +                          s[c+1]) {
  2760+ 0019BE  C13D  F155         	movff	(sprintf@c),??_sprintf+42+0
  2761+ 0019C2  90D8               	bcf	status,0
  2762+ 0019C4  0101               	movlb	1	; () banked
  2763+ 0019C6  3755               	rlcf	(??_sprintf+42+0)&0ffh
  2764+ 0019C8  90D8               	bcf	status,0
  2765+ 0019CA  0101               	movlb	1	; () banked
  2766+ 0019CC  3755               	rlcf	(??_sprintf+42+0)&0ffh
  2767+                          
  2768+ 0019CE  0E04               	movlw	04h
  2769+ 0019D0  0101               	movlb	1	; () banked
  2770+ 0019D2  2755               	addwf	(??_sprintf+42+0)&0ffh
  2771+ 0019D4  0E01               	movlw	low((_dpowers))
  2772+ 0019D6  0101               	movlb	1	; () banked
  2773+ 0019D8  2555               	addwf	(??_sprintf+42+0)&0ffh,w
  2774+ 0019DA  6EF6               	movwf	tblptrl
  2775+ 0019DC  6AF7               	clrf	tblptrh
  2776+ 0019DE  0E10               	movlw	high((_dpowers))
  2777+ 0019E0  22F7               	addwfc	tblptrh
  2778+ 0019E2  6AF8               	clrf	tblptru
  2779+ 0019E4  0E00               	movlw	low highword(__mediumconst)
  2780+ 0019E6  22F8               	addwfc	tblptru
  2781+ 0019E8  C14B  F15B         	movff	(sprintf@fval),(?___fttol)
  2782+ 0019EC  C14C  F15C         	movff	(sprintf@fval+1),(?___fttol+1)
  2783+ 0019F0  C14D  F15D         	movff	(sprintf@fval+2),(?___fttol+2)
  2784+ 0019F4  ECD4  F023         	call	___fttol	;wreg free
  2785+ 0019F8  0009               	tblrd	*+
  2786+                          	
  2787+ 0019FA  50F5               	movf	tablat,w
  2788+ 0019FC  0101               	movlb	1	; () banked
  2789+ 0019FE  0101               	movlb	1	; () banked
  2790+ 001A00  5D5B               	subwf	(0+?___fttol)&0ffh,w
  2791+ 001A02  0009               	tblrd	*+
  2792+                          	
  2793+ 001A04  50F5               	movf	tablat,w
  2794+ 001A06  0101               	movlb	1	; () banked
  2795+ 001A08  595C               	subwfb	(1+?___fttol)&0ffh,w
  2796+ 001A0A  0009               	tblrd	*+
  2797+                          	
  2798+ 001A0C  50F5               	movf	tablat,w
  2799+ 001A0E  0101               	movlb	1	; () banked
  2800+ 001A10  595D               	subwfb	(2+?___fttol)&0ffh,w
  2801+ 001A12  0009               	tblrd	*+
  2802+                          	
  2803+ 001A14  50F5               	movf	tablat,w
  2804+ 001A16  0101               	movlb	1	; () banked
  2805+ 001A18  595E               	subwfb	(3+?___fttol)&0ffh,w
  2806+ 001A1A  A0D8               	btfss	status,0
  2807+ 001A1C  D001               	goto	u5511
  2808+ 001A1E  D001               	goto	u5510
  2809+ 001A20                     u5511:
  2810+ 001A20  D01C               	goto	l268
  2811+ 001A22                     u5510:
  2812+                          	line	899
  2813+                          ;doprnt.c: 899: fval *= 1e-1;
  2814+ 001A22  0ECD               	movlw	low(float24(0.10000000000000001))
  2815+ 001A24  0101               	movlb	1	; () banked
  2816+ 001A26  0101               	movlb	1	; () banked
  2817+ 001A28  6F5D               	movwf	(0+(?___asftmul+02h))&0ffh
  2818+ 001A2A  0ECC               	movlw	high(float24(0.10000000000000001))
  2819+ 001A2C  0101               	movlb	1	; () banked
  2820+ 001A2E  0101               	movlb	1	; () banked
  2821+ 001A30  6F5E               	movwf	(1+(?___asftmul+02h))&0ffh
  2822+ 001A32  0E3D               	movlw	low highword(float24(0.10000000000000001)
      +                          )
  2823+ 001A34  0101               	movlb	1	; () banked
  2824+ 001A36  0101               	movlb	1	; () banked
  2825+ 001A38  6F5F               	movwf	(2+(?___asftmul+02h))&0ffh
  2826+                          
  2827+ 001A3A  0101               	movlb	1	; () banked
  2828+ 001A3C  0E4B               	movlw	low(sprintf@fval)
  2829+ 001A3E  0101               	movlb	1	; () banked
  2830+ 001A40  0101               	movlb	1	; () banked
  2831+ 001A42  6F5B               	movwf	((?___asftmul))&0ffh
  2832+ 001A44  0101               	movlb	1	; () banked
  2833+ 001A46  0E01               	movlw	high(sprintf@fval)
  2834+ 001A48  0101               	movlb	1	; () banked
  2835+ 001A4A  6F5C               	movwf	((?___asftmul+1))&0ffh
  2836+ 001A4C  ECE1  F029         	call	___asftmul	;wreg free
  2837+                          	line	900
  2838+                          ;doprnt.c: 900: exp++;
  2839+ 001A50  0101               	movlb	1	; () banked
  2840+ 001A52  0101               	movlb	1	; () banked
  2841+ 001A54  4B40               	infsnz	((sprintf@exp))&0ffh
  2842+ 001A56  2B41               	incf	((sprintf@exp+1))&0ffh
  2843+                          	line	901
  2844+                          ;doprnt.c: 901: } else if((unsigned long)fval < 
      +                          dpowers[c]) {
  2845+ 001A58  D046               	goto	l266
  2846+                          	
  2847+ 001A5A                     l268:		; BSR set to: ?
  2848+                          
  2849+ 001A5A  0101               	movlb	1	; () banked
  2850+ 001A5C  0101               	movlb	1	; () banked
  2851+ 001A5E  513D               	movf	((sprintf@c))&0ffh,w
  2852+ 001A60  0D04               	mullw	04h
  2853+ 001A62  0E01               	movlw	low((_dpowers))
  2854+ 001A64  24F3               	addwf	(prodl),c,w
  2855+ 001A66  6EF6               	movwf	tblptrl
  2856+ 001A68  6AF7               	clrf	tblptrh
  2857+ 001A6A  0E10               	movlw	high((_dpowers))
  2858+ 001A6C  22F7               	addwfc	tblptrh
  2859+ 001A6E  6AF8               	clrf	tblptru
  2860+ 001A70  0E00               	movlw	low highword(__mediumconst)
  2861+ 001A72  22F8               	addwfc	tblptru
  2862+ 001A74  C14B  F15B         	movff	(sprintf@fval),(?___fttol)
  2863+ 001A78  C14C  F15C         	movff	(sprintf@fval+1),(?___fttol+1)
  2864+ 001A7C  C14D  F15D         	movff	(sprintf@fval+2),(?___fttol+2)
  2865+ 001A80  ECD4  F023         	call	___fttol	;wreg free
  2866+ 001A84  0009               	tblrd	*+
  2867+                          	
  2868+ 001A86  50F5               	movf	tablat,w
  2869+ 001A88  0101               	movlb	1	; () banked
  2870+ 001A8A  0101               	movlb	1	; () banked
  2871+ 001A8C  5D5B               	subwf	(0+?___fttol)&0ffh,w
  2872+ 001A8E  0009               	tblrd	*+
  2873+                          	
  2874+ 001A90  50F5               	movf	tablat,w
  2875+ 001A92  0101               	movlb	1	; () banked
  2876+ 001A94  595C               	subwfb	(1+?___fttol)&0ffh,w
  2877+ 001A96  0009               	tblrd	*+
  2878+                          	
  2879+ 001A98  50F5               	movf	tablat,w
  2880+ 001A9A  0101               	movlb	1	; () banked
  2881+ 001A9C  595D               	subwfb	(2+?___fttol)&0ffh,w
  2882+ 001A9E  0009               	tblrd	*+
  2883+                          	
  2884+ 001AA0  50F5               	movf	tablat,w
  2885+ 001AA2  0101               	movlb	1	; () banked
  2886+ 001AA4  595E               	subwfb	(3+?___fttol)&0ffh,w
  2887+ 001AA6  B0D8               	btfsc	status,0
  2888+ 001AA8  D001               	goto	u5521
  2889+ 001AAA  D001               	goto	u5520
  2890+ 001AAC                     u5521:
  2891+ 001AAC  D01C               	goto	l266
  2892+ 001AAE                     u5520:
  2893+                          	line	902
  2894+                          ;doprnt.c: 902: fval *= 10.0;
  2895+ 001AAE  0E00               	movlw	low(float24(10.000000000000000))
  2896+ 001AB0  0101               	movlb	1	; () banked
  2897+ 001AB2  0101               	movlb	1	; () banked
  2898+ 001AB4  6F5D               	movwf	(0+(?___asftmul+02h))&0ffh
  2899+ 001AB6  0E20               	movlw	high(float24(10.000000000000000))
  2900+ 001AB8  0101               	movlb	1	; () banked
  2901+ 001ABA  0101               	movlb	1	; () banked
  2902+ 001ABC  6F5E               	movwf	(1+(?___asftmul+02h))&0ffh
  2903+ 001ABE  0E41               	movlw	low highword(float24(10.000000000000000))
  2904+ 001AC0  0101               	movlb	1	; () banked
  2905+ 001AC2  0101               	movlb	1	; () banked
  2906+ 001AC4  6F5F               	movwf	(2+(?___asftmul+02h))&0ffh
  2907+                          
  2908+ 001AC6  0101               	movlb	1	; () banked
  2909+ 001AC8  0E4B               	movlw	low(sprintf@fval)
  2910+ 001ACA  0101               	movlb	1	; () banked
  2911+ 001ACC  0101               	movlb	1	; () banked
  2912+ 001ACE  6F5B               	movwf	((?___asftmul))&0ffh
  2913+ 001AD0  0101               	movlb	1	; () banked
  2914+ 001AD2  0E01               	movlw	high(sprintf@fval)
  2915+ 001AD4  0101               	movlb	1	; () banked
  2916+ 001AD6  6F5C               	movwf	((?___asftmul+1))&0ffh
  2917+ 001AD8  ECE1  F029         	call	___asftmul	;wreg free
  2918+                          	line	903
  2919+                          ;doprnt.c: 903: exp--;
  2920+ 001ADC  0101               	movlb	1	; () banked
  2921+ 001ADE  0101               	movlb	1	; () banked
  2922+ 001AE0  0740               	decf	((sprintf@exp))&0ffh
  2923+ 001AE2  A0D8               	btfss	status,0
  2924+ 001AE4  0741               	decf	((sprintf@exp+1))&0ffh
  2925+                          	line	904
  2926+                          	
  2927+ 001AE6                     l270:		; BSR set to: ?
  2928+                          
  2929+                          	line	906
  2930+                          	
  2931+ 001AE6                     l269:		; BSR set to: ?
  2932+                          
  2933+                          	
  2934+ 001AE6                     l266:		; BSR set to: ?
  2935+                          
  2936+                          	line	908
  2937+                          ;doprnt.c: 904: }
  2938+                          ;doprnt.c: 906: }
  2939+                          ;doprnt.c: 908: if(flag & 0x200 && !(flag & 0x80
      +                          0)) {
  2940+ 001AE6  0101               	movlb	1	; () banked
  2941+                          	
  2942+ 001AE8  0101               	movlb	1	; () banked
  2943+ 001AEA  A347               	btfss	((sprintf@flag+1))&0ffh,(9)&7
  2944+ 001AEC  D001               	goto	u5531
  2945+ 001AEE  D001               	goto	u5530
  2946+ 001AF0                     u5531:
  2947+ 001AF0  D0B2               	goto	l271
  2948+ 001AF2                     u5530:
  2949+ 001AF2  0101               	movlb	1	; () banked
  2950+                          	
  2951+ 001AF4  0101               	movlb	1	; () banked
  2952+ 001AF6  B747               	btfsc	((sprintf@flag+1))&0ffh,(11)&7
  2953+ 001AF8  D001               	goto	u5541
  2954+ 001AFA  D001               	goto	u5540
  2955+ 001AFC                     u5541:
  2956+ 001AFC  D0AC               	goto	l271
  2957+ 001AFE                     u5540:
  2958+                          	line	909
  2959+                          ;doprnt.c: 909: if(prec > (int)((sizeof dpowers/
      +                          sizeof dpowers[0])))
  2960+ 001AFE  0101               	movlb	1	; () banked
  2961+ 001B00  0101               	movlb	1	; () banked
  2962+ 001B02  5145               	movf	((sprintf@prec+1))&0ffh,w
  2963+ 001B04  0A80               	xorlw	80h
  2964+ 001B06  0F80               	addlw	-((0)^80h)
  2965+ 001B08  0E0B               	movlw	0Bh
  2966+ 001B0A  B4D8               	btfsc	status,2
  2967+ 001B0C  5D44               	subwf	((sprintf@prec))&0ffh,w
  2968+ 001B0E  A0D8               	btfss	status,0
  2969+ 001B10  D001               	goto	u5551
  2970+ 001B12  D001               	goto	u5550
  2971+ 001B14                     u5551:
  2972+ 001B14  D007               	goto	l272
  2973+ 001B16                     u5550:
  2974+                          	line	910
  2975+                          ;doprnt.c: 910: prec = (sizeof dpowers/sizeof dp
      +                          owers[0]);
  2976+ 001B16  0E0A               	movlw	low(0Ah)
  2977+ 001B18  0101               	movlb	1	; () banked
  2978+ 001B1A  0101               	movlb	1	; () banked
  2979+ 001B1C  6F44               	movwf	((sprintf@prec))&0ffh
  2980+ 001B1E  0E00               	movlw	high(0Ah)
  2981+ 001B20  0101               	movlb	1	; () banked
  2982+ 001B22  6F45               	movwf	((sprintf@prec+1))&0ffh
  2983+                          	
  2984+ 001B24                     l272:		; BSR set to: ?
  2985+                          
  2986+                          	line	918
  2987+                          ;doprnt.c: 918: _val._val = (unsigned long)fval;
  2988+ 001B24  C14B  F15B         	movff	(sprintf@fval),(?___fttol)
  2989+ 001B28  C14C  F15C         	movff	(sprintf@fval+1),(?___fttol+1)
  2990+ 001B2C  C14D  F15D         	movff	(sprintf@fval+2),(?___fttol+2)
  2991+ 001B30  ECD4  F023         	call	___fttol	;wreg free
  2992+ 001B34  C15B  F14E         	movff	0+?___fttol,(sprintf@_val)
  2993+ 001B38  C15C  F14F         	movff	1+?___fttol,(sprintf@_val+1)
  2994+ 001B3C  C15D  F150         	movff	2+?___fttol,(sprintf@_val+2)
  2995+ 001B40  C15E  F151         	movff	3+?___fttol,(sprintf@_val+3)
  2996+                          	line	919
  2997+                          ;doprnt.c: 919: while(_val._val && _val._val % 1
      +                          0 == 0) {
  2998+ 001B44  D024               	goto	l273
  2999+                          	
  3000+ 001B46                     l274:		; BSR set to: ?
  3001+                          
  3002+                          	line	920
  3003+                          ;doprnt.c: 920: prec--;
  3004+ 001B46  0101               	movlb	1	; () banked
  3005+ 001B48  0101               	movlb	1	; () banked
  3006+ 001B4A  0744               	decf	((sprintf@prec))&0ffh
  3007+ 001B4C  A0D8               	btfss	status,0
  3008+ 001B4E  0745               	decf	((sprintf@prec+1))&0ffh
  3009+                          	line	921
  3010+                          ;doprnt.c: 921: _val._val /= 10;
  3011+ 001B50  0E0A               	movlw	low(0Ah)
  3012+ 001B52  0101               	movlb	1	; () banked
  3013+ 001B54  0101               	movlb	1	; () banked
  3014+ 001B56  6F5F               	movwf	(0+(?___lldiv+04h))&0ffh
  3015+ 001B58  0E00               	movlw	high(0Ah)
  3016+ 001B5A  0101               	movlb	1	; () banked
  3017+ 001B5C  6F60               	movwf	(1+(?___lldiv+04h))&0ffh
  3018+ 001B5E  0E00               	movlw	low highword(0Ah)
  3019+ 001B60  0101               	movlb	1	; () banked
  3020+ 001B62  6F61               	movwf	(2+(?___lldiv+04h))&0ffh
  3021+ 001B64  0E00               	movlw	high highword(0Ah)
  3022+ 001B66  0101               	movlb	1	; () banked
  3023+ 001B68  6F62               	movwf	(3+(?___lldiv+04h))&0ffh
  3024+ 001B6A  C14E  F15B         	movff	(sprintf@_val),(?___lldiv)
  3025+ 001B6E  C14F  F15C         	movff	(sprintf@_val+1),(?___lldiv+1)
  3026+ 001B72  C150  F15D         	movff	(sprintf@_val+2),(?___lldiv+2)
  3027+ 001B76  C151  F15E         	movff	(sprintf@_val+3),(?___lldiv+3)
  3028+ 001B7A  ECAD  F025         	call	___lldiv	;wreg free
  3029+ 001B7E  C15B  F14E         	movff	0+?___lldiv,(sprintf@_val)
  3030+ 001B82  C15C  F14F         	movff	1+?___lldiv,(sprintf@_val+1)
  3031+ 001B86  C15D  F150         	movff	2+?___lldiv,(sprintf@_val+2)
  3032+ 001B8A  C15E  F151         	movff	3+?___lldiv,(sprintf@_val+3)
  3033+                          	line	922
  3034+                          	
  3035+ 001B8E                     l273:		; BSR set to: ?
  3036+                          
  3037+                          	line	919
  3038+ 001B8E  0101               	movlb	1	; () banked
  3039+ 001B90  5151               	movf	((sprintf@_val+3))&0ffh,w
  3040+ 001B92  114E               	iorwf ((sprintf@_val))&0ffh,w
  3041+ 001B94  114F               	iorwf ((sprintf@_val+1))&0ffh,w
  3042+ 001B96  1150               	iorwf ((sprintf@_val+2))&0ffh,w
  3043+                          
  3044+ 001B98  B4D8               	btfsc	status,2
  3045+ 001B9A  D001               	goto	u5561
  3046+ 001B9C  D001               	goto	u5560
  3047+ 001B9E                     u5561:
  3048+ 001B9E  D020               	goto	l275
  3049+ 001BA0                     u5560:
  3050+ 001BA0  0E0A               	movlw	low(0Ah)
  3051+ 001BA2  0101               	movlb	1	; () banked
  3052+ 001BA4  0101               	movlb	1	; () banked
  3053+ 001BA6  6F5F               	movwf	(0+(?___llmod+04h))&0ffh
  3054+ 001BA8  0E00               	movlw	high(0Ah)
  3055+ 001BAA  0101               	movlb	1	; () banked
  3056+ 001BAC  6F60               	movwf	(1+(?___llmod+04h))&0ffh
  3057+ 001BAE  0E00               	movlw	low highword(0Ah)
  3058+ 001BB0  0101               	movlb	1	; () banked
  3059+ 001BB2  6F61               	movwf	(2+(?___llmod+04h))&0ffh
  3060+ 001BB4  0E00               	movlw	high highword(0Ah)
  3061+ 001BB6  0101               	movlb	1	; () banked
  3062+ 001BB8  6F62               	movwf	(3+(?___llmod+04h))&0ffh
  3063+ 001BBA  C14E  F15B         	movff	(sprintf@_val),(?___llmod)
  3064+ 001BBE  C14F  F15C         	movff	(sprintf@_val+1),(?___llmod+1)
  3065+ 001BC2  C150  F15D         	movff	(sprintf@_val+2),(?___llmod+2)
  3066+ 001BC6  C151  F15E         	movff	(sprintf@_val+3),(?___llmod+3)
  3067+ 001BCA  ECBC  F026         	call	___llmod	;wreg free
  3068+ 001BCE  0101               	movlb	1	; () banked
  3069+ 001BD0  515E               	movf	(3+?___llmod)&0ffh,w
  3070+ 001BD2  115B               	iorwf (0+?___llmod)&0ffh,w
  3071+ 001BD4  115C               	iorwf (1+?___llmod)&0ffh,w
  3072+ 001BD6  115D               	iorwf (2+?___llmod)&0ffh,w
  3073+                          
  3074+ 001BD8  B4D8               	btfsc	status,2
  3075+ 001BDA  D001               	goto	u5571
  3076+ 001BDC  D001               	goto	u5570
  3077+ 001BDE                     u5571:
  3078+ 001BDE  D7B3               	goto	l274
  3079+ 001BE0                     u5570:
  3080+                          	
  3081+ 001BE0                     l600000662:		; BSR set to: ?
  3082+                          
  3083+                          	
  3084+ 001BE0                     l275:		; BSR set to: ?
  3085+                          
  3086+                          	line	924
  3087+                          ;doprnt.c: 922: }
  3088+                          ;doprnt.c: 924: if(prec < c) {
  3089+ 001BE0  0101               	movlb	1	; () banked
  3090+ 001BE2  0101               	movlb	1	; () banked
  3091+ 001BE4  5145               	movf	((sprintf@prec+1))&0ffh,w
  3092+ 001BE6  0A80               	xorlw	80h
  3093+ 001BE8  0101               	movlb	1	; () banked
  3094+ 001BEA  6F55               	movwf	(??_sprintf+42+0)&0ffh
  3095+ 001BEC  0101               	movlb	1	; () banked
  3096+ 001BEE  0101               	movlb	1	; () banked
  3097+ 001BF0  513D               	movf	((sprintf@c))&0ffh,w
  3098+ 001BF2  0101               	movlb	1	; () banked
  3099+ 001BF4  0101               	movlb	1	; () banked
  3100+ 001BF6  5D44               	subwf	((sprintf@prec))&0ffh,w
  3101+ 001BF8  0E80               	movlw	080h
  3102+ 001BFA  0101               	movlb	1	; () banked
  3103+ 001BFC  0101               	movlb	1	; () banked
  3104+ 001BFE  BF3D               	btfsc	((sprintf@c))&0ffh,7
  3105+ 001C00  0E7F               	movlw	07fh
  3106+ 001C02  0101               	movlb	1	; () banked
  3107+ 001C04  5955               	subwfb	(??_sprintf+42+0)&0ffh,w
  3108+ 001C06  B0D8               	btfsc	status,0
  3109+ 001C08  D001               	goto	u5581
  3110+ 001C0A  D001               	goto	u5580
  3111+ 001C0C                     u5581:
  3112+ 001C0C  D024               	goto	l271
  3113+ 001C0E                     u5580:
  3114+                          	line	925
  3115+                          ;doprnt.c: 925: fval /= scale(c-prec);
  3116+ 001C0E  0101               	movlb	1	; () banked
  3117+ 001C10  0101               	movlb	1	; () banked
  3118+ 001C12  5144               	movf	((sprintf@prec))&0ffh,w
  3119+ 001C14  0101               	movlb	1	; () banked
  3120+ 001C16  0101               	movlb	1	; () banked
  3121+ 001C18  5D3D               	subwf	((sprintf@c))&0ffh,w
  3122+ 001C1A  0101               	movlb	1	; () banked
  3123+ 001C1C  0101               	movlb	1	; () banked
  3124+ 001C1E  6F5B               	movwf	((?_scale))&0ffh
  3125+ 001C20  EC9B  F017         	call	_scale	;wreg free
  3126+ 001C24  C15B  F12E         	movff	0+?_scale,(_sprintf$1168)
  3127+ 001C28  C15C  F12F         	movff	1+?_scale,(_sprintf$1168+1)
  3128+ 001C2C  C15D  F130         	movff	2+?_scale,(_sprintf$1168+2)
  3129+ 001C30  C12E  F15D         	movff	(_sprintf$1168),0+(?___asftdiv+02h)
  3130+ 001C34  C12F  F15E         	movff	(_sprintf$1168+1),1+(?___asftdiv+02h)
  3131+ 001C38  C130  F15F         	movff	(_sprintf$1168+2),2+(?___asftdiv+02h)
  3132+ 001C3C  0101               	movlb	1	; () banked
  3133+ 001C3E  0E4B               	movlw	low(sprintf@fval)
  3134+ 001C40  0101               	movlb	1	; () banked
  3135+ 001C42  0101               	movlb	1	; () banked
  3136+ 001C44  6F5B               	movwf	((?___asftdiv))&0ffh
  3137+ 001C46  0101               	movlb	1	; () banked
  3138+ 001C48  0E01               	movlw	high(sprintf@fval)
  3139+ 001C4A  0101               	movlb	1	; () banked
  3140+ 001C4C  6F5C               	movwf	((?___asftdiv+1))&0ffh
  3141+ 001C4E  EC47  F02A         	call	___asftdiv	;wreg free
  3142+                          	line	926
  3143+                          ;doprnt.c: 926: c = prec;
  3144+ 001C52  C144  F13D         	movff	(sprintf@prec),(sprintf@c)
  3145+                          	line	927
  3146+                          	
  3147+ 001C56                     l276:		; BSR set to: ?
  3148+                          
  3149+                          	line	929
  3150+                          	
  3151+ 001C56                     l271:		; BSR set to: ?
  3152+                          
  3153+                          	line	932
  3154+                          ;doprnt.c: 927: }
  3155+                          ;doprnt.c: 929: }
  3156+                          ;doprnt.c: 932: width -= prec + 5;
  3157+ 001C56  0E05               	movlw	05h
  3158+ 001C58  0101               	movlb	1	; () banked
  3159+ 001C5A  0101               	movlb	1	; () banked
  3160+ 001C5C  2544               	addwf	((sprintf@prec))&0ffh,w
  3161+ 001C5E  0101               	movlb	1	; () banked
  3162+ 001C60  6F55               	movwf	(??_sprintf+42+0)&0ffh
  3163+ 001C62  0E00               	movlw	0
  3164+ 001C64  0101               	movlb	1	; () banked
  3165+ 001C66  0101               	movlb	1	; () banked
  3166+ 001C68  2145               	addwfc	((sprintf@prec+1))&0ffh,w
  3167+ 001C6A  0101               	movlb	1	; () banked
  3168+ 001C6C  6F56               	movwf	(??_sprintf+42+0+1)&0ffh
  3169+ 001C6E  0101               	movlb	1	; () banked
  3170+ 001C70  5155               	movf	(??_sprintf+42+0)&0ffh,w
  3171+ 001C72  0101               	movlb	1	; () banked
  3172+ 001C74  0101               	movlb	1	; () banked
  3173+ 001C76  5F42               	subwf	((sprintf@width))&0ffh
  3174+ 001C78  0101               	movlb	1	; () banked
  3175+ 001C7A  5156               	movf	(??_sprintf+42+1)&0ffh,w
  3176+ 001C7C  0101               	movlb	1	; () banked
  3177+ 001C7E  0101               	movlb	1	; () banked
  3178+ 001C80  5B43               	subwfb	((sprintf@width+1))&0ffh
  3179+                          
  3180+                          	line	934
  3181+                          ;doprnt.c: 934: if(prec || flag & 0x800)
  3182+ 001C82  0101               	movlb	1	; () banked
  3183+ 001C84  0101               	movlb	1	; () banked
  3184+ 001C86  5145               	movf	((sprintf@prec+1))&0ffh,w
  3185+ 001C88  1144               	iorwf ((sprintf@prec))&0ffh,w
  3186+                          
  3187+ 001C8A  A4D8               	btfss	status,2
  3188+ 001C8C  D001               	goto	u5591
  3189+ 001C8E  D001               	goto	u5590
  3190+ 001C90                     u5591:
  3191+ 001C90  D006               	goto	l600000664
  3192+ 001C92                     u5590:
  3193+ 001C92  0101               	movlb	1	; () banked
  3194                           	
  3195  001C94  0101               	movlb	1	; () banked
  3196  001C96  A747               	btfss	((sprintf@flag+1))&0ffh,(11)&7
  3197  001C98  D001               	goto	u5601
  3198  001C9A  D001               	goto	u5600
  3199  001C9C                     u5601:
  3200  001C9C  D005               	goto	l277
  3201  001C9E                     u5600:
  3202                           	
  3203  001C9E                     l600000664:		; BSR set to: ?
  3204                           
  3205                           	line	935
  3206                           ;doprnt.c: 935: width--;
  3207  001C9E  0101               	movlb	1	; () banked
  3208  001CA0  0101               	movlb	1	; () banked
  3209  001CA2  0742               	decf	((sprintf@width))&0ffh
  3210  001CA4  A0D8               	btfss	status,0
  3211  001CA6  0743               	decf	((sprintf@width+1))&0ffh
  3212                           	
  3213  001CA8                     l277:		; BSR set to: ?
  3214                           
  3215                           	line	937
  3216                           ;doprnt.c: 937: if(flag & 0x03)
  3217  001CA8  0E03               	movlw	03h
  3218  001CAA  0101               	movlb	1	; () banked
  3219  001CAC  0101               	movlb	1	; () banked
  3220  001CAE  1546               	andwf	((sprintf@flag))&0ffh,w
  3221  001CB0  0101               	movlb	1	; () banked
  3222  001CB2  6F55               	movwf	(??_sprintf+42+0)&0ffh
  3223  001CB4  0E00               	movlw	0
  3224  001CB6  0101               	movlb	1	; () banked
  3225  001CB8  0101               	movlb	1	; () banked
  3226  001CBA  1547               	andwf	((sprintf@flag+1))&0ffh,w
  3227  001CBC  0101               	movlb	1	; () banked
  3228  001CBE  6F56               	movwf	(??_sprintf+42+0+1)&0ffh
  3229  001CC0  0101               	movlb	1	; () banked
  3230  001CC2  5156               	movf	(??_sprintf+42+1)&0ffh,w
  3231  001CC4  1155               	iorwf (??_sprintf+42+0)&0ffh,w
  3232                           
  3233  001CC6  B4D8               	btfsc	status,2
  3234  001CC8  D001               	goto	u5611
  3235  001CCA  D001               	goto	u5610
  3236  001CCC                     u5611:
  3237  001CCC  D005               	goto	l278
  3238  001CCE                     u5610:
  3239                           	line	938
  3240                           ;doprnt.c: 938: width--;
  3241  001CCE  0101               	movlb	1	; () banked
  3242  001CD0  0101               	movlb	1	; () banked
  3243  001CD2  0742               	decf	((sprintf@width))&0ffh
  3244  001CD4  A0D8               	btfss	status,0
  3245  001CD6  0743               	decf	((sprintf@width+1))&0ffh
  3246                           	
  3247  001CD8                     l278:		; BSR set to: ?
  3248                           
  3249                           	line	965
  3250                           ;doprnt.c: 962: {
  3251                           ;doprnt.c: 965: if(!(flag & 0x08))
  3252  001CD8  0101               	movlb	1	; () banked
  3253                           	
  3254  001CDA  0101               	movlb	1	; () banked
  3255  001CDC  B746               	btfsc	((sprintf@flag))&0ffh,(3)&7
  3256  001CDE  D001               	goto	u5621
  3257  001CE0  D001               	goto	u5620
  3258  001CE2                     u5621:
  3259  001CE2  D01C               	goto	l279
  3260  001CE4                     u5620:
  3261                           	line	967
  3262                           ;doprnt.c: 967: while(width > 0) {
  3263  001CE4  D00F               	goto	l280
  3264                           	
  3265  001CE6                     l281:		; BSR set to: ?
  3266                           
  3267                           	line	968
  3268  001CE6  C122  FFE9         	movff	(sprintf@sp),fsr0l
  3269  001CEA  C123  FFEA         	movff	(sprintf@sp+1),fsr0h
  3270  001CEE  0E20               	movlw	low(020h)
  3271  001CF0  6EEF               	movwf	indf0
  3272                           ;doprnt.c: 968: ((*sp++ = (' ')));
  3273  001CF2  0101               	movlb	1	; () banked
  3274  001CF4  0101               	movlb	1	; () banked
  3275  001CF6  4B22               	infsnz	((sprintf@sp))&0ffh
  3276  001CF8  2B23               	incf	((sprintf@sp+1))&0ffh
  3277                           	line	969
  3278                           ;doprnt.c: 969: width--;
  3279  001CFA  0101               	movlb	1	; () banked
  3280  001CFC  0101               	movlb	1	; () banked
  3281  001CFE  0742               	decf	((sprintf@width))&0ffh
  3282  001D00  A0D8               	btfss	status,0
  3283  001D02  0743               	decf	((sprintf@width+1))&0ffh
  3284                           	line	970
  3285                           	
  3286  001D04                     l280:		; BSR set to: ?
  3287                           
  3288                           	line	967
  3289  001D04  0101               	movlb	1	; () banked
  3290  001D06  0101               	movlb	1	; () banked
  3291  001D08  5143               	movf	((sprintf@width+1))&0ffh,w
  3292  001D0A  0A80               	xorlw	80h
  3293  001D0C  0F80               	addlw	-((0)^80h)
  3294  001D0E  0E01               	movlw	01h
  3295  001D10  B4D8               	btfsc	status,2
  3296  001D12  5D42               	subwf	((sprintf@width))&0ffh,w
  3297  001D14  B0D8               	btfsc	status,0
  3298  001D16  D001               	goto	u5631
  3299  001D18  D001               	goto	u5630
  3300  001D1A                     u5631:
  3301  001D1A  D7E5               	goto	l281
  3302  001D1C                     u5630:
  3303                           	
  3304  001D1C                     l282:		; BSR set to: ?
  3305                           
  3306                           	line	970
  3307                           	
  3308  001D1C                     l279:		; BSR set to: ?
  3309                           
  3310                           	line	973
  3311                           ;doprnt.c: 970: }
  3312                           ;doprnt.c: 973: if(flag & 0x02)
  3313  001D1C  0101               	movlb	1	; () banked
  3314                           	
  3315  001D1E  0101               	movlb	1	; () banked
  3316  001D20  A346               	btfss	((sprintf@flag))&0ffh,(1)&7
  3317  001D22  D001               	goto	u5641
  3318  001D24  D001               	goto	u5640
  3319  001D26                     u5641:
  3320  001D26  D022               	goto	l283
  3321  001D28                     u5640:
  3322                           	line	974
  3323                           ;doprnt.c: 974: ((*sp++ = (flag & 0x01 ? '-' : '
                                 +')));
  3324  001D28  0101               	movlb	1	; () banked
  3325  001D2A  6F55               	movwf	(??_sprintf+42+0)&0ffh
  3326  001D2C  0E2B               	movlw	low(02Bh)
  3327  001D2E  0101               	movlb	1	; () banked
  3328  001D30  0101               	movlb	1	; () banked
  3329  001D32  6F31               	movwf	((_sprintf$1169))&0ffh
  3330  001D34  0101               	movlb	1	; () banked
  3331  001D36  5155               	movf	(??_sprintf+42+0)&0ffh,w
  3332  001D38  0101               	movlb	1	; () banked
  3333                           	
  3334  001D3A  0101               	movlb	1	; () banked
  3335  001D3C  A146               	btfss	((sprintf@flag))&0ffh,(0)&7
  3336  001D3E  D001               	goto	u5651
  3337  001D40  D001               	goto	u5650
  3338  001D42                     u5651:
  3339  001D42  D008               	goto	l500000665
  3340  001D44                     u5650:
  3341  001D44  0101               	movlb	1	; () banked
  3342  001D46  6F55               	movwf	(??_sprintf+42+0)&0ffh
  3343  001D48  0E2D               	movlw	low(02Dh)
  3344  001D4A  0101               	movlb	1	; () banked
  3345  001D4C  0101               	movlb	1	; () banked
  3346  001D4E  6F31               	movwf	((_sprintf$1169))&0ffh
  3347  001D50  0101               	movlb	1	; () banked
  3348  001D52  5155               	movf	(??_sprintf+42+0)&0ffh,w
  3349                           	
  3350  001D54                     l500000665:		; BSR set to: ?
  3351                           
  3352  001D54  C122  FFE9         	movff	(sprintf@sp),fsr0l
  3353  001D58  C123  FFEA         	movff	(sprintf@sp+1),fsr0h
  3354  001D5C  0101               	movlb	1	; () banked
  3355  001D5E  C131  FFEF         	movff	(_sprintf$1169),indf0
  3356                           
  3357  001D62  0101               	movlb	1	; () banked
  3358  001D64  0101               	movlb	1	; () banked
  3359  001D66  4B22               	infsnz	((sprintf@sp))&0ffh
  3360  001D68  2B23               	incf	((sprintf@sp+1))&0ffh
  3361  001D6A  D010               	goto	l284
  3362                           	line	980
  3363                           	
  3364  001D6C                     l283:		; BSR set to: ?
  3365                           
  3366                           ;doprnt.c: 980: else if(flag & 0x01)
  3367  001D6C  0101               	movlb	1	; () banked
  3368                           	
  3369  001D6E  0101               	movlb	1	; () banked
  3370  001D70  A146               	btfss	((sprintf@flag))&0ffh,(0)&7
  3371  001D72  D001               	goto	u5661
  3372  001D74  D001               	goto	u5660
  3373  001D76                     u5661:
  3374  001D76  D00A               	goto	l284
  3375  001D78                     u5660:
  3376                           	line	981
  3377  001D78  C122  FFE9         	movff	(sprintf@sp),fsr0l
  3378  001D7C  C123  FFEA         	movff	(sprintf@sp+1),fsr0h
  3379  001D80  0E20               	movlw	low(020h)
  3380  001D82  6EEF               	movwf	indf0
  3381                           ;doprnt.c: 981: ((*sp++ = (' ')));
  3382  001D84  0101               	movlb	1	; () banked
  3383  001D86  0101               	movlb	1	; () banked
  3384  001D88  4B22               	infsnz	((sprintf@sp))&0ffh
  3385  001D8A  2B23               	incf	((sprintf@sp+1))&0ffh
  3386                           	
  3387  001D8C                     l285:		; BSR set to: ?
  3388                           
  3389                           	line	983
  3390                           	
  3391  001D8C                     l284:		; BSR set to: ?
  3392                           
  3393                           	line	988
  3394                           ;doprnt.c: 983: }
  3395                           ;doprnt.c: 988: _val._val = (unsigned long)fval;
  3396  001D8C  C14B  F15B         	movff	(sprintf@fval),(?___fttol)
  3397  001D90  C14C  F15C         	movff	(sprintf@fval+1),(?___fttol+1)
  3398  001D94  C14D  F15D         	movff	(sprintf@fval+2),(?___fttol+2)
  3399  001D98  ECD4  F023         	call	___fttol	;wreg free
  3400  001D9C  C15B  F14E         	movff	0+?___fttol,(sprintf@_val)
  3401  001DA0  C15C  F14F         	movff	1+?___fttol,(sprintf@_val+1)
  3402  001DA4  C15D  F150         	movff	2+?___fttol,(sprintf@_val+2)
  3403  001DA8  C15E  F151         	movff	3+?___fttol,(sprintf@_val+3)
  3404                           	line	989
  3405  001DAC  0101               	movlb	1	; () banked
  3406  001DAE  0101               	movlb	1	; () banked
  3407  001DB0  513D               	movf	((sprintf@c))&0ffh,w
  3408  001DB2  0D04               	mullw	04h
  3409  001DB4  0E01               	movlw	low((_dpowers))
  3410  001DB6  24F3               	addwf	(prodl),c,w
  3411  001DB8  6EF6               	movwf	tblptrl
  3412  001DBA  6AF7               	clrf	tblptrh
  3413  001DBC  0E10               	movlw	high((_dpowers))
  3414  001DBE  22F7               	addwfc	tblptrh
  3415  001DC0  6AF8               	clrf	tblptru
  3416  001DC2  0E00               	movlw	low highword(__mediumconst)
  3417  001DC4  22F8               	addwfc	tblptru
  3418  001DC6  0009               	tblrd*+
  3419                           	
  3420  001DC8  0101               	movlb	1	; () banked
  3421  001DCA  CFF5 F15F          	movff	tablat,0+(?___lldiv+04h)
  3422  001DCE  0009               	tblrd*+
  3423                           	
  3424  001DD0  0101               	movlb	1	; () banked
  3425  001DD2  CFF5 F160          	movff	tablat,1+(?___lldiv+04h)
  3426  001DD6  0009               	tblrd*+
  3427                           	
  3428  001DD8  0101               	movlb	1	; () banked
  3429  001DDA  CFF5 F161          	movff	tablat,2+(?___lldiv+04h)
  3430  001DDE  000A               	tblrd*-
  3431                           	
  3432  001DE0  0101               	movlb	1	; () banked
  3433  001DE2  CFF5 F162          	movff	tablat,3+(?___lldiv+04h)
  3434  001DE6  C14E  F15B         	movff	(sprintf@_val),(?___lldiv)
  3435  001DEA  C14F  F15C         	movff	(sprintf@_val+1),(?___lldiv+1)
  3436  001DEE  C150  F15D         	movff	(sprintf@_val+2),(?___lldiv+2)
  3437  001DF2  C151  F15E         	movff	(sprintf@_val+3),(?___lldiv+3)
  3438  001DF6  ECAD  F025         	call	___lldiv	;wreg free
  3439  001DFA  0101               	movlb	1	; () banked
  3440  001DFC  0101               	movlb	1	; () banked
  3441  001DFE  515B               	movf	(0+?___lldiv)&0ffh,w
  3442  001E00  0F30               	addlw	low(030h)
  3443  001E02  C122  FFE9         	movff	(sprintf@sp),fsr0l
  3444  001E06  C123  FFEA         	movff	(sprintf@sp+1),fsr0h
  3445  001E0A  6EEF               	movwf	indf0
  3446                           
  3447                           ;doprnt.c: 989: ((*sp++ = (_val._val/dpowers[c] 
                                 + '0')));
  3448  001E0C  0101               	movlb	1	; () banked
  3449  001E0E  0101               	movlb	1	; () banked
  3450  001E10  4B22               	infsnz	((sprintf@sp))&0ffh
  3451  001E12  2B23               	incf	((sprintf@sp+1))&0ffh
  3452                           	line	990
  3453                           ;doprnt.c: 990: _val._val %= dpowers[c];
  3454  001E14  0101               	movlb	1	; () banked
  3455  001E16  0101               	movlb	1	; () banked
  3456  001E18  513D               	movf	((sprintf@c))&0ffh,w
  3457  001E1A  0D04               	mullw	04h
  3458  001E1C  0E01               	movlw	low((_dpowers))
  3459  001E1E  24F3               	addwf	(prodl),c,w
  3460  001E20  6EF6               	movwf	tblptrl
  3461  001E22  6AF7               	clrf	tblptrh
  3462  001E24  0E10               	movlw	high((_dpowers))
  3463  001E26  22F7               	addwfc	tblptrh
  3464  001E28  6AF8               	clrf	tblptru
  3465  001E2A  0E00               	movlw	low highword(__mediumconst)
  3466  001E2C  22F8               	addwfc	tblptru
  3467  001E2E  0009               	tblrd*+
  3468                           	
  3469  001E30  0101               	movlb	1	; () banked
  3470  001E32  CFF5 F15F          	movff	tablat,0+(?___llmod+04h)
  3471  001E36  0009               	tblrd*+
  3472                           	
  3473  001E38  0101               	movlb	1	; () banked
  3474  001E3A  CFF5 F160          	movff	tablat,1+(?___llmod+04h)
  3475  001E3E  0009               	tblrd*+
  3476                           	
  3477  001E40  0101               	movlb	1	; () banked
  3478  001E42  CFF5 F161          	movff	tablat,2+(?___llmod+04h)
  3479  001E46  000A               	tblrd*-
  3480                           	
  3481  001E48  0101               	movlb	1	; () banked
  3482  001E4A  CFF5 F162          	movff	tablat,3+(?___llmod+04h)
  3483  001E4E  C14E  F15B         	movff	(sprintf@_val),(?___llmod)
  3484  001E52  C14F  F15C         	movff	(sprintf@_val+1),(?___llmod+1)
  3485  001E56  C150  F15D         	movff	(sprintf@_val+2),(?___llmod+2)
  3486  001E5A  C151  F15E         	movff	(sprintf@_val+3),(?___llmod+3)
  3487  001E5E  ECBC  F026         	call	___llmod	;wreg free
  3488  001E62  C15B  F14E         	movff	0+?___llmod,(sprintf@_val)
  3489  001E66  C15C  F14F         	movff	1+?___llmod,(sprintf@_val+1)
  3490  001E6A  C15D  F150         	movff	2+?___llmod,(sprintf@_val+2)
  3491  001E6E  C15E  F151         	movff	3+?___llmod,(sprintf@_val+3)
  3492                           	line	993
  3493                           ;doprnt.c: 993: if(prec || flag & 0x800)
  3494  001E72  0101               	movlb	1	; () banked
  3495  001E74  0101               	movlb	1	; () banked
  3496  001E76  5145               	movf	((sprintf@prec+1))&0ffh,w
  3497  001E78  1144               	iorwf ((sprintf@prec))&0ffh,w
  3498                           
  3499  001E7A  A4D8               	btfss	status,2
  3500  001E7C  D001               	goto	u5671
  3501  001E7E  D001               	goto	u5670
  3502  001E80                     u5671:
  3503  001E80  D006               	goto	l600000669
  3504  001E82                     u5670:
  3505  001E82  0101               	movlb	1	; () banked
  3506                           	
  3507  001E84  0101               	movlb	1	; () banked
  3508  001E86  A747               	btfss	((sprintf@flag+1))&0ffh,(11)&7
  3509  001E88  D001               	goto	u5681
  3510  001E8A  D001               	goto	u5680
  3511  001E8C                     u5681:
  3512  001E8C  D0BE               	goto	l286
  3513  001E8E                     u5680:
  3514                           	
  3515  001E8E                     l600000669:		; BSR set to: ?
  3516                           
  3517                           	line	998
  3518  001E8E  C122  FFE9         	movff	(sprintf@sp),fsr0l
  3519  001E92  C123  FFEA         	movff	(sprintf@sp+1),fsr0h
  3520  001E96  0E2E               	movlw	low(02Eh)
  3521  001E98  6EEF               	movwf	indf0
  3522                           ;doprnt.c: 997: {
  3523                           ;doprnt.c: 998: ((*sp++ = ('.')));
  3524  001E9A  0101               	movlb	1	; () banked
  3525  001E9C  0101               	movlb	1	; () banked
  3526  001E9E  4B22               	infsnz	((sprintf@sp))&0ffh
  3527  001EA0  2B23               	incf	((sprintf@sp+1))&0ffh
  3528                           	line	999
  3529                           ;doprnt.c: 999: prec -= c;
  3530  001EA2  0101               	movlb	1	; () banked
  3531  001EA4  0101               	movlb	1	; () banked
  3532  001EA6  513D               	movf	((sprintf@c))&0ffh,w
  3533  001EA8  0101               	movlb	1	; () banked
  3534  001EAA  0101               	movlb	1	; () banked
  3535  001EAC  5F44               	subwf	((sprintf@prec))&0ffh
  3536  001EAE  0E00               	movlw	0
  3537  001EB0  0101               	movlb	1	; () banked
  3538  001EB2  BF3D               	btfsc	((sprintf@c))&0ffh,7
  3539  001EB4  0EFF               	movlw	0ffh
  3540  001EB6  0101               	movlb	1	; () banked
  3541  001EB8  0101               	movlb	1	; () banked
  3542  001EBA  5B45               	subwfb	((sprintf@prec+1))&0ffh
  3543                           
  3544                           	line	1000
  3545                           ;doprnt.c: 1000: while(c--) {
  3546  001EBC  D085               	goto	l287
  3547                           	
  3548  001EBE                     l288:		; BSR set to: ?
  3549                           
  3550                           	line	1005
  3551                           ;doprnt.c: 1005: if(flag & 0x200 && _val._val ==
                                  0) {
  3552  001EBE  0101               	movlb	1	; () banked
  3553                           	
  3554  001EC0  0101               	movlb	1	; () banked
  3555  001EC2  A347               	btfss	((sprintf@flag+1))&0ffh,(9)&7
  3556  001EC4  D001               	goto	u5691
  3557  001EC6  D001               	goto	u5690
  3558  001EC8                     u5691:
  3559  001EC8  D01C               	goto	l290
  3560  001ECA                     u5690:
  3561  001ECA  0101               	movlb	1	; () banked
  3562  001ECC  5151               	movf	((sprintf@_val+3))&0ffh,w
  3563  001ECE  114E               	iorwf ((sprintf@_val))&0ffh,w
  3564  001ED0  114F               	iorwf ((sprintf@_val+1))&0ffh,w
  3565  001ED2  1150               	iorwf ((sprintf@_val+2))&0ffh,w
  3566                           
  3567  001ED4  A4D8               	btfss	status,2
  3568  001ED6  D001               	goto	u5701
  3569  001ED8  D001               	goto	u5700
  3570  001EDA                     u5701:
  3571  001EDA  D013               	goto	l290
  3572  001EDC                     u5700:
  3573                           	line	1006
  3574                           ;doprnt.c: 1006: prec = c = 0;
  3575  001EDC  0101               	movlb	1	; () banked
  3576  001EDE  6F55               	movwf	(??_sprintf+42+0)&0ffh
  3577  001EE0  0E00               	movlw	low(0)
  3578  001EE2  0101               	movlb	1	; () banked
  3579  001EE4  0101               	movlb	1	; () banked
  3580  001EE6  6F3D               	movwf	((sprintf@c))&0ffh
  3581  001EE8  0101               	movlb	1	; () banked
  3582  001EEA  5155               	movf	(??_sprintf+42+0)&0ffh,w
  3583  001EEC  0101               	movlb	1	; () banked
  3584  001EEE  513D               	movf	((sprintf@c))&0ffh,w
  3585  001EF0  0101               	movlb	1	; () banked
  3586  001EF2  0101               	movlb	1	; () banked
  3587  001EF4  6F44               	movwf	((sprintf@prec))&0ffh
  3588  001EF6  0101               	movlb	1	; () banked
  3589  001EF8  6B45               	clrf	((sprintf@prec+1))&0ffh
  3590  001EFA  0101               	movlb	1	; () banked
  3591  001EFC  BF44               	btfsc	((sprintf@prec))&0ffh,7
  3592  001EFE  0745               	decf	((sprintf@prec+1))&0ffh
  3593                           	line	1007
  3594                           ;doprnt.c: 1007: break;
  3595  001F00  D06C               	goto	l289
  3596                           	line	1008
  3597                           	
  3598  001F02                     l290:		; BSR set to: ?
  3599                           
  3600                           	line	1010
  3601  001F02  0101               	movlb	1	; () banked
  3602  001F04  0101               	movlb	1	; () banked
  3603  001F06  513D               	movf	((sprintf@c))&0ffh,w
  3604  001F08  0D04               	mullw	04h
  3605  001F0A  0E01               	movlw	low((_dpowers))
  3606  001F0C  24F3               	addwf	(prodl),c,w
  3607  001F0E  6EF6               	movwf	tblptrl
  3608  001F10  6AF7               	clrf	tblptrh
  3609  001F12  0E10               	movlw	high((_dpowers))
  3610  001F14  22F7               	addwfc	tblptrh
  3611  001F16  6AF8               	clrf	tblptru
  3612  001F18  0E00               	movlw	low highword(__mediumconst)
  3613  001F1A  22F8               	addwfc	tblptru
  3614  001F1C  0009               	tblrd*+
  3615                           	
  3616  001F1E  0101               	movlb	1	; () banked
  3617  001F20  CFF5 F15F          	movff	tablat,0+(?___lldiv+04h)
  3618  001F24  0009               	tblrd*+
  3619                           	
  3620  001F26  0101               	movlb	1	; () banked
  3621  001F28  CFF5 F160          	movff	tablat,1+(?___lldiv+04h)
  3622  001F2C  0009               	tblrd*+
  3623                           	
  3624  001F2E  0101               	movlb	1	; () banked
  3625  001F30  CFF5 F161          	movff	tablat,2+(?___lldiv+04h)
  3626  001F34  000A               	tblrd*-
  3627                           	
  3628  001F36  0101               	movlb	1	; () banked
  3629  001F38  CFF5 F162          	movff	tablat,3+(?___lldiv+04h)
  3630  001F3C  C14E  F15B         	movff	(sprintf@_val),(?___lldiv)
  3631  001F40  C14F  F15C         	movff	(sprintf@_val+1),(?___lldiv+1)
  3632  001F44  C150  F15D         	movff	(sprintf@_val+2),(?___lldiv+2)
  3633  001F48  C151  F15E         	movff	(sprintf@_val+3),(?___lldiv+3)
  3634  001F4C  ECAD  F025         	call	___lldiv	;wreg free
  3635  001F50  0101               	movlb	1	; () banked
  3636  001F52  0101               	movlb	1	; () banked
  3637  001F54  515B               	movf	(0+?___lldiv)&0ffh,w
  3638  001F56  0F30               	addlw	low(030h)
  3639  001F58  C122  FFE9         	movff	(sprintf@sp),fsr0l
  3640  001F5C  C123  FFEA         	movff	(sprintf@sp+1),fsr0h
  3641  001F60  6EEF               	movwf	indf0
  3642                           
  3643                           ;doprnt.c: 1008: }
  3644                           ;doprnt.c: 1010: ((*sp++ = ('0' + (_val._val/dpo
                                 wers[c]))));
  3645  001F62  0101               	movlb	1	; () banked
  3646  001F64  0101               	movlb	1	; () banked
  3647  001F66  4B22               	infsnz	((sprintf@sp))&0ffh
  3648  001F68  2B23               	incf	((sprintf@sp+1))&0ffh
  3649                           	line	1011
  3650                           ;doprnt.c: 1011: _val._val %= dpowers[c];
  3651  001F6A  0101               	movlb	1	; () banked
  3652  001F6C  0101               	movlb	1	; () banked
  3653  001F6E  513D               	movf	((sprintf@c))&0ffh,w
  3654  001F70  0D04               	mullw	04h
  3655  001F72  0E01               	movlw	low((_dpowers))
  3656  001F74  24F3               	addwf	(prodl),c,w
  3657  001F76  6EF6               	movwf	tblptrl
  3658  001F78  6AF7               	clrf	tblptrh
  3659  001F7A  0E10               	movlw	high((_dpowers))
  3660  001F7C  22F7               	addwfc	tblptrh
  3661  001F7E  6AF8               	clrf	tblptru
  3662  001F80  0E00               	movlw	low highword(__mediumconst)
  3663  001F82  22F8               	addwfc	tblptru
  3664  001F84  0009               	tblrd*+
  3665                           	
  3666  001F86  0101               	movlb	1	; () banked
  3667  001F88  CFF5 F15F          	movff	tablat,0+(?___llmod+04h)
  3668  001F8C  0009               	tblrd*+
  3669                           	
  3670  001F8E  0101               	movlb	1	; () banked
  3671  001F90  CFF5 F160          	movff	tablat,1+(?___llmod+04h)
  3672  001F94  0009               	tblrd*+
  3673                           	
  3674  001F96  0101               	movlb	1	; () banked
  3675  001F98  CFF5 F161          	movff	tablat,2+(?___llmod+04h)
  3676  001F9C  000A               	tblrd*-
  3677                           	
  3678  001F9E  0101               	movlb	1	; () banked
  3679  001FA0  CFF5 F162          	movff	tablat,3+(?___llmod+04h)
  3680  001FA4  C14E  F15B         	movff	(sprintf@_val),(?___llmod)
  3681  001FA8  C14F  F15C         	movff	(sprintf@_val+1),(?___llmod+1)
  3682  001FAC  C150  F15D         	movff	(sprintf@_val+2),(?___llmod+2)
  3683  001FB0  C151  F15E         	movff	(sprintf@_val+3),(?___llmod+3)
  3684  001FB4  ECBC  F026         	call	___llmod	;wreg free
  3685  001FB8  C15B  F14E         	movff	0+?___llmod,(sprintf@_val)
  3686  001FBC  C15C  F14F         	movff	1+?___llmod,(sprintf@_val+1)
  3687  001FC0  C15D  F150         	movff	2+?___llmod,(sprintf@_val+2)
  3688  001FC4  C15E  F151         	movff	3+?___llmod,(sprintf@_val+3)
  3689                           	line	1013
  3690                           	
  3691  001FC8                     l287:		; BSR set to: ?
  3692                           
  3693                           	line	1000
  3694  001FC8  0101               	movlb	1	; () banked
  3695  001FCA  0101               	movlb	1	; () banked
  3696  001FCC  073D               	decf	((sprintf@c))&0ffh
  3697  001FCE  0101               	movlb	1	; () banked
  3698  001FD0  293D               	incf	((sprintf@c))&0ffh,w
  3699                           
  3700  001FD2  A4D8               	btfss	status,2
  3701  001FD4  D001               	goto	u5711
  3702  001FD6  D001               	goto	u5710
  3703  001FD8                     u5711:
  3704  001FD8  D772               	goto	l288
  3705  001FDA                     u5710:
  3706                           	
  3707  001FDA                     l289:		; BSR set to: ?
  3708                           
  3709                           	line	1014
  3710                           ;doprnt.c: 1013: }
  3711                           ;doprnt.c: 1014: while(prec) {
  3712  001FDA  D00F               	goto	l291
  3713                           	
  3714  001FDC                     l292:		; BSR set to: ?
  3715                           
  3716                           	line	1015
  3717  001FDC  C122  FFE9         	movff	(sprintf@sp),fsr0l
  3718  001FE0  C123  FFEA         	movff	(sprintf@sp+1),fsr0h
  3719  001FE4  0E30               	movlw	low(030h)
  3720  001FE6  6EEF               	movwf	indf0
  3721                           ;doprnt.c: 1015: ((*sp++ = ('0')));
  3722  001FE8  0101               	movlb	1	; () banked
  3723  001FEA  0101               	movlb	1	; () banked
  3724  001FEC  4B22               	infsnz	((sprintf@sp))&0ffh
  3725  001FEE  2B23               	incf	((sprintf@sp+1))&0ffh
  3726                           	line	1016
  3727                           ;doprnt.c: 1016: prec--;
  3728  001FF0  0101               	movlb	1	; () banked
  3729  001FF2  0101               	movlb	1	; () banked
  3730  001FF4  0744               	decf	((sprintf@prec))&0ffh
  3731  001FF6  A0D8               	btfss	status,0
  3732  001FF8  0745               	decf	((sprintf@prec+1))&0ffh
  3733                           	line	1017
  3734                           	
  3735  001FFA                     l291:		; BSR set to: ?
  3736                           
  3737                           	line	1014
  3738  001FFA  0101               	movlb	1	; () banked
  3739  001FFC  0101               	movlb	1	; () banked
  3740  001FFE  5145               	movf	((sprintf@prec+1))&0ffh,w
  3741  002000  1144               	iorwf ((sprintf@prec))&0ffh,w
  3742                           
  3743  002002  A4D8               	btfss	status,2
  3744  002004  D001               	goto	u5721
  3745  002006  D001               	goto	u5720
  3746  002008                     u5721:
  3747  002008  D7E9               	goto	l292
  3748  00200A                     u5720:
  3749                           	
  3750  00200A                     l293:		; BSR set to: ?
  3751                           
  3752                           	line	1018
  3753                           	
  3754  00200A                     l286:		; BSR set to: ?
  3755                           
  3756                           	line	1020
  3757                           ;doprnt.c: 1017: }
  3758                           ;doprnt.c: 1018: }
  3759                           ;doprnt.c: 1020: if(flag & 0x20)
  3760  00200A  0101               	movlb	1	; () banked
  3761                           	
  3762  00200C  0101               	movlb	1	; () banked
  3763  00200E  AB46               	btfss	((sprintf@flag))&0ffh,(5)&7
  3764  002010  D001               	goto	u5731
  3765  002012  D001               	goto	u5730
  3766  002014                     u5731:
  3767  002014  D00B               	goto	l294
  3768  002016                     u5730:
  3769                           	line	1021
  3770  002016  C122  FFE9         	movff	(sprintf@sp),fsr0l
  3771  00201A  C123  FFEA         	movff	(sprintf@sp+1),fsr0h
  3772  00201E  0E45               	movlw	low(045h)
  3773  002020  6EEF               	movwf	indf0
  3774                           ;doprnt.c: 1021: ((*sp++ = ('E')));
  3775  002022  0101               	movlb	1	; () banked
  3776  002024  0101               	movlb	1	; () banked
  3777  002026  4B22               	infsnz	((sprintf@sp))&0ffh
  3778  002028  2B23               	incf	((sprintf@sp+1))&0ffh
  3779  00202A  D00A               	goto	l295
  3780                           	line	1022
  3781                           	
  3782  00202C                     l294:		; BSR set to: ?
  3783                           
  3784                           	line	1024
  3785  00202C  C122  FFE9         	movff	(sprintf@sp),fsr0l
  3786  002030  C123  FFEA         	movff	(sprintf@sp+1),fsr0h
  3787  002034  0E65               	movlw	low(065h)
  3788  002036  6EEF               	movwf	indf0
  3789                           ;doprnt.c: 1022: else
  3790                           ;doprnt.c: 1024: ((*sp++ = ('e')));
  3791  002038  0101               	movlb	1	; () banked
  3792  00203A  0101               	movlb	1	; () banked
  3793  00203C  4B22               	infsnz	((sprintf@sp))&0ffh
  3794  00203E  2B23               	incf	((sprintf@sp+1))&0ffh
  3795                           	
  3796  002040                     l295:		; BSR set to: ?
  3797                           
  3798                           	line	1025
  3799                           ;doprnt.c: 1025: if(exp < 0) {
  3800  002040  0101               	movlb	1	; () banked
  3801  002042  0101               	movlb	1	; () banked
  3802  002044  AF41               	btfss	((sprintf@exp+1))&0ffh,7
  3803  002046  D001               	goto	u5741
  3804  002048  D001               	goto	u5740
  3805  00204A                     u5741:
  3806  00204A  D012               	goto	l296
  3807  00204C                     u5740:
  3808                           	line	1026
  3809                           ;doprnt.c: 1026: exp = -exp;
  3810  00204C  0101               	movlb	1	; () banked
  3811  00204E  0101               	movlb	1	; () banked
  3812  002050  6D40               	negf	((sprintf@exp))&0ffh
  3813  002052  0101               	movlb	1	; () banked
  3814  002054  1F41               	comf	((sprintf@exp+1))&0ffh
  3815  002056  B0D8               	btfsc	status,0
  3816  002058  2B41               	incf	((sprintf@exp+1))&0ffh
  3817                           	line	1027
  3818  00205A  C122  FFE9         	movff	(sprintf@sp),fsr0l
  3819  00205E  C123  FFEA         	movff	(sprintf@sp+1),fsr0h
  3820  002062  0E2D               	movlw	low(02Dh)
  3821  002064  6EEF               	movwf	indf0
  3822                           ;doprnt.c: 1027: ((*sp++ = ('-')));
  3823  002066  0101               	movlb	1	; () banked
  3824  002068  0101               	movlb	1	; () banked
  3825  00206A  4B22               	infsnz	((sprintf@sp))&0ffh
  3826  00206C  2B23               	incf	((sprintf@sp+1))&0ffh
  3827                           	line	1028
  3828                           ;doprnt.c: 1028: } else
  3829  00206E  D00A               	goto	l297
  3830                           	
  3831  002070                     l296:		; BSR set to: ?
  3832                           
  3833                           	line	1029
  3834  002070  C122  FFE9         	movff	(sprintf@sp),fsr0l
  3835  002074  C123  FFEA         	movff	(sprintf@sp+1),fsr0h
  3836  002078  0E2B               	movlw	low(02Bh)
  3837  00207A  6EEF               	movwf	indf0
  3838                           ;doprnt.c: 1029: ((*sp++ = ('+')));
  3839  00207C  0101               	movlb	1	; () banked
  3840  00207E  0101               	movlb	1	; () banked
  3841  002080  4B22               	infsnz	((sprintf@sp))&0ffh
  3842  002082  2B23               	incf	((sprintf@sp+1))&0ffh
  3843                           	
  3844  002084                     l297:		; BSR set to: ?
  3845                           
  3846                           	line	1042
  3847  002084  0E0A               	movlw	low(0Ah)
  3848  002086  0101               	movlb	1	; () banked
  3849  002088  0101               	movlb	1	; () banked
  3850  00208A  6F7C               	movwf	(0+(?___awdiv+02h))&0ffh
  3851  00208C  0E00               	movlw	high(0Ah)
  3852  00208E  0101               	movlb	1	; () banked
  3853  002090  6F7D               	movwf	(1+(?___awdiv+02h))&0ffh
  3854  002092  C140  F17A         	movff	(sprintf@exp),(?___awdiv)
  3855  002096  C141  F17B         	movff	(sprintf@exp+1),(?___awdiv+1)
  3856  00209A  EC15  F025         	call	___awdiv	;wreg free
  3857  00209E  0101               	movlb	1	; () banked
  3858  0020A0  0101               	movlb	1	; () banked
  3859  0020A2  517A               	movf	(0+?___awdiv)&0ffh,w
  3860  0020A4  0F30               	addlw	low(030h)
  3861  0020A6  C122  FFE9         	movff	(sprintf@sp),fsr0l
  3862  0020AA  C123  FFEA         	movff	(sprintf@sp+1),fsr0h
  3863  0020AE  6EEF               	movwf	indf0
  3864                           
  3865                           ;doprnt.c: 1042: ((*sp++ = (exp / 10 + '0')));
  3866  0020B0  0101               	movlb	1	; () banked
  3867  0020B2  0101               	movlb	1	; () banked
  3868  0020B4  4B22               	infsnz	((sprintf@sp))&0ffh
  3869  0020B6  2B23               	incf	((sprintf@sp+1))&0ffh
  3870                           	line	1043
  3871  0020B8  0E0A               	movlw	low(0Ah)
  3872  0020BA  0101               	movlb	1	; () banked
  3873  0020BC  0101               	movlb	1	; () banked
  3874  0020BE  6F7C               	movwf	(0+(?___awmod+02h))&0ffh
  3875  0020C0  0E00               	movlw	high(0Ah)
  3876  0020C2  0101               	movlb	1	; () banked
  3877  0020C4  6F7D               	movwf	(1+(?___awmod+02h))&0ffh
  3878  0020C6  C140  F17A         	movff	(sprintf@exp),(?___awmod)
  3879  0020CA  C141  F17B         	movff	(sprintf@exp+1),(?___awmod+1)
  3880  0020CE  EC38  F026         	call	___awmod	;wreg free
  3881  0020D2  0101               	movlb	1	; () banked
  3882  0020D4  0101               	movlb	1	; () banked
  3883  0020D6  517A               	movf	(0+?___awmod)&0ffh,w
  3884  0020D8  0F30               	addlw	low(030h)
  3885  0020DA  C122  FFE9         	movff	(sprintf@sp),fsr0l
  3886  0020DE  C123  FFEA         	movff	(sprintf@sp+1),fsr0h
  3887  0020E2  6EEF               	movwf	indf0
  3888                           
  3889                           ;doprnt.c: 1043: ((*sp++ = (exp % 10 + '0')));
  3890  0020E4  0101               	movlb	1	; () banked
  3891  0020E6  0101               	movlb	1	; () banked
  3892  0020E8  4B22               	infsnz	((sprintf@sp))&0ffh
  3893  0020EA  2B23               	incf	((sprintf@sp+1))&0ffh
  3894                           	line	1045
  3895                           ;doprnt.c: 1045: if((flag & 0x08) && width > 0)
  3896  0020EC  0101               	movlb	1	; () banked
  3897                           	
  3898  0020EE  0101               	movlb	1	; () banked
  3899  0020F0  A746               	btfss	((sprintf@flag))&0ffh,(3)&7
  3900  0020F2  D001               	goto	u5751
  3901  0020F4  D002               	goto	u5750
  3902  0020F6                     u5751:
  3903  0020F6  EF9E  F00A         	goto	l247
  3904  0020FA                     u5750:
  3905  0020FA  0101               	movlb	1	; () banked
  3906  0020FC  0101               	movlb	1	; () banked
  3907  0020FE  5143               	movf	((sprintf@width+1))&0ffh,w
  3908  002100  0A80               	xorlw	80h
  3909  002102  0F80               	addlw	-((0)^80h)
  3910  002104  0E01               	movlw	01h
  3911  002106  B4D8               	btfsc	status,2
  3912  002108  5D42               	subwf	((sprintf@width))&0ffh,w
  3913  00210A  A0D8               	btfss	status,0
  3914  00210C  D001               	goto	u5761
  3915  00210E  D002               	goto	u5760
  3916  002110                     u5761:
  3917  002110  EF9E  F00A         	goto	l247
  3918  002114                     u5760:
  3919                           	line	1046
  3920                           ;doprnt.c: 1046: do
  3921                           	
  3922  002114                     l301:		; BSR set to: ?
  3923                           
  3924                           	line	1047
  3925  002114  C122  FFE9         	movff	(sprintf@sp),fsr0l
  3926  002118  C123  FFEA         	movff	(sprintf@sp+1),fsr0h
  3927  00211C  0E20               	movlw	low(020h)
  3928  00211E  6EEF               	movwf	indf0
  3929                           ;doprnt.c: 1047: ((*sp++ = (' ')));
  3930  002120  0101               	movlb	1	; () banked
  3931  002122  0101               	movlb	1	; () banked
  3932  002124  4B22               	infsnz	((sprintf@sp))&0ffh
  3933  002126  2B23               	incf	((sprintf@sp+1))&0ffh
  3934                           	line	1048
  3935                           ;doprnt.c: 1048: while(--width);
  3936  002128  0101               	movlb	1	; () banked
  3937  00212A  0101               	movlb	1	; () banked
  3938  00212C  0742               	decf	((sprintf@width))&0ffh
  3939  00212E  A0D8               	btfss	status,0
  3940  002130  0743               	decf	((sprintf@width+1))&0ffh
  3941  002132  0101               	movlb	1	; () banked
  3942  002134  5143               	movf	((sprintf@width+1))&0ffh,w
  3943  002136  1142               	iorwf ((sprintf@width))&0ffh,w
  3944                           
  3945  002138  A4D8               	btfss	status,2
  3946  00213A  D001               	goto	u5771
  3947  00213C  D001               	goto	u5770
  3948  00213E                     u5771:
  3949  00213E  D7EA               	goto	l301
  3950  002140                     u5770:
  3951                           	
  3952  002140                     l300:		; BSR set to: ?
  3953                           
  3954                           	
  3955  002140                     l298:		; BSR set to: ?
  3956                           
  3957                           	line	1050
  3958                           ;doprnt.c: 1050: continue;
  3959  002140  EF76  F017         	goto	l198
  3960                           	line	1051
  3961                           	
  3962  002144                     l262:		; BSR set to: ?
  3963                           
  3964                           	line	1090
  3965                           ;doprnt.c: 1051: }
  3966                           ;doprnt.c: 1090: if(flag & 0x200) {
  3967  002144  0101               	movlb	1	; () banked
  3968                           	
  3969  002146  0101               	movlb	1	; () banked
  3970  002148  A347               	btfss	((sprintf@flag+1))&0ffh,(9)&7
  3971  00214A  D001               	goto	u5781
  3972  00214C  D001               	goto	u5780
  3973  00214E                     u5781:
  3974  00214E  D12D               	goto	l302
  3975  002150                     u5780:
  3976                           	line	1091
  3977                           ;doprnt.c: 1091: if(exp < 0)
  3978  002150  0101               	movlb	1	; () banked
  3979  002152  0101               	movlb	1	; () banked
  3980  002154  AF41               	btfss	((sprintf@exp+1))&0ffh,7
  3981  002156  D001               	goto	u5791
  3982  002158  D001               	goto	u5790
  3983  00215A                     u5791:
  3984  00215A  D016               	goto	l303
  3985  00215C                     u5790:
  3986                           	line	1092
  3987                           ;doprnt.c: 1092: prec -= (exp+1);
  3988  00215C  0E01               	movlw	01h
  3989  00215E  0101               	movlb	1	; () banked
  3990  002160  0101               	movlb	1	; () banked
  3991  002162  2540               	addwf	((sprintf@exp))&0ffh,w
  3992  002164  0101               	movlb	1	; () banked
  3993  002166  6F55               	movwf	(??_sprintf+42+0)&0ffh
  3994  002168  0E00               	movlw	0
  3995  00216A  0101               	movlb	1	; () banked
  3996  00216C  0101               	movlb	1	; () banked
  3997  00216E  2141               	addwfc	((sprintf@exp+1))&0ffh,w
  3998  002170  0101               	movlb	1	; () banked
  3999  002172  6F56               	movwf	(??_sprintf+42+0+1)&0ffh
  4000  002174  0101               	movlb	1	; () banked
  4001  002176  5155               	movf	(??_sprintf+42+0)&0ffh,w
  4002  002178  0101               	movlb	1	; () banked
  4003  00217A  0101               	movlb	1	; () banked
  4004  00217C  5F44               	subwf	((sprintf@prec))&0ffh
  4005  00217E  0101               	movlb	1	; () banked
  4006  002180  5156               	movf	(??_sprintf+42+1)&0ffh,w
  4007  002182  0101               	movlb	1	; () banked
  4008  002184  0101               	movlb	1	; () banked
  4009  002186  5B45               	subwfb	((sprintf@prec+1))&0ffh
  4010                           
  4011                           	
  4012  002188                     l303:		; BSR set to: ?
  4013                           
  4014                           	line	1094
  4015                           ;doprnt.c: 1094: _val._val = (unsigned long)fval
                                 ;
  4016  002188  C14B  F15B         	movff	(sprintf@fval),(?___fttol)
  4017  00218C  C14C  F15C         	movff	(sprintf@fval+1),(?___fttol+1)
  4018  002190  C14D  F15D         	movff	(sprintf@fval+2),(?___fttol+2)
  4019  002194  ECD4  F023         	call	___fttol	;wreg free
  4020  002198  C15B  F14E         	movff	0+?___fttol,(sprintf@_val)
  4021  00219C  C15C  F14F         	movff	1+?___fttol,(sprintf@_val+1)
  4022  0021A0  C15D  F150         	movff	2+?___fttol,(sprintf@_val+2)
  4023  0021A4  C15E  F151         	movff	3+?___fttol,(sprintf@_val+3)
  4024                           	line	1095
  4025                           ;doprnt.c: 1095: for(c = 0 ; c != (sizeof dpower
                                 s/sizeof dpowers[0]) ; c++)
  4026  0021A8  0101               	movlb	1	; () banked
  4027  0021AA  6F55               	movwf	(??_sprintf+42+0)&0ffh
  4028  0021AC  0E00               	movlw	low(0)
  4029  0021AE  0101               	movlb	1	; () banked
  4030  0021B0  0101               	movlb	1	; () banked
  4031  0021B2  6F3D               	movwf	((sprintf@c))&0ffh
  4032  0021B4  0101               	movlb	1	; () banked
  4033  0021B6  5155               	movf	(??_sprintf+42+0)&0ffh,w
  4034  0021B8  0101               	movlb	1	; () banked
  4035  0021BA  0101               	movlb	1	; () banked
  4036  0021BC  513D               	movf	((sprintf@c))&0ffh,w
  4037  0021BE  0A0A               	xorlw	10
  4038                           
  4039  0021C0  A4D8               	btfss	status,2
  4040  0021C2  D001               	goto	u5801
  4041  0021C4  D001               	goto	u5800
  4042  0021C6                     u5801:
  4043  0021C6  D001               	goto	l304
  4044  0021C8                     u5800:
  4045  0021C8  D02E               	goto	l305
  4046                           	line	1096
  4047                           	
  4048  0021CA                     l304:		; BSR set to: ?
  4049                           
  4050                           ;doprnt.c: 1096: if(_val._val < dpowers[c])
  4051  0021CA  0101               	movlb	1	; () banked
  4052  0021CC  0101               	movlb	1	; () banked
  4053  0021CE  513D               	movf	((sprintf@c))&0ffh,w
  4054  0021D0  0D04               	mullw	04h
  4055  0021D2  0E01               	movlw	low((_dpowers))
  4056  0021D4  24F3               	addwf	(prodl),c,w
  4057  0021D6  6EF6               	movwf	tblptrl
  4058  0021D8  6AF7               	clrf	tblptrh
  4059  0021DA  0E10               	movlw	high((_dpowers))
  4060  0021DC  22F7               	addwfc	tblptrh
  4061  0021DE  6AF8               	clrf	tblptru
  4062  0021E0  0E00               	movlw	low highword(__mediumconst)
  4063  0021E2  22F8               	addwfc	tblptru
  4064  0021E4  0009               	tblrd	*+
  4065                           	
  4066  0021E6  50F5               	movf	tablat,w
  4067  0021E8  0101               	movlb	1	; () banked
  4068  0021EA  0101               	movlb	1	; () banked
  4069  0021EC  5D4E               	subwf	((sprintf@_val))&0ffh,w
  4070  0021EE  0009               	tblrd	*+
  4071                           	
  4072  0021F0  50F5               	movf	tablat,w
  4073  0021F2  0101               	movlb	1	; () banked
  4074  0021F4  594F               	subwfb	((sprintf@_val+1))&0ffh,w
  4075  0021F6  0009               	tblrd	*+
  4076                           	
  4077  0021F8  50F5               	movf	tablat,w
  4078  0021FA  0101               	movlb	1	; () banked
  4079  0021FC  5950               	subwfb	((sprintf@_val+2))&0ffh,w
  4080  0021FE  0009               	tblrd	*+
  4081                           	
  4082  002200  50F5               	movf	tablat,w
  4083  002202  0101               	movlb	1	; () banked
  4084  002204  5951               	subwfb	((sprintf@_val+3))&0ffh,w
  4085  002206  B0D8               	btfsc	status,0
  4086  002208  D001               	goto	u5811
  4087  00220A  D001               	goto	u5810
  4088  00220C                     u5811:
  4089  00220C  D001               	goto	l307
  4090  00220E                     u5810:
  4091                           	line	1097
  4092                           ;doprnt.c: 1097: break;
  4093  00220E  D00B               	goto	l305
  4094                           	
  4095  002210                     l307:		; BSR set to: ?
  4096                           
  4097                           	line	1095
  4098  002210  0101               	movlb	1	; () banked
  4099  002212  0101               	movlb	1	; () banked
  4100  002214  2B3D               	incf	((sprintf@c))&0ffh
  4101  002216  0101               	movlb	1	; () banked
  4102  002218  0101               	movlb	1	; () banked
  4103  00221A  513D               	movf	((sprintf@c))&0ffh,w
  4104  00221C  0A0A               	xorlw	10
  4105                           
  4106  00221E  A4D8               	btfss	status,2
  4107  002220  D001               	goto	u5821
  4108  002222  D001               	goto	u5820
  4109  002224                     u5821:
  4110  002224  D7D2               	goto	l304
  4111  002226                     u5820:
  4112                           	
  4113  002226                     l305:		; BSR set to: ?
  4114                           
  4115                           	line	1098
  4116                           ;doprnt.c: 1098: prec -= c;
  4117  002226  0101               	movlb	1	; () banked
  4118  002228  0101               	movlb	1	; () banked
  4119  00222A  513D               	movf	((sprintf@c))&0ffh,w
  4120  00222C  0101               	movlb	1	; () banked
  4121  00222E  0101               	movlb	1	; () banked
  4122  002230  5F44               	subwf	((sprintf@prec))&0ffh
  4123  002232  0E00               	movlw	0
  4124+ 002234  0101               	movlb	1	; () banked
  4125+ 002236  BF3D               	btfsc	((sprintf@c))&0ffh,7
  4126+ 002238  0EFF               	movlw	0ffh
  4127+ 00223A  0101               	movlb	1	; () banked
  4128+ 00223C  0101               	movlb	1	; () banked
  4129+ 00223E  5B45               	subwfb	((sprintf@prec+1))&0ffh
  4130+                          
  4131+                          	line	1099
  4132+                          ;doprnt.c: 1099: if(prec <= 12)
  4133+ 002240  0101               	movlb	1	; () banked
  4134+ 002242  0101               	movlb	1	; () banked
  4135+ 002244  5145               	movf	((sprintf@prec+1))&0ffh,w
  4136+ 002246  0A80               	xorlw	80h
  4137+ 002248  0F80               	addlw	-((0)^80h)
  4138+ 00224A  0E0D               	movlw	0Dh
  4139+ 00224C  B4D8               	btfsc	status,2
  4140+ 00224E  5D44               	subwf	((sprintf@prec))&0ffh,w
  4141+ 002250  B0D8               	btfsc	status,0
  4142+ 002252  D001               	goto	u5831
  4143+ 002254  D001               	goto	u5830
  4144+ 002256                     u5831:
  4145+ 002256  D01B               	goto	l308
  4146+ 002258                     u5830:
  4147+                          	line	1100
  4148+                          ;doprnt.c: 1100: fval += fround(prec);
  4149+ 002258  C144  F15B         	movff	(sprintf@prec),(?_fround)
  4150+ 00225C  EC00  F01C         	call	_fround	;wreg free
  4151+ 002260  C15B  F132         	movff	0+?_fround,(_sprintf$1179)
  4152+ 002264  C15C  F133         	movff	1+?_fround,(_sprintf$1179+1)
  4153+ 002268  C15D  F134         	movff	2+?_fround,(_sprintf$1179+2)
  4154+ 00226C  C132  F15D         	movff	(_sprintf$1179),0+(?___asftadd+02h)
  4155+ 002270  C133  F15E         	movff	(_sprintf$1179+1),1+(?___asftadd+02h)
  4156+ 002274  C134  F15F         	movff	(_sprintf$1179+2),2+(?___asftadd+02h)
  4157+ 002278  0101               	movlb	1	; () banked
  4158+ 00227A  0E4B               	movlw	low(sprintf@fval)
  4159+ 00227C  0101               	movlb	1	; () banked
  4160+ 00227E  0101               	movlb	1	; () banked
  4161+ 002280  6F5B               	movwf	((?___asftadd))&0ffh
  4162+ 002282  0101               	movlb	1	; () banked
  4163+ 002284  0E01               	movlw	high(sprintf@fval)
  4164+ 002286  0101               	movlb	1	; () banked
  4165+ 002288  6F5C               	movwf	((?___asftadd+1))&0ffh
  4166+ 00228A  EC25  F02A         	call	___asftadd	;wreg free
  4167+                          	
  4168+ 00228E                     l308:		; BSR set to: ?
  4169+                          
  4170+                          	line	1105
  4171+                          ;doprnt.c: 1103: {
  4172+                          ;doprnt.c: 1104: double temp;
  4173+                          ;doprnt.c: 1105: temp = fval - (double)_val._val
      +                          ;
  4174+ 00228E  C14E  F15B         	movff	(sprintf@_val),(?___lltoft)
  4175+ 002292  C14F  F15C         	movff	(sprintf@_val+1),(?___lltoft+1)
  4176+ 002296  C150  F15D         	movff	(sprintf@_val+2),(?___lltoft+2)
  4177+ 00229A  C151  F15E         	movff	(sprintf@_val+3),(?___lltoft+3)
  4178+ 00229E  EC9D  F027         	call	___lltoft	;wreg free
  4179+ 0022A2  C15B  F163         	movff	0+?___lltoft,0+(?___ftsub+03h)
  4180+ 0022A6  C15C  F164         	movff	1+?___lltoft,1+(?___ftsub+03h)
  4181+ 0022AA  C15D  F165         	movff	2+?___lltoft,2+(?___ftsub+03h)
  4182+ 0022AE  C14B  F160         	movff	(sprintf@fval),(?___ftsub)
  4183+ 0022B2  C14C  F161         	movff	(sprintf@fval+1),(?___ftsub+1)
  4184+ 0022B6  C14D  F162         	movff	(sprintf@fval+2),(?___ftsub+2)
  4185+ 0022BA  EC69  F02A         	call	___ftsub	;wreg free
  4186+ 0022BE  C160  F152         	movff	0+?___ftsub,(sprintf@temp)
  4187+ 0022C2  C161  F153         	movff	1+?___ftsub,(sprintf@temp+1)
  4188+ 0022C6  C162  F154         	movff	2+?___ftsub,(sprintf@temp+2)
  4189+                          	line	1106
  4190+                          ;doprnt.c: 1106: _val._val = (unsigned long)(tem
      +                          p * scale(prec));
  4191+ 0022CA  C144  F15B         	movff	(sprintf@prec),(?_scale)
  4192+ 0022CE  EC9B  F017         	call	_scale	;wreg free
  4193+ 0022D2  C15B  F17A         	movff	0+?_scale,(?___ftmul)
  4194+ 0022D6  C15C  F17B         	movff	1+?_scale,(?___ftmul+1)
  4195+ 0022DA  C15D  F17C         	movff	2+?_scale,(?___ftmul+2)
  4196+ 0022DE  C152  F17D         	movff	(sprintf@temp),0+(?___ftmul+03h)
  4197+ 0022E2  C153  F17E         	movff	(sprintf@temp+1),1+(?___ftmul+03h)
  4198+ 0022E6  C154  F17F         	movff	(sprintf@temp+2),2+(?___ftmul+03h)
  4199+ 0022EA  ECA9  F020         	call	___ftmul	;wreg free
  4200+ 0022EE  C17A  F15B         	movff	0+?___ftmul,(?___fttol)
  4201+ 0022F2  C17B  F15C         	movff	1+?___ftmul,(?___fttol+1)
  4202+ 0022F6  C17C  F15D         	movff	2+?___ftmul,(?___fttol+2)
  4203+ 0022FA  ECD4  F023         	call	___fttol	;wreg free
  4204+ 0022FE  C15B  F14E         	movff	0+?___fttol,(sprintf@_val)
  4205+ 002302  C15C  F14F         	movff	1+?___fttol,(sprintf@_val+1)
  4206+ 002306  C15D  F150         	movff	2+?___fttol,(sprintf@_val+2)
  4207+ 00230A  C15E  F151         	movff	3+?___fttol,(sprintf@_val+3)
  4208+                          	line	1108
  4209+                          ;doprnt.c: 1107: }
  4210+                          ;doprnt.c: 1108: while(prec && _val._val % 10 ==
      +                           0) {
  4211+ 00230E  D024               	goto	l309
  4212+                          	
  4213+ 002310                     l310:		; BSR set to: ?
  4214+                          
  4215+                          	line	1109
  4216+                          ;doprnt.c: 1109: _val._val /= 10;
  4217+ 002310  0E0A               	movlw	low(0Ah)
  4218+ 002312  0101               	movlb	1	; () banked
  4219+ 002314  0101               	movlb	1	; () banked
  4220+ 002316  6F5F               	movwf	(0+(?___lldiv+04h))&0ffh
  4221+ 002318  0E00               	movlw	high(0Ah)
  4222+ 00231A  0101               	movlb	1	; () banked
  4223+ 00231C  6F60               	movwf	(1+(?___lldiv+04h))&0ffh
  4224+ 00231E  0E00               	movlw	low highword(0Ah)
  4225+ 002320  0101               	movlb	1	; () banked
  4226+ 002322  6F61               	movwf	(2+(?___lldiv+04h))&0ffh
  4227+ 002324  0E00               	movlw	high highword(0Ah)
  4228+ 002326  0101               	movlb	1	; () banked
  4229+ 002328  6F62               	movwf	(3+(?___lldiv+04h))&0ffh
  4230+ 00232A  C14E  F15B         	movff	(sprintf@_val),(?___lldiv)
  4231+ 00232E  C14F  F15C         	movff	(sprintf@_val+1),(?___lldiv+1)
  4232+ 002332  C150  F15D         	movff	(sprintf@_val+2),(?___lldiv+2)
  4233+ 002336  C151  F15E         	movff	(sprintf@_val+3),(?___lldiv+3)
  4234+ 00233A  ECAD  F025         	call	___lldiv	;wreg free
  4235+ 00233E  C15B  F14E         	movff	0+?___lldiv,(sprintf@_val)
  4236+ 002342  C15C  F14F         	movff	1+?___lldiv,(sprintf@_val+1)
  4237+ 002346  C15D  F150         	movff	2+?___lldiv,(sprintf@_val+2)
  4238+ 00234A  C15E  F151         	movff	3+?___lldiv,(sprintf@_val+3)
  4239+                          	line	1110
  4240+                          ;doprnt.c: 1110: prec--;
  4241+ 00234E  0101               	movlb	1	; () banked
  4242+ 002350  0101               	movlb	1	; () banked
  4243+ 002352  0744               	decf	((sprintf@prec))&0ffh
  4244+ 002354  A0D8               	btfss	status,0
  4245+ 002356  0745               	decf	((sprintf@prec+1))&0ffh
  4246+                          	line	1111
  4247+                          	
  4248+ 002358                     l309:		; BSR set to: ?
  4249+                          
  4250+                          	line	1108
  4251+ 002358  0101               	movlb	1	; () banked
  4252+ 00235A  0101               	movlb	1	; () banked
  4253+ 00235C  5145               	movf	((sprintf@prec+1))&0ffh,w
  4254+ 00235E  1144               	iorwf ((sprintf@prec))&0ffh,w
  4255+                          
  4256+ 002360  B4D8               	btfsc	status,2
  4257+ 002362  D001               	goto	u5841
  4258+ 002364  D001               	goto	u5840
  4259+ 002366                     u5841:
  4260+ 002366  D020               	goto	l311
  4261+ 002368                     u5840:
  4262+ 002368  0E0A               	movlw	low(0Ah)
  4263+ 00236A  0101               	movlb	1	; () banked
  4264+ 00236C  0101               	movlb	1	; () banked
  4265+ 00236E  6F5F               	movwf	(0+(?___llmod+04h))&0ffh
  4266+ 002370  0E00               	movlw	high(0Ah)
  4267+ 002372  0101               	movlb	1	; () banked
  4268+ 002374  6F60               	movwf	(1+(?___llmod+04h))&0ffh
  4269+ 002376  0E00               	movlw	low highword(0Ah)
  4270+ 002378  0101               	movlb	1	; () banked
  4271+ 00237A  6F61               	movwf	(2+(?___llmod+04h))&0ffh
  4272+ 00237C  0E00               	movlw	high highword(0Ah)
  4273+ 00237E  0101               	movlb	1	; () banked
  4274+ 002380  6F62               	movwf	(3+(?___llmod+04h))&0ffh
  4275+ 002382  C14E  F15B         	movff	(sprintf@_val),(?___llmod)
  4276+ 002386  C14F  F15C         	movff	(sprintf@_val+1),(?___llmod+1)
  4277+ 00238A  C150  F15D         	movff	(sprintf@_val+2),(?___llmod+2)
  4278+ 00238E  C151  F15E         	movff	(sprintf@_val+3),(?___llmod+3)
  4279+ 002392  ECBC  F026         	call	___llmod	;wreg free
  4280+ 002396  0101               	movlb	1	; () banked
  4281+ 002398  515E               	movf	(3+?___llmod)&0ffh,w
  4282+ 00239A  115B               	iorwf (0+?___llmod)&0ffh,w
  4283+ 00239C  115C               	iorwf (1+?___llmod)&0ffh,w
  4284+ 00239E  115D               	iorwf (2+?___llmod)&0ffh,w
  4285+                          
  4286+ 0023A0  B4D8               	btfsc	status,2
  4287+ 0023A2  D001               	goto	u5851
  4288+ 0023A4  D001               	goto	u5850
  4289+ 0023A6                     u5851:
  4290+ 0023A6  D7B4               	goto	l310
  4291+ 0023A8                     u5850:
  4292+                          	
  4293+ 0023A8                     l600000682:		; BSR set to: ?
  4294+                          
  4295+                          	
  4296+ 0023A8                     l311:		; BSR set to: ?
  4297+                          
  4298+                          	line	1112
  4299+                          ;doprnt.c: 1111: }
  4300+                          ;doprnt.c: 1112: } else
  4301+ 0023A8  D027               	goto	l312
  4302+                          	
  4303+ 0023AA                     l302:		; BSR set to: ?
  4304+                          
  4305+                          	line	1114
  4306+                          ;doprnt.c: 1114: if(prec <= 12)
  4307+ 0023AA  0101               	movlb	1	; () banked
  4308+ 0023AC  0101               	movlb	1	; () banked
  4309+ 0023AE  5145               	movf	((sprintf@prec+1))&0ffh,w
  4310+ 0023B0  0A80               	xorlw	80h
  4311+ 0023B2  0F80               	addlw	-((0)^80h)
  4312+ 0023B4  0E0D               	movlw	0Dh
  4313+ 0023B6  B4D8               	btfsc	status,2
  4314+ 0023B8  5D44               	subwf	((sprintf@prec))&0ffh,w
  4315+ 0023BA  B0D8               	btfsc	status,0
  4316+ 0023BC  D001               	goto	u5861
  4317+ 0023BE  D001               	goto	u5860
  4318+ 0023C0                     u5861:
  4319+ 0023C0  D01B               	goto	l312
  4320+ 0023C2                     u5860:
  4321+                          	line	1115
  4322+                          ;doprnt.c: 1115: fval += fround(prec);
  4323+ 0023C2  C144  F15B         	movff	(sprintf@prec),(?_fround)
  4324+ 0023C6  EC00  F01C         	call	_fround	;wreg free
  4325+ 0023CA  C15B  F135         	movff	0+?_fround,(_sprintf$1187)
  4326+ 0023CE  C15C  F136         	movff	1+?_fround,(_sprintf$1187+1)
  4327+ 0023D2  C15D  F137         	movff	2+?_fround,(_sprintf$1187+2)
  4328+ 0023D6  C135  F15D         	movff	(_sprintf$1187),0+(?___asftadd+02h)
  4329+ 0023DA  C136  F15E         	movff	(_sprintf$1187+1),1+(?___asftadd+02h)
  4330+ 0023DE  C137  F15F         	movff	(_sprintf$1187+2),2+(?___asftadd+02h)
  4331+ 0023E2  0101               	movlb	1	; () banked
  4332+ 0023E4  0E4B               	movlw	low(sprintf@fval)
  4333+ 0023E6  0101               	movlb	1	; () banked
  4334+ 0023E8  0101               	movlb	1	; () banked
  4335+ 0023EA  6F5B               	movwf	((?___asftadd))&0ffh
  4336+ 0023EC  0101               	movlb	1	; () banked
  4337+ 0023EE  0E01               	movlw	high(sprintf@fval)
  4338+ 0023F0  0101               	movlb	1	; () banked
  4339+ 0023F2  6F5C               	movwf	((?___asftadd+1))&0ffh
  4340+ 0023F4  EC25  F02A         	call	___asftadd	;wreg free
  4341+                          	
  4342+ 0023F8                     l313:		; BSR set to: ?
  4343+                          
  4344+                          	line	1118
  4345+                          	
  4346+ 0023F8                     l312:		; BSR set to: ?
  4347+                          
  4348+                          ;doprnt.c: 1118: if((exp > 9)||(fval != 0 && (un
      +                          signed long)fval == 0 && exp > 1)) {
  4349+ 0023F8  0101               	movlb	1	; () banked
  4350+ 0023FA  0101               	movlb	1	; () banked
  4351+ 0023FC  5141               	movf	((sprintf@exp+1))&0ffh,w
  4352+ 0023FE  0A80               	xorlw	80h
  4353+ 002400  0F80               	addlw	-((0)^80h)
  4354+ 002402  0E0A               	movlw	0Ah
  4355+ 002404  B4D8               	btfsc	status,2
  4356+ 002406  5D40               	subwf	((sprintf@exp))&0ffh,w
  4357+ 002408  B0D8               	btfsc	status,0
  4358+ 00240A  D001               	goto	u5871
  4359+ 00240C  D001               	goto	u5870
  4360+ 00240E                     u5871:
  4361+ 00240E  D028               	goto	l600000685
  4362+ 002410                     u5870:
  4363+ 002410  0101               	movlb	1	; () banked
  4364+ 002412  0101               	movlb	1	; () banked
  4365+ 002414  514B               	movf	((sprintf@fval))&0ffh,w
  4366+ 002416  0101               	movlb	1	; () banked
  4367+ 002418  114C               	iorwf	((sprintf@fval+1))&0ffh,w
  4368+ 00241A  0101               	movlb	1	; () banked
  4369+ 00241C  114D               	iorwf	((sprintf@fval+2))&0ffh,w
  4370+ 00241E  B4D8               	btfsc	status,2
  4371+ 002420  D001               	goto	u5881
  4372+ 002422  D001               	goto	u5880
  4373+ 002424                     u5881:
  4374+ 002424  D071               	goto	l314
  4375+ 002426                     u5880:
  4376+ 002426  C14B  F15B         	movff	(sprintf@fval),(?___fttol)
  4377+ 00242A  C14C  F15C         	movff	(sprintf@fval+1),(?___fttol+1)
  4378+ 00242E  C14D  F15D         	movff	(sprintf@fval+2),(?___fttol+2)
  4379+ 002432  ECD4  F023         	call	___fttol	;wreg free
  4380+ 002436  0101               	movlb	1	; () banked
  4381+ 002438  515E               	movf	(3+?___fttol)&0ffh,w
  4382+ 00243A  115B               	iorwf (0+?___fttol)&0ffh,w
  4383+ 00243C  115C               	iorwf (1+?___fttol)&0ffh,w
  4384+ 00243E  115D               	iorwf (2+?___fttol)&0ffh,w
  4385+                          
  4386+ 002440  A4D8               	btfss	status,2
  4387+ 002442  D001               	goto	u5891
  4388+ 002444  D001               	goto	u5890
  4389+ 002446                     u5891:
  4390+ 002446  D060               	goto	l314
  4391+ 002448                     u5890:
  4392+ 002448  0101               	movlb	1	; () banked
  4393+ 00244A  0101               	movlb	1	; () banked
  4394+ 00244C  5141               	movf	((sprintf@exp+1))&0ffh,w
  4395+ 00244E  0A80               	xorlw	80h
  4396+ 002450  0F80               	addlw	-((0)^80h)
  4397+ 002452  0E02               	movlw	02h
  4398+ 002454  B4D8               	btfsc	status,2
  4399+ 002456  5D40               	subwf	((sprintf@exp))&0ffh,w
  4400+ 002458  A0D8               	btfss	status,0
  4401+ 00245A  D001               	goto	u5901
  4402+ 00245C  D001               	goto	u5900
  4403+ 00245E                     u5901:
  4404+ 00245E  D054               	goto	l314
  4405+ 002460                     u5900:
  4406+                          	
  4407+ 002460                     l600000685:		; BSR set to: ?
  4408+                          
  4409+                          	line	1122
  4410+                          ;doprnt.c: 1122: if(integ < 4.294967296){
  4411+ 002460  0E70               	movlw	low(float24(4.2949672960000003))
  4412+ 002462  0101               	movlb	1	; () banked
  4413+ 002464  0101               	movlb	1	; () banked
  4414+ 002466  6F5E               	movwf	(0+(?___ftge+03h))&0ffh
  4415+ 002468  0E89               	movlw	high(float24(4.2949672960000003))
  4416+ 00246A  0101               	movlb	1	; () banked
  4417+ 00246C  0101               	movlb	1	; () banked
  4418+ 00246E  6F5F               	movwf	(1+(?___ftge+03h))&0ffh
  4419+ 002470  0E40               	movlw	low highword(float24(4.2949672960000003))
  4420+ 002472  0101               	movlb	1	; () banked
  4421+ 002474  0101               	movlb	1	; () banked
  4422+ 002476  6F60               	movwf	(2+(?___ftge+03h))&0ffh
  4423+                          
  4424+ 002478  C148  F15B         	movff	(sprintf@integ),(?___ftge)
  4425+ 00247C  C149  F15C         	movff	(sprintf@integ+1),(?___ftge+1)
  4426+ 002480  C14A  F15D         	movff	(sprintf@integ+2),(?___ftge+2)
  4427+ 002484  EC2D  F027         	call	___ftge	;wreg free
  4428+ 002488  B0D8               	btfsc	status,0
  4429+ 00248A  D001               	goto	u5911
  4430+ 00248C  D001               	goto	u5910
  4431+ 00248E                     u5911:
  4432+ 00248E  D008               	goto	l315
  4433+ 002490                     u5910:
  4434+                          	line	1123
  4435+                          ;doprnt.c: 1123: exp -= (sizeof dpowers/sizeof d
      +                          powers[0])-1;
  4436+ 002490  0101               	movlb	1	; () banked
  4437+ 002492  0EF7               	movlw	low(-9)
  4438+ 002494  0101               	movlb	1	; () banked
  4439+ 002496  2740               	addwf	((sprintf@exp))&0ffh
  4440+ 002498  0EFF               	movlw	high(-9)
  4441+ 00249A  0101               	movlb	1	; () banked
  4442+ 00249C  2341               	addwfc	((sprintf@exp+1))&0ffh
  4443+                          	line	1124
  4444+                          ;doprnt.c: 1124: }else{
  4445+ 00249E  D007               	goto	l316
  4446+                          	
  4447+ 0024A0                     l315:		; BSR set to: ?
  4448+                          
  4449+                          	line	1125
  4450+                          ;doprnt.c: 1125: exp -= (sizeof dpowers/sizeof d
      +                          powers[0])-2;
  4451+ 0024A0  0101               	movlb	1	; () banked
  4452+ 0024A2  0EF8               	movlw	low(-8)
  4453+ 0024A4  0101               	movlb	1	; () banked
  4454+ 0024A6  2740               	addwf	((sprintf@exp))&0ffh
  4455+ 0024A8  0EFF               	movlw	high(-8)
  4456+ 0024AA  0101               	movlb	1	; () banked
  4457+ 0024AC  2341               	addwfc	((sprintf@exp+1))&0ffh
  4458+                          	line	1126
  4459+                          	
  4460+ 0024AE                     l316:		; BSR set to: ?
  4461+                          
  4462+                          	line	1127
  4463+                          ;doprnt.c: 1126: }
  4464+                          ;doprnt.c: 1127: integ = scale(exp);
  4465+ 0024AE  C140  F15B         	movff	(sprintf@exp),(?_scale)
  4466+ 0024B2  EC9B  F017         	call	_scale	;wreg free
  4467+ 0024B6  C15B  F148         	movff	0+?_scale,(sprintf@integ)
  4468+ 0024BA  C15C  F149         	movff	1+?_scale,(sprintf@integ+1)
  4469+ 0024BE  C15D  F14A         	movff	2+?_scale,(sprintf@integ+2)
  4470+                          	line	1128
  4471+                          ;doprnt.c: 1128: _val._val = ((sizeof(double)== 
      +                          3) ? _tdiv_to_l_(fval,integ) : _div_to_l_(fval,i
      +                          nteg));
  4472+ 0024C2  C148  F15E         	movff	(sprintf@integ),0+(?__tdiv_to_l_+03h)
  4473+ 0024C6  C149  F15F         	movff	(sprintf@integ+1),1+(?__tdiv_to_l_+03h)
  4474+ 0024CA  C14A  F160         	movff	(sprintf@integ+2),2+(?__tdiv_to_l_+03h)
  4475+ 0024CE  C14B  F15B         	movff	(sprintf@fval),(?__tdiv_to_l_)
  4476+ 0024D2  C14C  F15C         	movff	(sprintf@fval+1),(?__tdiv_to_l_+1)
  4477+ 0024D6  C14D  F15D         	movff	(sprintf@fval+2),(?__tdiv_to_l_+2)
  4478+ 0024DA  ECC5  F01E         	call	__tdiv_to_l_	;wreg free
  4479+ 0024DE  C15B  F14E         	movff	0+?__tdiv_to_l_,(sprintf@_val)
  4480+ 0024E2  C15C  F14F         	movff	1+?__tdiv_to_l_,(sprintf@_val+1)
  4481+ 0024E6  C15D  F150         	movff	2+?__tdiv_to_l_,(sprintf@_val+2)
  4482+ 0024EA  C15E  F151         	movff	3+?__tdiv_to_l_,(sprintf@_val+3)
  4483+                          	line	1131
  4484+                          ;doprnt.c: 1131: fval = 0.0;
  4485+ 0024EE  0E00               	movlw	low(float24(0.00000000000000000))
  4486+ 0024F0  0101               	movlb	1	; () banked
  4487+ 0024F2  0101               	movlb	1	; () banked
  4488+ 0024F4  6F4B               	movwf	((sprintf@fval))&0ffh
  4489+ 0024F6  0E00               	movlw	high(float24(0.00000000000000000))
  4490+ 0024F8  0101               	movlb	1	; () banked
  4491+ 0024FA  0101               	movlb	1	; () banked
  4492+ 0024FC  6F4C               	movwf	((sprintf@fval+1))&0ffh
  4493+ 0024FE  0E00               	movlw	low highword(float24(0.00000000000000000)
      +                          )
  4494+ 002500  0101               	movlb	1	; () banked
  4495+ 002502  0101               	movlb	1	; () banked
  4496+ 002504  6F4D               	movwf	((sprintf@fval+2))&0ffh
  4497+                          
  4498+                          	line	1132
  4499+                          ;doprnt.c: 1132: } else {
  4500+ 002506  D038               	goto	l317
  4501+                          	
  4502+ 002508                     l314:		; BSR set to: ?
  4503+                          
  4504+                          	line	1133
  4505+                          ;doprnt.c: 1133: _val._val = (unsigned long)fval
      +                          ;
  4506+ 002508  C14B  F15B         	movff	(sprintf@fval),(?___fttol)
  4507+ 00250C  C14C  F15C         	movff	(sprintf@fval+1),(?___fttol+1)
  4508+ 002510  C14D  F15D         	movff	(sprintf@fval+2),(?___fttol+2)
  4509+ 002514  ECD4  F023         	call	___fttol	;wreg free
  4510+ 002518  C15B  F14E         	movff	0+?___fttol,(sprintf@_val)
  4511+ 00251C  C15C  F14F         	movff	1+?___fttol,(sprintf@_val+1)
  4512+ 002520  C15D  F150         	movff	2+?___fttol,(sprintf@_val+2)
  4513+ 002524  C15E  F151         	movff	3+?___fttol,(sprintf@_val+3)
  4514+                          	line	1134
  4515+                          ;doprnt.c: 1134: fval -= (double)_val._val;
  4516+ 002528  C14E  F15B         	movff	(sprintf@_val),(?___lltoft)
  4517+ 00252C  C14F  F15C         	movff	(sprintf@_val+1),(?___lltoft+1)
  4518+ 002530  C150  F15D         	movff	(sprintf@_val+2),(?___lltoft+2)
  4519+ 002534  C151  F15E         	movff	(sprintf@_val+3),(?___lltoft+3)
  4520+ 002538  EC9D  F027         	call	___lltoft	;wreg free
  4521+ 00253C  C15B  F138         	movff	0+?___lltoft,(_sprintf$1193)
  4522+ 002540  C15C  F139         	movff	1+?___lltoft,(_sprintf$1193+1)
  4523+ 002544  C15D  F13A         	movff	2+?___lltoft,(_sprintf$1193+2)
  4524+ 002548  C138  F15D         	movff	(_sprintf$1193),0+(?___asftsub+02h)
  4525+ 00254C  C139  F15E         	movff	(_sprintf$1193+1),1+(?___asftsub+02h)
  4526+ 002550  C13A  F15F         	movff	(_sprintf$1193+2),2+(?___asftsub+02h)
  4527+ 002554  0101               	movlb	1	; () banked
  4528+ 002556  0E4B               	movlw	low(sprintf@fval)
  4529+ 002558  0101               	movlb	1	; () banked
  4530+ 00255A  0101               	movlb	1	; () banked
  4531+ 00255C  6F5B               	movwf	((?___asftsub))&0ffh
  4532+ 00255E  0101               	movlb	1	; () banked
  4533+ 002560  0E01               	movlw	high(sprintf@fval)
  4534+ 002562  0101               	movlb	1	; () banked
  4535+ 002564  6F5C               	movwf	((?___asftsub+1))&0ffh
  4536+ 002566  EC03  F02A         	call	___asftsub	;wreg free
  4537+                          	line	1135
  4538+                          ;doprnt.c: 1135: exp = 0;
  4539+ 00256A  0E00               	movlw	low(0)
  4540+ 00256C  0101               	movlb	1	; () banked
  4541+ 00256E  0101               	movlb	1	; () banked
  4542+ 002570  6F40               	movwf	((sprintf@exp))&0ffh
  4543+ 002572  0E00               	movlw	high(0)
  4544+ 002574  0101               	movlb	1	; () banked
  4545+ 002576  6F41               	movwf	((sprintf@exp+1))&0ffh
  4546+                          	line	1136
  4547+                          	
  4548+ 002578                     l317:		; BSR set to: ?
  4549+                          
  4550+                          	line	1138
  4551+                          ;doprnt.c: 1136: }
  4552+                          ;doprnt.c: 1138: for(c = 1 ; c != (sizeof dpower
      +                          s/sizeof dpowers[0]) ; c++)
  4553+ 002578  0101               	movlb	1	; () banked
  4554+ 00257A  6F55               	movwf	(??_sprintf+42+0)&0ffh
  4555+ 00257C  0E01               	movlw	low(01h)
  4556+ 00257E  0101               	movlb	1	; () banked
  4557+ 002580  0101               	movlb	1	; () banked
  4558+ 002582  6F3D               	movwf	((sprintf@c))&0ffh
  4559+ 002584  0101               	movlb	1	; () banked
  4560+ 002586  5155               	movf	(??_sprintf+42+0)&0ffh,w
  4561+ 002588  0101               	movlb	1	; () banked
  4562+ 00258A  0101               	movlb	1	; () banked
  4563+ 00258C  513D               	movf	((sprintf@c))&0ffh,w
  4564+ 00258E  0A0A               	xorlw	10
  4565+                          
  4566+ 002590  A4D8               	btfss	status,2
  4567+ 002592  D001               	goto	u5921
  4568+ 002594  D001               	goto	u5920
  4569+ 002596                     u5921:
  4570+ 002596  D001               	goto	l318
  4571+ 002598                     u5920:
  4572+ 002598  D02E               	goto	l319
  4573+                          	line	1139
  4574+                          	
  4575+ 00259A                     l318:		; BSR set to: ?
  4576+                          
  4577+                          ;doprnt.c: 1139: if(_val._val < dpowers[c])
  4578+ 00259A  0101               	movlb	1	; () banked
  4579+ 00259C  0101               	movlb	1	; () banked
  4580+ 00259E  513D               	movf	((sprintf@c))&0ffh,w
  4581+ 0025A0  0D04               	mullw	04h
  4582+ 0025A2  0E01               	movlw	low((_dpowers))
  4583+ 0025A4  24F3               	addwf	(prodl),c,w
  4584+ 0025A6  6EF6               	movwf	tblptrl
  4585+ 0025A8  6AF7               	clrf	tblptrh
  4586+ 0025AA  0E10               	movlw	high((_dpowers))
  4587+ 0025AC  22F7               	addwfc	tblptrh
  4588+ 0025AE  6AF8               	clrf	tblptru
  4589+ 0025B0  0E00               	movlw	low highword(__mediumconst)
  4590+ 0025B2  22F8               	addwfc	tblptru
  4591+ 0025B4  0009               	tblrd	*+
  4592+                          	
  4593+ 0025B6  50F5               	movf	tablat,w
  4594+ 0025B8  0101               	movlb	1	; () banked
  4595+ 0025BA  0101               	movlb	1	; () banked
  4596+ 0025BC  5D4E               	subwf	((sprintf@_val))&0ffh,w
  4597+ 0025BE  0009               	tblrd	*+
  4598+                          	
  4599+ 0025C0  50F5               	movf	tablat,w
  4600+ 0025C2  0101               	movlb	1	; () banked
  4601+ 0025C4  594F               	subwfb	((sprintf@_val+1))&0ffh,w
  4602+ 0025C6  0009               	tblrd	*+
  4603+                          	
  4604+ 0025C8  50F5               	movf	tablat,w
  4605+ 0025CA  0101               	movlb	1	; () banked
  4606+ 0025CC  5950               	subwfb	((sprintf@_val+2))&0ffh,w
  4607+ 0025CE  0009               	tblrd	*+
  4608+                          	
  4609+ 0025D0  50F5               	movf	tablat,w
  4610+ 0025D2  0101               	movlb	1	; () banked
  4611+ 0025D4  5951               	subwfb	((sprintf@_val+3))&0ffh,w
  4612+ 0025D6  B0D8               	btfsc	status,0
  4613+ 0025D8  D001               	goto	u5931
  4614+ 0025DA  D001               	goto	u5930
  4615+ 0025DC                     u5931:
  4616+ 0025DC  D001               	goto	l321
  4617+ 0025DE                     u5930:
  4618+                          	line	1140
  4619+                          ;doprnt.c: 1140: break;
  4620+ 0025DE  D00B               	goto	l319
  4621+                          	
  4622+ 0025E0                     l321:		; BSR set to: ?
  4623+                          
  4624+                          	line	1138
  4625+ 0025E0  0101               	movlb	1	; () banked
  4626  0025E2  0101               	movlb	1	; () banked
  4627  0025E4  2B3D               	incf	((sprintf@c))&0ffh
  4628  0025E6  0101               	movlb	1	; () banked
  4629  0025E8  0101               	movlb	1	; () banked
  4630  0025EA  513D               	movf	((sprintf@c))&0ffh,w
  4631  0025EC  0A0A               	xorlw	10
  4632                           
  4633  0025EE  A4D8               	btfss	status,2
  4634  0025F0  D001               	goto	u5941
  4635  0025F2  D001               	goto	u5940
  4636  0025F4                     u5941:
  4637  0025F4  D7D2               	goto	l318
  4638  0025F6                     u5940:
  4639                           	
  4640  0025F6                     l319:		; BSR set to: ?
  4641                           
  4642                           	line	1144
  4643                           ;doprnt.c: 1144: width -= prec + c + exp;
  4644  0025F6  0101               	movlb	1	; () banked
  4645  0025F8  C13D  F155         	movff	(sprintf@c),??_sprintf+42+0
  4646  0025FC  0101               	movlb	1	; () banked
  4647  0025FE  6B56               	clrf	(??_sprintf+42+0+1)&0ffh
  4648  002600  BF55               	btfsc	(??_sprintf+42+0)&0ffh,7
  4649  002602  0756               	decf	(??_sprintf+42+0+1)&0ffh
  4650  002604  0101               	movlb	1	; () banked
  4651  002606  0101               	movlb	1	; () banked
  4652  002608  5144               	movf	((sprintf@prec))&0ffh,w
  4653  00260A  0101               	movlb	1	; () banked
  4654  00260C  2755               	addwf	(??_sprintf+42+0)&0ffh
  4655  00260E  0101               	movlb	1	; () banked
  4656  002610  0101               	movlb	1	; () banked
  4657  002612  5145               	movf	((sprintf@prec+1))&0ffh,w
  4658  002614  0101               	movlb	1	; () banked
  4659  002616  2356               	addwfc	(??_sprintf+42+1)&0ffh
  4660  002618  0101               	movlb	1	; () banked
  4661  00261A  0101               	movlb	1	; () banked
  4662  00261C  5140               	movf	((sprintf@exp))&0ffh,w
  4663  00261E  0101               	movlb	1	; () banked
  4664  002620  2755               	addwf	(??_sprintf+42+0)&0ffh
  4665  002622  0101               	movlb	1	; () banked
  4666  002624  0101               	movlb	1	; () banked
  4667  002626  5141               	movf	((sprintf@exp+1))&0ffh,w
  4668  002628  0101               	movlb	1	; () banked
  4669  00262A  2356               	addwfc	(??_sprintf+42+1)&0ffh
  4670  00262C  0101               	movlb	1	; () banked
  4671  00262E  5155               	movf	(??_sprintf+42+0)&0ffh,w
  4672  002630  0101               	movlb	1	; () banked
  4673  002632  0101               	movlb	1	; () banked
  4674  002634  5F42               	subwf	((sprintf@width))&0ffh
  4675  002636  0101               	movlb	1	; () banked
  4676  002638  5156               	movf	(??_sprintf+42+1)&0ffh,w
  4677  00263A  0101               	movlb	1	; () banked
  4678  00263C  0101               	movlb	1	; () banked
  4679  00263E  5B43               	subwfb	((sprintf@width+1))&0ffh
  4680                           
  4681                           	line	1149
  4682                           ;doprnt.c: 1145: if(
  4683                           ;doprnt.c: 1147: flag & 0x800 ||
  4684                           ;doprnt.c: 1149: prec)
  4685  002640  0101               	movlb	1	; () banked
  4686                           	
  4687  002642  0101               	movlb	1	; () banked
  4688  002644  B747               	btfsc	((sprintf@flag+1))&0ffh,(11)&7
  4689  002646  D001               	goto	u5951
  4690  002648  D001               	goto	u5950
  4691  00264A                     u5951:
  4692  00264A  D008               	goto	l600000690
  4693  00264C                     u5950:
  4694  00264C  0101               	movlb	1	; () banked
  4695  00264E  0101               	movlb	1	; () banked
  4696  002650  5145               	movf	((sprintf@prec+1))&0ffh,w
  4697  002652  1144               	iorwf ((sprintf@prec))&0ffh,w
  4698                           
  4699  002654  B4D8               	btfsc	status,2
  4700  002656  D001               	goto	u5961
  4701  002658  D001               	goto	u5960
  4702  00265A                     u5961:
  4703  00265A  D005               	goto	l322
  4704  00265C                     u5960:
  4705                           	
  4706  00265C                     l600000690:		; BSR set to: ?
  4707                           
  4708                           	line	1150
  4709                           ;doprnt.c: 1150: width--;
  4710  00265C  0101               	movlb	1	; () banked
  4711  00265E  0101               	movlb	1	; () banked
  4712  002660  0742               	decf	((sprintf@width))&0ffh
  4713  002662  A0D8               	btfss	status,0
  4714  002664  0743               	decf	((sprintf@width+1))&0ffh
  4715                           	
  4716  002666                     l322:		; BSR set to: ?
  4717                           
  4718                           	line	1151
  4719                           ;doprnt.c: 1151: if(flag & 0x03)
  4720  002666  0E03               	movlw	03h
  4721  002668  0101               	movlb	1	; () banked
  4722  00266A  0101               	movlb	1	; () banked
  4723  00266C  1546               	andwf	((sprintf@flag))&0ffh,w
  4724  00266E  0101               	movlb	1	; () banked
  4725  002670  6F55               	movwf	(??_sprintf+42+0)&0ffh
  4726  002672  0E00               	movlw	0
  4727  002674  0101               	movlb	1	; () banked
  4728  002676  0101               	movlb	1	; () banked
  4729  002678  1547               	andwf	((sprintf@flag+1))&0ffh,w
  4730  00267A  0101               	movlb	1	; () banked
  4731  00267C  6F56               	movwf	(??_sprintf+42+0+1)&0ffh
  4732  00267E  0101               	movlb	1	; () banked
  4733  002680  5156               	movf	(??_sprintf+42+1)&0ffh,w
  4734  002682  1155               	iorwf (??_sprintf+42+0)&0ffh,w
  4735                           
  4736  002684  B4D8               	btfsc	status,2
  4737  002686  D001               	goto	u5971
  4738  002688  D001               	goto	u5970
  4739  00268A                     u5971:
  4740  00268A  D005               	goto	l323
  4741  00268C                     u5970:
  4742                           	line	1152
  4743                           ;doprnt.c: 1152: width--;
  4744  00268C  0101               	movlb	1	; () banked
  4745  00268E  0101               	movlb	1	; () banked
  4746  002690  0742               	decf	((sprintf@width))&0ffh
  4747  002692  A0D8               	btfss	status,0
  4748  002694  0743               	decf	((sprintf@width+1))&0ffh
  4749                           	
  4750  002696                     l323:		; BSR set to: ?
  4751                           
  4752                           	line	1177
  4753                           ;doprnt.c: 1175: {
  4754                           ;doprnt.c: 1177: if(!(flag & 0x08))
  4755  002696  0101               	movlb	1	; () banked
  4756                           	
  4757  002698  0101               	movlb	1	; () banked
  4758  00269A  B746               	btfsc	((sprintf@flag))&0ffh,(3)&7
  4759  00269C  D001               	goto	u5981
  4760  00269E  D001               	goto	u5980
  4761  0026A0                     u5981:
  4762  0026A0  D01C               	goto	l324
  4763  0026A2                     u5980:
  4764                           	line	1180
  4765                           ;doprnt.c: 1180: while(width > 0) {
  4766  0026A2  D00F               	goto	l325
  4767                           	
  4768  0026A4                     l326:		; BSR set to: ?
  4769                           
  4770                           	line	1181
  4771  0026A4  C122  FFE9         	movff	(sprintf@sp),fsr0l
  4772  0026A8  C123  FFEA         	movff	(sprintf@sp+1),fsr0h
  4773  0026AC  0E20               	movlw	low(020h)
  4774  0026AE  6EEF               	movwf	indf0
  4775                           ;doprnt.c: 1181: ((*sp++ = (' ')));
  4776  0026B0  0101               	movlb	1	; () banked
  4777  0026B2  0101               	movlb	1	; () banked
  4778  0026B4  4B22               	infsnz	((sprintf@sp))&0ffh
  4779  0026B6  2B23               	incf	((sprintf@sp+1))&0ffh
  4780                           	line	1182
  4781                           ;doprnt.c: 1182: width--;
  4782  0026B8  0101               	movlb	1	; () banked
  4783  0026BA  0101               	movlb	1	; () banked
  4784  0026BC  0742               	decf	((sprintf@width))&0ffh
  4785  0026BE  A0D8               	btfss	status,0
  4786  0026C0  0743               	decf	((sprintf@width+1))&0ffh
  4787                           	line	1183
  4788                           	
  4789  0026C2                     l325:		; BSR set to: ?
  4790                           
  4791                           	line	1180
  4792  0026C2  0101               	movlb	1	; () banked
  4793  0026C4  0101               	movlb	1	; () banked
  4794  0026C6  5143               	movf	((sprintf@width+1))&0ffh,w
  4795  0026C8  0A80               	xorlw	80h
  4796  0026CA  0F80               	addlw	-((0)^80h)
  4797  0026CC  0E01               	movlw	01h
  4798  0026CE  B4D8               	btfsc	status,2
  4799  0026D0  5D42               	subwf	((sprintf@width))&0ffh,w
  4800  0026D2  B0D8               	btfsc	status,0
  4801  0026D4  D001               	goto	u5991
  4802  0026D6  D001               	goto	u5990
  4803  0026D8                     u5991:
  4804  0026D8  D7E5               	goto	l326
  4805  0026DA                     u5990:
  4806                           	
  4807  0026DA                     l327:		; BSR set to: ?
  4808                           
  4809                           	line	1183
  4810                           	
  4811  0026DA                     l324:		; BSR set to: ?
  4812                           
  4813                           	line	1186
  4814                           ;doprnt.c: 1183: }
  4815                           ;doprnt.c: 1186: if(flag & 0x02)
  4816  0026DA  0101               	movlb	1	; () banked
  4817                           	
  4818  0026DC  0101               	movlb	1	; () banked
  4819  0026DE  A346               	btfss	((sprintf@flag))&0ffh,(1)&7
  4820  0026E0  D001               	goto	u6001
  4821  0026E2  D001               	goto	u6000
  4822  0026E4                     u6001:
  4823  0026E4  D022               	goto	l328
  4824  0026E6                     u6000:
  4825                           	line	1190
  4826                           ;doprnt.c: 1190: ((*sp++ = (flag & 0x01 ? '-' : 
                                 '+')));
  4827  0026E6  0101               	movlb	1	; () banked
  4828  0026E8  6F55               	movwf	(??_sprintf+42+0)&0ffh
  4829  0026EA  0E2B               	movlw	low(02Bh)
  4830  0026EC  0101               	movlb	1	; () banked
  4831  0026EE  0101               	movlb	1	; () banked
  4832  0026F0  6F3B               	movwf	((_sprintf$1194))&0ffh
  4833  0026F2  0101               	movlb	1	; () banked
  4834  0026F4  5155               	movf	(??_sprintf+42+0)&0ffh,w
  4835  0026F6  0101               	movlb	1	; () banked
  4836                           	
  4837  0026F8  0101               	movlb	1	; () banked
  4838  0026FA  A146               	btfss	((sprintf@flag))&0ffh,(0)&7
  4839  0026FC  D001               	goto	u6011
  4840  0026FE  D001               	goto	u6010
  4841  002700                     u6011:
  4842  002700  D008               	goto	l500000691
  4843  002702                     u6010:
  4844  002702  0101               	movlb	1	; () banked
  4845  002704  6F55               	movwf	(??_sprintf+42+0)&0ffh
  4846  002706  0E2D               	movlw	low(02Dh)
  4847  002708  0101               	movlb	1	; () banked
  4848  00270A  0101               	movlb	1	; () banked
  4849  00270C  6F3B               	movwf	((_sprintf$1194))&0ffh
  4850  00270E  0101               	movlb	1	; () banked
  4851  002710  5155               	movf	(??_sprintf+42+0)&0ffh,w
  4852                           	
  4853  002712                     l500000691:		; BSR set to: ?
  4854                           
  4855  002712  C122  FFE9         	movff	(sprintf@sp),fsr0l
  4856  002716  C123  FFEA         	movff	(sprintf@sp+1),fsr0h
  4857  00271A  0101               	movlb	1	; () banked
  4858  00271C  C13B  FFEF         	movff	(_sprintf$1194),indf0
  4859                           
  4860  002720  0101               	movlb	1	; () banked
  4861  002722  0101               	movlb	1	; () banked
  4862  002724  4B22               	infsnz	((sprintf@sp))&0ffh
  4863  002726  2B23               	incf	((sprintf@sp+1))&0ffh
  4864  002728  D010               	goto	l329
  4865                           	line	1192
  4866                           	
  4867  00272A                     l328:		; BSR set to: ?
  4868                           
  4869                           ;doprnt.c: 1192: else if(flag & 0x01)
  4870  00272A  0101               	movlb	1	; () banked
  4871                           	
  4872  00272C  0101               	movlb	1	; () banked
  4873  00272E  A146               	btfss	((sprintf@flag))&0ffh,(0)&7
  4874  002730  D001               	goto	u6021
  4875  002732  D001               	goto	u6020
  4876  002734                     u6021:
  4877  002734  D00A               	goto	l329
  4878  002736                     u6020:
  4879                           	line	1193
  4880  002736  C122  FFE9         	movff	(sprintf@sp),fsr0l
  4881  00273A  C123  FFEA         	movff	(sprintf@sp+1),fsr0h
  4882  00273E  0E20               	movlw	low(020h)
  4883  002740  6EEF               	movwf	indf0
  4884                           ;doprnt.c: 1193: ((*sp++ = (' ')));
  4885  002742  0101               	movlb	1	; () banked
  4886  002744  0101               	movlb	1	; () banked
  4887  002746  4B22               	infsnz	((sprintf@sp))&0ffh
  4888  002748  2B23               	incf	((sprintf@sp+1))&0ffh
  4889                           	
  4890  00274A                     l330:		; BSR set to: ?
  4891                           
  4892                           	line	1195
  4893                           	
  4894  00274A                     l329:		; BSR set to: ?
  4895                           
  4896                           	line	1196
  4897                           ;doprnt.c: 1195: }
  4898                           ;doprnt.c: 1196: while(c--) {
  4899  00274A  D04B               	goto	l331
  4900                           	
  4901  00274C                     l332:		; BSR set to: ?
  4902                           
  4903                           	line	1200
  4904  00274C  0101               	movlb	1	; () banked
  4905  00274E  0101               	movlb	1	; () banked
  4906  002750  513D               	movf	((sprintf@c))&0ffh,w
  4907  002752  0D04               	mullw	04h
  4908  002754  0E01               	movlw	low((_dpowers))
  4909  002756  24F3               	addwf	(prodl),c,w
  4910  002758  6EF6               	movwf	tblptrl
  4911  00275A  6AF7               	clrf	tblptrh
  4912  00275C  0E10               	movlw	high((_dpowers))
  4913  00275E  22F7               	addwfc	tblptrh
  4914  002760  6AF8               	clrf	tblptru
  4915  002762  0E00               	movlw	low highword(__mediumconst)
  4916  002764  22F8               	addwfc	tblptru
  4917  002766  0009               	tblrd*+
  4918                           	
  4919  002768  0101               	movlb	1	; () banked
  4920  00276A  CFF5 F15F          	movff	tablat,0+(?___lldiv+04h)
  4921  00276E  0009               	tblrd*+
  4922                           	
  4923  002770  0101               	movlb	1	; () banked
  4924  002772  CFF5 F160          	movff	tablat,1+(?___lldiv+04h)
  4925  002776  0009               	tblrd*+
  4926                           	
  4927  002778  0101               	movlb	1	; () banked
  4928  00277A  CFF5 F161          	movff	tablat,2+(?___lldiv+04h)
  4929  00277E  000A               	tblrd*-
  4930                           	
  4931  002780  0101               	movlb	1	; () banked
  4932  002782  CFF5 F162          	movff	tablat,3+(?___lldiv+04h)
  4933  002786  C14E  F15B         	movff	(sprintf@_val),(?___lldiv)
  4934  00278A  C14F  F15C         	movff	(sprintf@_val+1),(?___lldiv+1)
  4935  00278E  C150  F15D         	movff	(sprintf@_val+2),(?___lldiv+2)
  4936  002792  C151  F15E         	movff	(sprintf@_val+3),(?___lldiv+3)
  4937  002796  ECAD  F025         	call	___lldiv	;wreg free
  4938  00279A  C15B  F15B         	movff	0+?___lldiv,(?___llmod)
  4939  00279E  C15C  F15C         	movff	1+?___lldiv,(?___llmod+1)
  4940  0027A2  C15D  F15D         	movff	2+?___lldiv,(?___llmod+2)
  4941  0027A6  C15E  F15E         	movff	3+?___lldiv,(?___llmod+3)
  4942  0027AA  0E0A               	movlw	low(0Ah)
  4943  0027AC  0101               	movlb	1	; () banked
  4944  0027AE  0101               	movlb	1	; () banked
  4945  0027B0  6F5F               	movwf	(0+(?___llmod+04h))&0ffh
  4946  0027B2  0E00               	movlw	high(0Ah)
  4947  0027B4  0101               	movlb	1	; () banked
  4948  0027B6  6F60               	movwf	(1+(?___llmod+04h))&0ffh
  4949  0027B8  0E00               	movlw	low highword(0Ah)
  4950  0027BA  0101               	movlb	1	; () banked
  4951  0027BC  6F61               	movwf	(2+(?___llmod+04h))&0ffh
  4952  0027BE  0E00               	movlw	high highword(0Ah)
  4953  0027C0  0101               	movlb	1	; () banked
  4954  0027C2  6F62               	movwf	(3+(?___llmod+04h))&0ffh
  4955  0027C4  ECBC  F026         	call	___llmod	;wreg free
  4956  0027C8  0101               	movlb	1	; () banked
  4957  0027CA  0101               	movlb	1	; () banked
  4958  0027CC  515B               	movf	(0+?___llmod)&0ffh,w
  4959  0027CE  0F30               	addlw	low(030h)
  4960  0027D0  C122  FFE9         	movff	(sprintf@sp),fsr0l
  4961  0027D4  C123  FFEA         	movff	(sprintf@sp+1),fsr0h
  4962  0027D8  6EEF               	movwf	indf0
  4963                           
  4964                           ;doprnt.c: 1200: ((*sp++ = ('0' + (_val._val/dpo
                                 wers[c])%10)));
  4965  0027DA  0101               	movlb	1	; () banked
  4966  0027DC  0101               	movlb	1	; () banked
  4967  0027DE  4B22               	infsnz	((sprintf@sp))&0ffh
  4968  0027E0  2B23               	incf	((sprintf@sp+1))&0ffh
  4969                           	line	1202
  4970                           	
  4971  0027E2                     l331:		; BSR set to: ?
  4972                           
  4973                           	line	1196
  4974  0027E2  0101               	movlb	1	; () banked
  4975  0027E4  0101               	movlb	1	; () banked
  4976  0027E6  073D               	decf	((sprintf@c))&0ffh
  4977  0027E8  0101               	movlb	1	; () banked
  4978  0027EA  293D               	incf	((sprintf@c))&0ffh,w
  4979                           
  4980  0027EC  A4D8               	btfss	status,2
  4981  0027EE  D001               	goto	u6031
  4982  0027F0  D001               	goto	u6030
  4983  0027F2                     u6031:
  4984  0027F2  D7AC               	goto	l332
  4985  0027F4                     u6030:
  4986                           	
  4987  0027F4                     l333:		; BSR set to: ?
  4988                           
  4989                           	line	1203
  4990                           ;doprnt.c: 1202: }
  4991                           ;doprnt.c: 1203: while(exp > 0) {
  4992  0027F4  D00F               	goto	l334
  4993                           	
  4994  0027F6                     l335:		; BSR set to: ?
  4995                           
  4996                           	line	1204
  4997  0027F6  C122  FFE9         	movff	(sprintf@sp),fsr0l
  4998  0027FA  C123  FFEA         	movff	(sprintf@sp+1),fsr0h
  4999  0027FE  0E30               	movlw	low(030h)
  5000  002800  6EEF               	movwf	indf0
  5001                           ;doprnt.c: 1204: ((*sp++ = ('0')));
  5002  002802  0101               	movlb	1	; () banked
  5003  002804  0101               	movlb	1	; () banked
  5004  002806  4B22               	infsnz	((sprintf@sp))&0ffh
  5005  002808  2B23               	incf	((sprintf@sp+1))&0ffh
  5006                           	line	1205
  5007                           ;doprnt.c: 1205: exp--;
  5008  00280A  0101               	movlb	1	; () banked
  5009  00280C  0101               	movlb	1	; () banked
  5010  00280E  0740               	decf	((sprintf@exp))&0ffh
  5011  002810  A0D8               	btfss	status,0
  5012  002812  0741               	decf	((sprintf@exp+1))&0ffh
  5013                           	line	1206
  5014                           	
  5015  002814                     l334:		; BSR set to: ?
  5016                           
  5017                           	line	1203
  5018  002814  0101               	movlb	1	; () banked
  5019  002816  0101               	movlb	1	; () banked
  5020  002818  5141               	movf	((sprintf@exp+1))&0ffh,w
  5021  00281A  0A80               	xorlw	80h
  5022  00281C  0F80               	addlw	-((0)^80h)
  5023  00281E  0E01               	movlw	01h
  5024  002820  B4D8               	btfsc	status,2
  5025  002822  5D40               	subwf	((sprintf@exp))&0ffh,w
  5026  002824  B0D8               	btfsc	status,0
  5027  002826  D001               	goto	u6041
  5028  002828  D001               	goto	u6040
  5029  00282A                     u6041:
  5030  00282A  D7E5               	goto	l335
  5031  00282C                     u6040:
  5032                           	
  5033  00282C                     l336:		; BSR set to: ?
  5034                           
  5035                           	line	1207
  5036                           ;doprnt.c: 1206: }
  5037                           ;doprnt.c: 1207: if(prec > (int)((sizeof dpowers
                                 /sizeof dpowers[0])-2))
  5038  00282C  0101               	movlb	1	; () banked
  5039  00282E  0101               	movlb	1	; () banked
  5040  002830  5145               	movf	((sprintf@prec+1))&0ffh,w
  5041  002832  0A80               	xorlw	80h
  5042  002834  0F80               	addlw	-((0)^80h)
  5043  002836  0E09               	movlw	09h
  5044  002838  B4D8               	btfsc	status,2
  5045  00283A  5D44               	subwf	((sprintf@prec))&0ffh,w
  5046  00283C  A0D8               	btfss	status,0
  5047  00283E  D001               	goto	u6051
  5048  002840  D001               	goto	u6050
  5049  002842                     u6051:
  5050  002842  D009               	goto	l337
  5051  002844                     u6050:
  5052                           	line	1208
  5053                           ;doprnt.c: 1208: c = (sizeof dpowers/sizeof dpow
                                 ers[0])-2;
  5054  002844  0101               	movlb	1	; () banked
  5055  002846  6F55               	movwf	(??_sprintf+42+0)&0ffh
  5056  002848  0E08               	movlw	low(08h)
  5057  00284A  0101               	movlb	1	; () banked
  5058  00284C  0101               	movlb	1	; () banked
  5059  00284E  6F3D               	movwf	((sprintf@c))&0ffh
  5060  002850  0101               	movlb	1	; () banked
  5061  002852  5155               	movf	(??_sprintf+42+0)&0ffh,w
  5062  002854  D002               	goto	l338
  5063                           	line	1209
  5064                           	
  5065  002856                     l337:		; BSR set to: ?
  5066                           
  5067                           	line	1210
  5068                           ;doprnt.c: 1209: else
  5069                           ;doprnt.c: 1210: c = prec;
  5070  002856  C144  F13D         	movff	(sprintf@prec),(sprintf@c)
  5071                           	
  5072  00285A                     l338:		; BSR set to: ?
  5073                           
  5074                           	line	1211
  5075                           ;doprnt.c: 1211: prec -= c;
  5076  00285A  0101               	movlb	1	; () banked
  5077  00285C  0101               	movlb	1	; () banked
  5078  00285E  513D               	movf	((sprintf@c))&0ffh,w
  5079  002860  0101               	movlb	1	; () banked
  5080  002862  0101               	movlb	1	; () banked
  5081  002864  5F44               	subwf	((sprintf@prec))&0ffh
  5082  002866  0E00               	movlw	0
  5083  002868  0101               	movlb	1	; () banked
  5084  00286A  BF3D               	btfsc	((sprintf@c))&0ffh,7
  5085  00286C  0EFF               	movlw	0ffh
  5086  00286E  0101               	movlb	1	; () banked
  5087  002870  0101               	movlb	1	; () banked
  5088  002872  5B45               	subwfb	((sprintf@prec+1))&0ffh
  5089                           
  5090                           	line	1213
  5091                           ;doprnt.c: 1213: if(c || flag & 0x800)
  5092  002874  0101               	movlb	1	; () banked
  5093  002876  0101               	movlb	1	; () banked
  5094  002878  673D               	tstfsz	((sprintf@c))&0ffh
  5095  00287A  D001               	goto	u6061
  5096  00287C  D001               	goto	u6060
  5097  00287E                     u6061:
  5098  00287E  D006               	goto	l600000694
  5099  002880                     u6060:
  5100  002880  0101               	movlb	1	; () banked
  5101                           	
  5102  002882  0101               	movlb	1	; () banked
  5103  002884  A747               	btfss	((sprintf@flag+1))&0ffh,(11)&7
  5104  002886  D001               	goto	u6071
  5105  002888  D001               	goto	u6070
  5106  00288A                     u6071:
  5107  00288A  D00A               	goto	l339
  5108  00288C                     u6070:
  5109                           	
  5110  00288C                     l600000694:		; BSR set to: ?
  5111                           
  5112                           	line	1217
  5113  00288C  C122  FFE9         	movff	(sprintf@sp),fsr0l
  5114  002890  C123  FFEA         	movff	(sprintf@sp+1),fsr0h
  5115  002894  0E2E               	movlw	low(02Eh)
  5116  002896  6EEF               	movwf	indf0
  5117                           ;doprnt.c: 1217: ((*sp++ = ('.')));
  5118  002898  0101               	movlb	1	; () banked
  5119  00289A  0101               	movlb	1	; () banked
  5120  00289C  4B22               	infsnz	((sprintf@sp))&0ffh
  5121  00289E  2B23               	incf	((sprintf@sp+1))&0ffh
  5122                           	
  5123  0028A0                     l339:		; BSR set to: ?
  5124                           
  5125                           	line	1223
  5126                           ;doprnt.c: 1223: _val._val = (long)(fval * scale
                                 (c));
  5127  0028A0  C13D  F15B         	movff	(sprintf@c),(?_scale)
  5128  0028A4  EC9B  F017         	call	_scale	;wreg free
  5129  0028A8  C15B  F17A         	movff	0+?_scale,(?___ftmul)
  5130  0028AC  C15C  F17B         	movff	1+?_scale,(?___ftmul+1)
  5131  0028B0  C15D  F17C         	movff	2+?_scale,(?___ftmul+2)
  5132  0028B4  C14B  F17D         	movff	(sprintf@fval),0+(?___ftmul+03h)
  5133  0028B8  C14C  F17E         	movff	(sprintf@fval+1),1+(?___ftmul+03h)
  5134  0028BC  C14D  F17F         	movff	(sprintf@fval+2),2+(?___ftmul+03h)
  5135  0028C0  ECA9  F020         	call	___ftmul	;wreg free
  5136  0028C4  C17A  F15B         	movff	0+?___ftmul,(?___fttol)
  5137  0028C8  C17B  F15C         	movff	1+?___ftmul,(?___fttol+1)
  5138  0028CC  C17C  F15D         	movff	2+?___ftmul,(?___fttol+2)
  5139  0028D0  ECD4  F023         	call	___fttol	;wreg free
  5140  0028D4  C15B  F14E         	movff	0+?___fttol,(sprintf@_val)
  5141  0028D8  C15C  F14F         	movff	1+?___fttol,(sprintf@_val+1)
  5142  0028DC  C15D  F150         	movff	2+?___fttol,(sprintf@_val+2)
  5143  0028E0  C15E  F151         	movff	3+?___fttol,(sprintf@_val+3)
  5144                           	line	1224
  5145                           ;doprnt.c: 1224: while(c--) {
  5146  0028E4  D07A               	goto	l340
  5147                           	
  5148  0028E6                     l341:		; BSR set to: ?
  5149                           
  5150                           	line	1225
  5151  0028E6  0101               	movlb	1	; () banked
  5152  0028E8  0101               	movlb	1	; () banked
  5153  0028EA  513D               	movf	((sprintf@c))&0ffh,w
  5154  0028EC  0D04               	mullw	04h
  5155  0028EE  0E01               	movlw	low((_dpowers))
  5156  0028F0  24F3               	addwf	(prodl),c,w
  5157  0028F2  6EF6               	movwf	tblptrl
  5158  0028F4  6AF7               	clrf	tblptrh
  5159  0028F6  0E10               	movlw	high((_dpowers))
  5160  0028F8  22F7               	addwfc	tblptrh
  5161  0028FA  6AF8               	clrf	tblptru
  5162  0028FC  0E00               	movlw	low highword(__mediumconst)
  5163  0028FE  22F8               	addwfc	tblptru
  5164  002900  0009               	tblrd*+
  5165                           	
  5166  002902  0101               	movlb	1	; () banked
  5167  002904  CFF5 F15F          	movff	tablat,0+(?___lldiv+04h)
  5168  002908  0009               	tblrd*+
  5169                           	
  5170  00290A  0101               	movlb	1	; () banked
  5171  00290C  CFF5 F160          	movff	tablat,1+(?___lldiv+04h)
  5172  002910  0009               	tblrd*+
  5173                           	
  5174  002912  0101               	movlb	1	; () banked
  5175  002914  CFF5 F161          	movff	tablat,2+(?___lldiv+04h)
  5176  002918  000A               	tblrd*-
  5177                           	
  5178  00291A  0101               	movlb	1	; () banked
  5179  00291C  CFF5 F162          	movff	tablat,3+(?___lldiv+04h)
  5180  002920  C14E  F15B         	movff	(sprintf@_val),(?___lldiv)
  5181  002924  C14F  F15C         	movff	(sprintf@_val+1),(?___lldiv+1)
  5182  002928  C150  F15D         	movff	(sprintf@_val+2),(?___lldiv+2)
  5183  00292C  C151  F15E         	movff	(sprintf@_val+3),(?___lldiv+3)
  5184  002930  ECAD  F025         	call	___lldiv	;wreg free
  5185  002934  C15B  F15B         	movff	0+?___lldiv,(?___llmod)
  5186  002938  C15C  F15C         	movff	1+?___lldiv,(?___llmod+1)
  5187  00293C  C15D  F15D         	movff	2+?___lldiv,(?___llmod+2)
  5188  002940  C15E  F15E         	movff	3+?___lldiv,(?___llmod+3)
  5189  002944  0E0A               	movlw	low(0Ah)
  5190  002946  0101               	movlb	1	; () banked
  5191  002948  0101               	movlb	1	; () banked
  5192  00294A  6F5F               	movwf	(0+(?___llmod+04h))&0ffh
  5193  00294C  0E00               	movlw	high(0Ah)
  5194  00294E  0101               	movlb	1	; () banked
  5195  002950  6F60               	movwf	(1+(?___llmod+04h))&0ffh
  5196  002952  0E00               	movlw	low highword(0Ah)
  5197  002954  0101               	movlb	1	; () banked
  5198  002956  6F61               	movwf	(2+(?___llmod+04h))&0ffh
  5199  002958  0E00               	movlw	high highword(0Ah)
  5200  00295A  0101               	movlb	1	; () banked
  5201  00295C  6F62               	movwf	(3+(?___llmod+04h))&0ffh
  5202  00295E  ECBC  F026         	call	___llmod	;wreg free
  5203  002962  0101               	movlb	1	; () banked
  5204  002964  0101               	movlb	1	; () banked
  5205  002966  515B               	movf	(0+?___llmod)&0ffh,w
  5206  002968  0F30               	addlw	low(030h)
  5207  00296A  C122  FFE9         	movff	(sprintf@sp),fsr0l
  5208  00296E  C123  FFEA         	movff	(sprintf@sp+1),fsr0h
  5209  002972  6EEF               	movwf	indf0
  5210                           
  5211                           ;doprnt.c: 1225: ((*sp++ = ('0' + (_val._val/dpo
                                 wers[c])%10)));
  5212  002974  0101               	movlb	1	; () banked
  5213  002976  0101               	movlb	1	; () banked
  5214  002978  4B22               	infsnz	((sprintf@sp))&0ffh
  5215  00297A  2B23               	incf	((sprintf@sp+1))&0ffh
  5216                           	line	1226
  5217                           ;doprnt.c: 1226: _val._val %= dpowers[c];
  5218  00297C  0101               	movlb	1	; () banked
  5219  00297E  0101               	movlb	1	; () banked
  5220  002980  513D               	movf	((sprintf@c))&0ffh,w
  5221  002982  0D04               	mullw	04h
  5222  002984  0E01               	movlw	low((_dpowers))
  5223  002986  24F3               	addwf	(prodl),c,w
  5224  002988  6EF6               	movwf	tblptrl
  5225  00298A  6AF7               	clrf	tblptrh
  5226  00298C  0E10               	movlw	high((_dpowers))
  5227  00298E  22F7               	addwfc	tblptrh
  5228  002990  6AF8               	clrf	tblptru
  5229  002992  0E00               	movlw	low highword(__mediumconst)
  5230  002994  22F8               	addwfc	tblptru
  5231  002996  0009               	tblrd*+
  5232                           	
  5233  002998  0101               	movlb	1	; () banked
  5234  00299A  CFF5 F15F          	movff	tablat,0+(?___llmod+04h)
  5235  00299E  0009               	tblrd*+
  5236                           	
  5237  0029A0  0101               	movlb	1	; () banked
  5238  0029A2  CFF5 F160          	movff	tablat,1+(?___llmod+04h)
  5239  0029A6  0009               	tblrd*+
  5240                           	
  5241  0029A8  0101               	movlb	1	; () banked
  5242  0029AA  CFF5 F161          	movff	tablat,2+(?___llmod+04h)
  5243  0029AE  000A               	tblrd*-
  5244                           	
  5245  0029B0  0101               	movlb	1	; () banked
  5246  0029B2  CFF5 F162          	movff	tablat,3+(?___llmod+04h)
  5247  0029B6  C14E  F15B         	movff	(sprintf@_val),(?___llmod)
  5248  0029BA  C14F  F15C         	movff	(sprintf@_val+1),(?___llmod+1)
  5249  0029BE  C150  F15D         	movff	(sprintf@_val+2),(?___llmod+2)
  5250  0029C2  C151  F15E         	movff	(sprintf@_val+3),(?___llmod+3)
  5251  0029C6  ECBC  F026         	call	___llmod	;wreg free
  5252  0029CA  C15B  F14E         	movff	0+?___llmod,(sprintf@_val)
  5253  0029CE  C15C  F14F         	movff	1+?___llmod,(sprintf@_val+1)
  5254  0029D2  C15D  F150         	movff	2+?___llmod,(sprintf@_val+2)
  5255  0029D6  C15E  F151         	movff	3+?___llmod,(sprintf@_val+3)
  5256                           	line	1227
  5257                           	
  5258  0029DA                     l340:		; BSR set to: ?
  5259                           
  5260                           	line	1224
  5261  0029DA  0101               	movlb	1	; () banked
  5262  0029DC  0101               	movlb	1	; () banked
  5263  0029DE  073D               	decf	((sprintf@c))&0ffh
  5264  0029E0  0101               	movlb	1	; () banked
  5265  0029E2  293D               	incf	((sprintf@c))&0ffh,w
  5266                           
  5267  0029E4  A4D8               	btfss	status,2
  5268  0029E6  D001               	goto	u6081
  5269  0029E8  D001               	goto	u6080
  5270  0029EA                     u6081:
  5271  0029EA  D77D               	goto	l341
  5272  0029EC                     u6080:
  5273                           	
  5274  0029EC                     l342:		; BSR set to: ?
  5275                           
  5276                           	line	1229
  5277                           ;doprnt.c: 1227: }
  5278                           ;doprnt.c: 1229: while(prec) {
  5279  0029EC  D00F               	goto	l343
  5280                           	
  5281  0029EE                     l344:		; BSR set to: ?
  5282                           
  5283                           	line	1230
  5284  0029EE  C122  FFE9         	movff	(sprintf@sp),fsr0l
  5285  0029F2  C123  FFEA         	movff	(sprintf@sp+1),fsr0h
  5286  0029F6  0E30               	movlw	low(030h)
  5287  0029F8  6EEF               	movwf	indf0
  5288                           ;doprnt.c: 1230: ((*sp++ = ('0')));
  5289  0029FA  0101               	movlb	1	; () banked
  5290  0029FC  0101               	movlb	1	; () banked
  5291  0029FE  4B22               	infsnz	((sprintf@sp))&0ffh
  5292  002A00  2B23               	incf	((sprintf@sp+1))&0ffh
  5293                           	line	1231
  5294                           ;doprnt.c: 1231: prec--;
  5295  002A02  0101               	movlb	1	; () banked
  5296  002A04  0101               	movlb	1	; () banked
  5297  002A06  0744               	decf	((sprintf@prec))&0ffh
  5298  002A08  A0D8               	btfss	status,0
  5299  002A0A  0745               	decf	((sprintf@prec+1))&0ffh
  5300                           	line	1232
  5301                           	
  5302  002A0C                     l343:		; BSR set to: ?
  5303                           
  5304                           	line	1229
  5305  002A0C  0101               	movlb	1	; () banked
  5306  002A0E  0101               	movlb	1	; () banked
  5307  002A10  5145               	movf	((sprintf@prec+1))&0ffh,w
  5308  002A12  1144               	iorwf ((sprintf@prec))&0ffh,w
  5309                           
  5310  002A14  A4D8               	btfss	status,2
  5311  002A16  D001               	goto	u6091
  5312  002A18  D001               	goto	u6090
  5313  002A1A                     u6091:
  5314  002A1A  D7E9               	goto	l344
  5315  002A1C                     u6090:
  5316                           	
  5317  002A1C                     l345:		; BSR set to: ?
  5318                           
  5319                           	line	1234
  5320                           ;doprnt.c: 1232: }
  5321                           ;doprnt.c: 1234: if((flag & 0x08) && width > 0)
  5322  002A1C  0101               	movlb	1	; () banked
  5323                           	
  5324  002A1E  0101               	movlb	1	; () banked
  5325  002A20  A746               	btfss	((sprintf@flag))&0ffh,(3)&7
  5326  002A22  D001               	goto	u6101
  5327  002A24  D002               	goto	u6100
  5328  002A26                     u6101:
  5329  002A26  EF9E  F00A         	goto	l247
  5330  002A2A                     u6100:
  5331  002A2A  0101               	movlb	1	; () banked
  5332  002A2C  0101               	movlb	1	; () banked
  5333  002A2E  5143               	movf	((sprintf@width+1))&0ffh,w
  5334  002A30  0A80               	xorlw	80h
  5335  002A32  0F80               	addlw	-((0)^80h)
  5336  002A34  0E01               	movlw	01h
  5337  002A36  B4D8               	btfsc	status,2
  5338  002A38  5D42               	subwf	((sprintf@width))&0ffh,w
  5339  002A3A  A0D8               	btfss	status,0
  5340  002A3C  D001               	goto	u6111
  5341  002A3E  D002               	goto	u6110
  5342  002A40                     u6111:
  5343  002A40  EF9E  F00A         	goto	l247
  5344  002A44                     u6110:
  5345                           	line	1235
  5346                           ;doprnt.c: 1235: do
  5347                           	
  5348  002A44                     l349:		; BSR set to: ?
  5349                           
  5350                           	line	1236
  5351  002A44  C122  FFE9         	movff	(sprintf@sp),fsr0l
  5352  002A48  C123  FFEA         	movff	(sprintf@sp+1),fsr0h
  5353  002A4C  0E20               	movlw	low(020h)
  5354  002A4E  6EEF               	movwf	indf0
  5355                           ;doprnt.c: 1236: ((*sp++ = (' ')));
  5356  002A50  0101               	movlb	1	; () banked
  5357  002A52  0101               	movlb	1	; () banked
  5358  002A54  4B22               	infsnz	((sprintf@sp))&0ffh
  5359  002A56  2B23               	incf	((sprintf@sp+1))&0ffh
  5360                           	line	1237
  5361                           ;doprnt.c: 1237: while(--width);
  5362  002A58  0101               	movlb	1	; () banked
  5363  002A5A  0101               	movlb	1	; () banked
  5364  002A5C  0742               	decf	((sprintf@width))&0ffh
  5365  002A5E  A0D8               	btfss	status,0
  5366  002A60  0743               	decf	((sprintf@width+1))&0ffh
  5367  002A62  0101               	movlb	1	; () banked
  5368  002A64  5143               	movf	((sprintf@width+1))&0ffh,w
  5369  002A66  1142               	iorwf ((sprintf@width))&0ffh,w
  5370                           
  5371  002A68  A4D8               	btfss	status,2
  5372  002A6A  D001               	goto	u6121
  5373  002A6C  D001               	goto	u6120
  5374  002A6E                     u6121:
  5375  002A6E  D7EA               	goto	l349
  5376  002A70                     u6120:
  5377                           	
  5378  002A70                     l348:		; BSR set to: ?
  5379                           
  5380                           	
  5381  002A70                     l346:		; BSR set to: ?
  5382                           
  5383                           	line	1239
  5384                           ;doprnt.c: 1239: continue;
  5385  002A70  D23D               	goto	l198
  5386                           	line	1240
  5387                           	
  5388  002A72                     l252:		; BSR set to: ?
  5389                           
  5390                           	line	1280
  5391                           ;doprnt.c: 1240: }
  5392                           ;doprnt.c: 1267: {
  5393                           ;doprnt.c: 1280: _val._val = (*(unsigned *)__va_
                                 arg((*(unsigned **)ap)));
  5394  002A72  0101               	movlb	1	; () banked
  5395  002A74  C13E  FFE9         	movff	(sprintf@ap),fsr0l
  5396  002A78  0101               	movlb	1	; () banked
  5397  002A7A  C13F  FFEA         	movff	(sprintf@ap+1),fsr0h
  5398  002A7E  0101               	movlb	1	; () banked
  5399  002A80  0E02               	movlw	low(02h)
  5400  002A82  0101               	movlb	1	; () banked
  5401  002A84  273E               	addwf	((sprintf@ap))&0ffh
  5402  002A86  0E00               	movlw	high(02h)
  5403  002A88  0101               	movlb	1	; () banked
  5404  002A8A  233F               	addwfc	((sprintf@ap+1))&0ffh
  5405  002A8C  CFEE F155          	movff	postinc0,??_sprintf+42+0
  5406  002A90  CFED F156          	movff	postdec0,??_sprintf+42+0+1
  5407  002A94  0101               	movlb	1	; () banked
  5408  002A96  C155  F14E         	movff	??_sprintf+42+0,(sprintf@_val)
  5409  002A9A  0101               	movlb	1	; () banked
  5410  002A9C  C156  F14F         	movff	??_sprintf+42+1,(sprintf@_val+1)
  5411  002AA0  0101               	movlb	1	; () banked
  5412  002AA2  0101               	movlb	1	; () banked
  5413  002AA4  6B50               	clrf	((sprintf@_val+2))&0ffh
  5414  002AA6  0101               	movlb	1	; () banked
  5415  002AA8  6B51               	clrf	((sprintf@_val+3))&0ffh
  5416                           
  5417                           	line	1284
  5418                           ;doprnt.c: 1281: }
  5419                           ;doprnt.c: 1284: if(prec == 0 && _val._val == 0)
  5420  002AAA  0101               	movlb	1	; () banked
  5421  002AAC  0101               	movlb	1	; () banked
  5422  002AAE  5145               	movf	((sprintf@prec+1))&0ffh,w
  5423  002AB0  1144               	iorwf ((sprintf@prec))&0ffh,w
  5424                           
  5425  002AB2  A4D8               	btfss	status,2
  5426  002AB4  D001               	goto	u6131
  5427  002AB6  D001               	goto	u6130
  5428  002AB8                     u6131:
  5429  002AB8  D00D               	goto	l350
  5430  002ABA                     u6130:
  5431  002ABA  0101               	movlb	1	; () banked
  5432  002ABC  5151               	movf	((sprintf@_val+3))&0ffh,w
  5433  002ABE  114E               	iorwf ((sprintf@_val))&0ffh,w
  5434  002AC0  114F               	iorwf ((sprintf@_val+1))&0ffh,w
  5435  002AC2  1150               	iorwf ((sprintf@_val+2))&0ffh,w
  5436                           
  5437  002AC4  A4D8               	btfss	status,2
  5438  002AC6  D001               	goto	u6141
  5439  002AC8  D001               	goto	u6140
  5440  002ACA                     u6141:
  5441  002ACA  D004               	goto	l350
  5442  002ACC                     u6140:
  5443                           	line	1285
  5444                           ;doprnt.c: 1285: prec++;
  5445  002ACC  0101               	movlb	1	; () banked
  5446  002ACE  0101               	movlb	1	; () banked
  5447  002AD0  4B44               	infsnz	((sprintf@prec))&0ffh
  5448  002AD2  2B45               	incf	((sprintf@prec+1))&0ffh
  5449                           	
  5450  002AD4                     l350:		; BSR set to: ?
  5451                           
  5452                           	line	1310
  5453                           ;doprnt.c: 1310: for(c = 1 ; c != sizeof hexpowe
                                 rs/sizeof hexpowers[0] ; c++)
  5454  002AD4  0101               	movlb	1	; () banked
  5455  002AD6  6F55               	movwf	(??_sprintf+42+0)&0ffh
  5456  002AD8  0E01               	movlw	low(01h)
  5457  002ADA  0101               	movlb	1	; () banked
  5458  002ADC  0101               	movlb	1	; () banked
  5459  002ADE  6F3D               	movwf	((sprintf@c))&0ffh
  5460  002AE0  0101               	movlb	1	; () banked
  5461  002AE2  5155               	movf	(??_sprintf+42+0)&0ffh,w
  5462  002AE4  0101               	movlb	1	; () banked
  5463  002AE6  0101               	movlb	1	; () banked
  5464  002AE8  513D               	movf	((sprintf@c))&0ffh,w
  5465  002AEA  0A08               	xorlw	8
  5466                           
  5467  002AEC  A4D8               	btfss	status,2
  5468  002AEE  D001               	goto	u6151
  5469  002AF0  D001               	goto	u6150
  5470  002AF2                     u6151:
  5471  002AF2  D001               	goto	l351
  5472  002AF4                     u6150:
  5473  002AF4  D02E               	goto	l352
  5474                           	line	1311
  5475                           	
  5476  002AF6                     l351:		; BSR set to: ?
  5477                           
  5478                           ;doprnt.c: 1311: if(_val._val < hexpowers[c])
  5479  002AF6  0101               	movlb	1	; () banked
  5480  002AF8  0101               	movlb	1	; () banked
  5481  002AFA  513D               	movf	((sprintf@c))&0ffh,w
  5482  002AFC  0D04               	mullw	04h
  5483  002AFE  0E77               	movlw	low((_hexpowers))
  5484  002B00  24F3               	addwf	(prodl),c,w
  5485  002B02  6EF6               	movwf	tblptrl
  5486  002B04  6AF7               	clrf	tblptrh
  5487  002B06  0E10               	movlw	high((_hexpowers))
  5488  002B08  22F7               	addwfc	tblptrh
  5489  002B0A  6AF8               	clrf	tblptru
  5490  002B0C  0E00               	movlw	low highword(__mediumconst)
  5491  002B0E  22F8               	addwfc	tblptru
  5492  002B10  0009               	tblrd	*+
  5493                           	
  5494  002B12  50F5               	movf	tablat,w
  5495  002B14  0101               	movlb	1	; () banked
  5496  002B16  0101               	movlb	1	; () banked
  5497  002B18  5D4E               	subwf	((sprintf@_val))&0ffh,w
  5498  002B1A  0009               	tblrd	*+
  5499                           	
  5500  002B1C  50F5               	movf	tablat,w
  5501  002B1E  0101               	movlb	1	; () banked
  5502  002B20  594F               	subwfb	((sprintf@_val+1))&0ffh,w
  5503  002B22  0009               	tblrd	*+
  5504                           	
  5505  002B24  50F5               	movf	tablat,w
  5506  002B26  0101               	movlb	1	; () banked
  5507  002B28  5950               	subwfb	((sprintf@_val+2))&0ffh,w
  5508  002B2A  0009               	tblrd	*+
  5509                           	
  5510  002B2C  50F5               	movf	tablat,w
  5511  002B2E  0101               	movlb	1	; () banked
  5512  002B30  5951               	subwfb	((sprintf@_val+3))&0ffh,w
  5513  002B32  B0D8               	btfsc	status,0
  5514  002B34  D001               	goto	u6161
  5515  002B36  D001               	goto	u6160
  5516  002B38                     u6161:
  5517  002B38  D001               	goto	l354
  5518  002B3A                     u6160:
  5519                           	line	1312
  5520                           ;doprnt.c: 1312: break;
  5521  002B3A  D00B               	goto	l352
  5522                           	
  5523  002B3C                     l354:		; BSR set to: ?
  5524                           
  5525                           	line	1310
  5526  002B3C  0101               	movlb	1	; () banked
  5527  002B3E  0101               	movlb	1	; () banked
  5528  002B40  2B3D               	incf	((sprintf@c))&0ffh
  5529  002B42  0101               	movlb	1	; () banked
  5530  002B44  0101               	movlb	1	; () banked
  5531  002B46  513D               	movf	((sprintf@c))&0ffh,w
  5532  002B48  0A08               	xorlw	8
  5533                           
  5534  002B4A  A4D8               	btfss	status,2
  5535  002B4C  D001               	goto	u6171
  5536  002B4E  D001               	goto	u6170
  5537  002B50                     u6171:
  5538  002B50  D7D2               	goto	l351
  5539  002B52                     u6170:
  5540                           	
  5541  002B52                     l352:		; BSR set to: ?
  5542                           
  5543                           	line	1333
  5544                           ;doprnt.c: 1333: if(c < prec)
  5545  002B52  0E80               	movlw	080h
  5546  002B54  0101               	movlb	1	; () banked
  5547  002B56  0101               	movlb	1	; () banked
  5548  002B58  BF3D               	btfsc	((sprintf@c))&0ffh,7
  5549  002B5A  0E7F               	movlw	07fh
  5550  002B5C  6F55               	movwf	(??_sprintf+42+0)&0ffh
  5551  002B5E  0101               	movlb	1	; () banked
  5552  002B60  0101               	movlb	1	; () banked
  5553  002B62  5144               	movf	((sprintf@prec))&0ffh,w
  5554  002B64  0101               	movlb	1	; () banked
  5555  002B66  0101               	movlb	1	; () banked
  5556  002B68  5D3D               	subwf	((sprintf@c))&0ffh,w
  5557  002B6A  0101               	movlb	1	; () banked
  5558  002B6C  0101               	movlb	1	; () banked
  5559  002B6E  5145               	movf	((sprintf@prec+1))&0ffh,w
  5560  002B70  0A80               	xorlw	80h
  5561  002B72  0101               	movlb	1	; () banked
  5562  002B74  5955               	subwfb	(??_sprintf+42+0)&0ffh,w
  5563  002B76  B0D8               	btfsc	status,0
  5564  002B78  D001               	goto	u6181
  5565  002B7A  D001               	goto	u6180
  5566  002B7C                     u6181:
  5567  002B7C  D003               	goto	l355
  5568  002B7E                     u6180:
  5569                           	line	1334
  5570                           ;doprnt.c: 1334: c = prec;
  5571  002B7E  C144  F13D         	movff	(sprintf@prec),(sprintf@c)
  5572  002B82  D022               	goto	l356
  5573                           	line	1335
  5574                           	
  5575  002B84                     l355:		; BSR set to: ?
  5576                           
  5577                           ;doprnt.c: 1335: else if(prec < c)
  5578  002B84  0101               	movlb	1	; () banked
  5579  002B86  0101               	movlb	1	; () banked
  5580  002B88  5145               	movf	((sprintf@prec+1))&0ffh,w
  5581  002B8A  0A80               	xorlw	80h
  5582  002B8C  0101               	movlb	1	; () banked
  5583  002B8E  6F55               	movwf	(??_sprintf+42+0)&0ffh
  5584  002B90  0101               	movlb	1	; () banked
  5585  002B92  0101               	movlb	1	; () banked
  5586  002B94  513D               	movf	((sprintf@c))&0ffh,w
  5587  002B96  0101               	movlb	1	; () banked
  5588  002B98  0101               	movlb	1	; () banked
  5589  002B9A  5D44               	subwf	((sprintf@prec))&0ffh,w
  5590  002B9C  0E80               	movlw	080h
  5591  002B9E  0101               	movlb	1	; () banked
  5592  002BA0  0101               	movlb	1	; () banked
  5593  002BA2  BF3D               	btfsc	((sprintf@c))&0ffh,7
  5594  002BA4  0E7F               	movlw	07fh
  5595  002BA6  0101               	movlb	1	; () banked
  5596  002BA8  5955               	subwfb	(??_sprintf+42+0)&0ffh,w
  5597  002BAA  B0D8               	btfsc	status,0
  5598  002BAC  D001               	goto	u6191
  5599  002BAE  D001               	goto	u6190
  5600  002BB0                     u6191:
  5601  002BB0  D00B               	goto	l356
  5602  002BB2                     u6190:
  5603                           	line	1336
  5604                           ;doprnt.c: 1336: prec = c;
  5605  002BB2  0101               	movlb	1	; () banked
  5606  002BB4  0101               	movlb	1	; () banked
  5607  002BB6  513D               	movf	((sprintf@c))&0ffh,w
  5608  002BB8  0101               	movlb	1	; () banked
  5609  002BBA  0101               	movlb	1	; () banked
  5610  002BBC  6F44               	movwf	((sprintf@prec))&0ffh
  5611  002BBE  0101               	movlb	1	; () banked
  5612  002BC0  6B45               	clrf	((sprintf@prec+1))&0ffh
  5613  002BC2  0101               	movlb	1	; () banked
  5614  002BC4  BF44               	btfsc	((sprintf@prec))&0ffh,7
  5615  002BC6  0745               	decf	((sprintf@prec+1))&0ffh
  5616                           	
  5617  002BC8                     l357:		; BSR set to: ?
  5618                           
  5619                           	line	1339
  5620                           	
  5621  002BC8                     l356:		; BSR set to: ?
  5622                           
  5623                           ;doprnt.c: 1339: if(width && flag & 0x03)
  5624  002BC8  0101               	movlb	1	; () banked
  5625  002BCA  0101               	movlb	1	; () banked
  5626  002BCC  5143               	movf	((sprintf@width+1))&0ffh,w
  5627  002BCE  1142               	iorwf ((sprintf@width))&0ffh,w
  5628                           
  5629  002BD0  B4D8               	btfsc	status,2
  5630  002BD2  D001               	goto	u6201
  5631  002BD4  D001               	goto	u6200
  5632  002BD6                     u6201:
  5633  002BD6  D018               	goto	l358
  5634  002BD8                     u6200:
  5635  002BD8  0E03               	movlw	03h
  5636  002BDA  0101               	movlb	1	; () banked
  5637  002BDC  0101               	movlb	1	; () banked
  5638  002BDE  1546               	andwf	((sprintf@flag))&0ffh,w
  5639  002BE0  0101               	movlb	1	; () banked
  5640  002BE2  6F55               	movwf	(??_sprintf+42+0)&0ffh
  5641  002BE4  0E00               	movlw	0
  5642  002BE6  0101               	movlb	1	; () banked
  5643  002BE8  0101               	movlb	1	; () banked
  5644  002BEA  1547               	andwf	((sprintf@flag+1))&0ffh,w
  5645  002BEC  0101               	movlb	1	; () banked
  5646  002BEE  6F56               	movwf	(??_sprintf+42+0+1)&0ffh
  5647  002BF0  0101               	movlb	1	; () banked
  5648  002BF2  5156               	movf	(??_sprintf+42+1)&0ffh,w
  5649  002BF4  1155               	iorwf (??_sprintf+42+0)&0ffh,w
  5650                           
  5651  002BF6  B4D8               	btfsc	status,2
  5652  002BF8  D001               	goto	u6211
  5653  002BFA  D001               	goto	u6210
  5654  002BFC                     u6211:
  5655  002BFC  D005               	goto	l358
  5656  002BFE                     u6210:
  5657                           	line	1340
  5658                           ;doprnt.c: 1340: width--;
  5659  002BFE  0101               	movlb	1	; () banked
  5660  002C00  0101               	movlb	1	; () banked
  5661  002C02  0742               	decf	((sprintf@width))&0ffh
  5662  002C04  A0D8               	btfss	status,0
  5663  002C06  0743               	decf	((sprintf@width+1))&0ffh
  5664                           	
  5665  002C08                     l358:		; BSR set to: ?
  5666                           
  5667                           	line	1342
  5668                           ;doprnt.c: 1342: if(flag & 0x4000) {
  5669  002C08  0101               	movlb	1	; () banked
  5670                           	
  5671  002C0A  0101               	movlb	1	; () banked
  5672  002C0C  AD47               	btfss	((sprintf@flag+1))&0ffh,(14)&7
  5673  002C0E  D001               	goto	u6221
  5674  002C10  D001               	goto	u6220
  5675  002C12                     u6221:
  5676  002C12  D02A               	goto	l359
  5677  002C14                     u6220:
  5678                           	line	1343
  5679                           ;doprnt.c: 1343: if(width > prec)
  5680  002C14  0101               	movlb	1	; () banked
  5681  002C16  0101               	movlb	1	; () banked
  5682  002C18  5145               	movf	((sprintf@prec+1))&0ffh,w
  5683  002C1A  0A80               	xorlw	80h
  5684  002C1C  0101               	movlb	1	; () banked
  5685  002C1E  6F55               	movwf	(??_sprintf+42+0)&0ffh
  5686  002C20  0101               	movlb	1	; () banked
  5687  002C22  0101               	movlb	1	; () banked
  5688  002C24  5142               	movf	((sprintf@width))&0ffh,w
  5689  002C26  0101               	movlb	1	; () banked
  5690  002C28  0101               	movlb	1	; () banked
  5691  002C2A  5D44               	subwf	((sprintf@prec))&0ffh,w
  5692  002C2C  0101               	movlb	1	; () banked
  5693  002C2E  0101               	movlb	1	; () banked
  5694  002C30  5143               	movf	((sprintf@width+1))&0ffh,w
  5695  002C32  0A80               	xorlw	80h
  5696  002C34  0101               	movlb	1	; () banked
  5697  002C36  5955               	subwfb	(??_sprintf+42+0)&0ffh,w
  5698  002C38  B0D8               	btfsc	status,0
  5699  002C3A  D001               	goto	u6231
  5700  002C3C  D001               	goto	u6230
  5701  002C3E                     u6231:
  5702  002C3E  D00D               	goto	l360
  5703  002C40                     u6230:
  5704                           	line	1344
  5705                           ;doprnt.c: 1344: width -= prec;
  5706  002C40  0101               	movlb	1	; () banked
  5707  002C42  0101               	movlb	1	; () banked
  5708  002C44  5144               	movf	((sprintf@prec))&0ffh,w
  5709  002C46  0101               	movlb	1	; () banked
  5710  002C48  0101               	movlb	1	; () banked
  5711  002C4A  5F42               	subwf	((sprintf@width))&0ffh
  5712  002C4C  0101               	movlb	1	; () banked
  5713  002C4E  0101               	movlb	1	; () banked
  5714  002C50  5145               	movf	((sprintf@prec+1))&0ffh,w
  5715  002C52  0101               	movlb	1	; () banked
  5716  002C54  0101               	movlb	1	; () banked
  5717  002C56  5B43               	subwfb	((sprintf@width+1))&0ffh
  5718                           
  5719  002C58  D007               	goto	l359
  5720                           	line	1345
  5721                           	
  5722  002C5A                     l360:		; BSR set to: ?
  5723                           
  5724                           	line	1346
  5725                           ;doprnt.c: 1345: else
  5726                           ;doprnt.c: 1346: width = 0;
  5727  002C5A  0E00               	movlw	low(0)
  5728  002C5C  0101               	movlb	1	; () banked
  5729  002C5E  0101               	movlb	1	; () banked
  5730  002C60  6F42               	movwf	((sprintf@width))&0ffh
  5731  002C62  0E00               	movlw	high(0)
  5732  002C64  0101               	movlb	1	; () banked
  5733  002C66  6F43               	movwf	((sprintf@width+1))&0ffh
  5734                           	
  5735  002C68                     l361:		; BSR set to: ?
  5736                           
  5737                           	line	1347
  5738                           	
  5739  002C68                     l359:		; BSR set to: ?
  5740                           
  5741                           	line	1364
  5742                           ;doprnt.c: 1347: }
  5743                           ;doprnt.c: 1364: if(flag & 0x800) {
  5744  002C68  0101               	movlb	1	; () banked
  5745                           	
  5746  002C6A  0101               	movlb	1	; () banked
  5747  002C6C  A747               	btfss	((sprintf@flag+1))&0ffh,(11)&7
  5748  002C6E  D001               	goto	u6241
  5749  002C70  D001               	goto	u6240
  5750  002C72                     u6241:
  5751  002C72  D01B               	goto	l362
  5752  002C74                     u6240:
  5753                           	line	1366
  5754                           ;doprnt.c: 1366: if(width > 2)
  5755  002C74  0101               	movlb	1	; () banked
  5756  002C76  0101               	movlb	1	; () banked
  5757  002C78  5143               	movf	((sprintf@width+1))&0ffh,w
  5758  002C7A  0A80               	xorlw	80h
  5759  002C7C  0F80               	addlw	-((0)^80h)
  5760  002C7E  0E03               	movlw	03h
  5761  002C80  B4D8               	btfsc	status,2
  5762  002C82  5D42               	subwf	((sprintf@width))&0ffh,w
  5763  002C84  A0D8               	btfss	status,0
  5764  002C86  D001               	goto	u6251
  5765  002C88  D001               	goto	u6250
  5766  002C8A                     u6251:
  5767  002C8A  D008               	goto	l363
  5768  002C8C                     u6250:
  5769                           	line	1367
  5770                           ;doprnt.c: 1367: width -= 2;
  5771  002C8C  0101               	movlb	1	; () banked
  5772  002C8E  0EFE               	movlw	low(-2)
  5773  002C90  0101               	movlb	1	; () banked
  5774  002C92  2742               	addwf	((sprintf@width))&0ffh
  5775  002C94  0EFF               	movlw	high(-2)
  5776  002C96  0101               	movlb	1	; () banked
  5777  002C98  2343               	addwfc	((sprintf@width+1))&0ffh
  5778  002C9A  D007               	goto	l362
  5779                           	line	1368
  5780                           	
  5781  002C9C                     l363:		; BSR set to: ?
  5782                           
  5783                           	line	1369
  5784                           ;doprnt.c: 1368: else
  5785                           ;doprnt.c: 1369: width = 0;
  5786  002C9C  0E00               	movlw	low(0)
  5787  002C9E  0101               	movlb	1	; () banked
  5788  002CA0  0101               	movlb	1	; () banked
  5789  002CA2  6F42               	movwf	((sprintf@width))&0ffh
  5790  002CA4  0E00               	movlw	high(0)
  5791  002CA6  0101               	movlb	1	; () banked
  5792  002CA8  6F43               	movwf	((sprintf@width+1))&0ffh
  5793                           	
  5794  002CAA                     l364:		; BSR set to: ?
  5795                           
  5796                           	line	1370
  5797                           	
  5798  002CAA                     l362:		; BSR set to: ?
  5799                           
  5800                           	line	1375
  5801                           ;doprnt.c: 1370: }
  5802                           ;doprnt.c: 1375: if(width > c)
  5803  002CAA  0E80               	movlw	080h
  5804  002CAC  0101               	movlb	1	; () banked
  5805  002CAE  0101               	movlb	1	; () banked
  5806  002CB0  BF3D               	btfsc	((sprintf@c))&0ffh,7
  5807  002CB2  0E7F               	movlw	07fh
  5808  002CB4  6F55               	movwf	(??_sprintf+42+0)&0ffh
  5809  002CB6  0101               	movlb	1	; () banked
  5810  002CB8  0101               	movlb	1	; () banked
  5811  002CBA  5142               	movf	((sprintf@width))&0ffh,w
  5812  002CBC  0101               	movlb	1	; () banked
  5813  002CBE  0101               	movlb	1	; () banked
  5814  002CC0  5D3D               	subwf	((sprintf@c))&0ffh,w
  5815  002CC2  0101               	movlb	1	; () banked
  5816  002CC4  0101               	movlb	1	; () banked
  5817  002CC6  5143               	movf	((sprintf@width+1))&0ffh,w
  5818  002CC8  0A80               	xorlw	80h
  5819  002CCA  0101               	movlb	1	; () banked
  5820  002CCC  5955               	subwfb	(??_sprintf+42+0)&0ffh,w
  5821  002CCE  B0D8               	btfsc	status,0
  5822  002CD0  D001               	goto	u6261
  5823  002CD2  D001               	goto	u6260
  5824  002CD4                     u6261:
  5825  002CD4  D00E               	goto	l365
  5826  002CD6                     u6260:
  5827                           	line	1376
  5828                           ;doprnt.c: 1376: width -= c;
  5829  002CD6  0101               	movlb	1	; () banked
  5830  002CD8  0101               	movlb	1	; () banked
  5831  002CDA  513D               	movf	((sprintf@c))&0ffh,w
  5832  002CDC  0101               	movlb	1	; () banked
  5833  002CDE  0101               	movlb	1	; () banked
  5834  002CE0  5F42               	subwf	((sprintf@width))&0ffh
  5835  002CE2  0E00               	movlw	0
  5836  002CE4  0101               	movlb	1	; () banked
  5837  002CE6  BF3D               	btfsc	((sprintf@c))&0ffh,7
  5838  002CE8  0EFF               	movlw	0ffh
  5839  002CEA  0101               	movlb	1	; () banked
  5840  002CEC  0101               	movlb	1	; () banked
  5841  002CEE  5B43               	subwfb	((sprintf@width+1))&0ffh
  5842                           
  5843  002CF0  D007               	goto	l366
  5844                           	line	1377
  5845                           	
  5846  002CF2                     l365:		; BSR set to: ?
  5847                           
  5848                           	line	1378
  5849                           ;doprnt.c: 1377: else
  5850                           ;doprnt.c: 1378: width = 0;
  5851  002CF2  0E00               	movlw	low(0)
  5852  002CF4  0101               	movlb	1	; () banked
  5853  002CF6  0101               	movlb	1	; () banked
  5854  002CF8  6F42               	movwf	((sprintf@width))&0ffh
  5855  002CFA  0E00               	movlw	high(0)
  5856  002CFC  0101               	movlb	1	; () banked
  5857  002CFE  6F43               	movwf	((sprintf@width+1))&0ffh
  5858                           	
  5859  002D00                     l366:		; BSR set to: ?
  5860                           
  5861                           	line	1422
  5862                           ;doprnt.c: 1416: {
  5863                           ;doprnt.c: 1418: if(width
  5864                           ;doprnt.c: 1420: && !(flag & 0x08)
  5865                           ;doprnt.c: 1422: )
  5866  002D00  0101               	movlb	1	; () banked
  5867  002D02  0101               	movlb	1	; () banked
  5868  002D04  5143               	movf	((sprintf@width+1))&0ffh,w
  5869  002D06  1142               	iorwf ((sprintf@width))&0ffh,w
  5870                           
  5871  002D08  B4D8               	btfsc	status,2
  5872  002D0A  D001               	goto	u6271
  5873  002D0C  D001               	goto	u6270
  5874  002D0E                     u6271:
  5875  002D0E  D01C               	goto	l367
  5876  002D10                     u6270:
  5877  002D10  0101               	movlb	1	; () banked
  5878                           	
  5879  002D12  0101               	movlb	1	; () banked
  5880  002D14  B746               	btfsc	((sprintf@flag))&0ffh,(3)&7
  5881  002D16  D001               	goto	u6281
  5882  002D18  D001               	goto	u6280
  5883  002D1A                     u6281:
  5884  002D1A  D016               	goto	l367
  5885  002D1C                     u6280:
  5886                           	line	1423
  5887                           ;doprnt.c: 1423: do
  5888                           	
  5889  002D1C                     l370:		; BSR set to: ?
  5890                           
  5891                           	line	1424
  5892  002D1C  C122  FFE9         	movff	(sprintf@sp),fsr0l
  5893  002D20  C123  FFEA         	movff	(sprintf@sp+1),fsr0h
  5894  002D24  0E20               	movlw	low(020h)
  5895  002D26  6EEF               	movwf	indf0
  5896                           ;doprnt.c: 1424: ((*sp++ = (' ')));
  5897  002D28  0101               	movlb	1	; () banked
  5898  002D2A  0101               	movlb	1	; () banked
  5899  002D2C  4B22               	infsnz	((sprintf@sp))&0ffh
  5900  002D2E  2B23               	incf	((sprintf@sp+1))&0ffh
  5901                           	line	1425
  5902                           ;doprnt.c: 1425: while(--width);
  5903  002D30  0101               	movlb	1	; () banked
  5904  002D32  0101               	movlb	1	; () banked
  5905  002D34  0742               	decf	((sprintf@width))&0ffh
  5906  002D36  A0D8               	btfss	status,0
  5907  002D38  0743               	decf	((sprintf@width+1))&0ffh
  5908  002D3A  0101               	movlb	1	; () banked
  5909  002D3C  5143               	movf	((sprintf@width+1))&0ffh,w
  5910  002D3E  1142               	iorwf ((sprintf@width))&0ffh,w
  5911                           
  5912  002D40  A4D8               	btfss	status,2
  5913  002D42  D001               	goto	u6291
  5914  002D44  D001               	goto	u6290
  5915  002D46                     u6291:
  5916  002D46  D7EA               	goto	l370
  5917  002D48                     u6290:
  5918                           	
  5919  002D48                     l369:		; BSR set to: ?
  5920                           
  5921                           	
  5922  002D48                     l367:		; BSR set to: ?
  5923                           
  5924                           	line	1428
  5925                           ;doprnt.c: 1428: if(flag & 0x02)
  5926  002D48  0101               	movlb	1	; () banked
  5927                           	
  5928  002D4A  0101               	movlb	1	; () banked
  5929  002D4C  A346               	btfss	((sprintf@flag))&0ffh,(1)&7
  5930  002D4E  D001               	goto	u6301
  5931  002D50  D001               	goto	u6300
  5932  002D52                     u6301:
  5933  002D52  D022               	goto	l371
  5934  002D54                     u6300:
  5935                           	line	1429
  5936                           ;doprnt.c: 1429: ((*sp++ = (flag & 0x01 ? '-' : 
                                 '+')));
  5937  002D54  0101               	movlb	1	; () banked
  5938  002D56  6F55               	movwf	(??_sprintf+42+0)&0ffh
  5939  002D58  0E2B               	movlw	low(02Bh)
  5940  002D5A  0101               	movlb	1	; () banked
  5941  002D5C  0101               	movlb	1	; () banked
  5942  002D5E  6F3C               	movwf	((_sprintf$1202))&0ffh
  5943  002D60  0101               	movlb	1	; () banked
  5944  002D62  5155               	movf	(??_sprintf+42+0)&0ffh,w
  5945  002D64  0101               	movlb	1	; () banked
  5946                           	
  5947  002D66  0101               	movlb	1	; () banked
  5948  002D68  A146               	btfss	((sprintf@flag))&0ffh,(0)&7
  5949  002D6A  D001               	goto	u6311
  5950  002D6C  D001               	goto	u6310
  5951  002D6E                     u6311:
  5952  002D6E  D008               	goto	l500000700
  5953  002D70                     u6310:
  5954  002D70  0101               	movlb	1	; () banked
  5955  002D72  6F55               	movwf	(??_sprintf+42+0)&0ffh
  5956  002D74  0E2D               	movlw	low(02Dh)
  5957  002D76  0101               	movlb	1	; () banked
  5958  002D78  0101               	movlb	1	; () banked
  5959  002D7A  6F3C               	movwf	((_sprintf$1202))&0ffh
  5960  002D7C  0101               	movlb	1	; () banked
  5961  002D7E  5155               	movf	(??_sprintf+42+0)&0ffh,w
  5962                           	
  5963  002D80                     l500000700:		; BSR set to: ?
  5964                           
  5965  002D80  C122  FFE9         	movff	(sprintf@sp),fsr0l
  5966  002D84  C123  FFEA         	movff	(sprintf@sp+1),fsr0h
  5967  002D88  0101               	movlb	1	; () banked
  5968  002D8A  C13C  FFEF         	movff	(_sprintf$1202),indf0
  5969                           
  5970  002D8E  0101               	movlb	1	; () banked
  5971  002D90  0101               	movlb	1	; () banked
  5972  002D92  4B22               	infsnz	((sprintf@sp))&0ffh
  5973  002D94  2B23               	incf	((sprintf@sp+1))&0ffh
  5974  002D96  D010               	goto	l372
  5975                           	line	1437
  5976                           	
  5977  002D98                     l371:		; BSR set to: ?
  5978                           
  5979                           ;doprnt.c: 1437: else if(flag & 0x01)
  5980  002D98  0101               	movlb	1	; () banked
  5981                           	
  5982  002D9A  0101               	movlb	1	; () banked
  5983  002D9C  A146               	btfss	((sprintf@flag))&0ffh,(0)&7
  5984  002D9E  D001               	goto	u6321
  5985  002DA0  D001               	goto	u6320
  5986  002DA2                     u6321:
  5987  002DA2  D00A               	goto	l372
  5988  002DA4                     u6320:
  5989                           	line	1438
  5990  002DA4  C122  FFE9         	movff	(sprintf@sp),fsr0l
  5991  002DA8  C123  FFEA         	movff	(sprintf@sp+1),fsr0h
  5992  002DAC  0E20               	movlw	low(020h)
  5993  002DAE  6EEF               	movwf	indf0
  5994                           ;doprnt.c: 1438: ((*sp++ = (' ')));
  5995  002DB0  0101               	movlb	1	; () banked
  5996  002DB2  0101               	movlb	1	; () banked
  5997  002DB4  4B22               	infsnz	((sprintf@sp))&0ffh
  5998  002DB6  2B23               	incf	((sprintf@sp+1))&0ffh
  5999                           	
  6000  002DB8                     l373:		; BSR set to: ?
  6001                           
  6002                           	line	1450
  6003                           	
  6004  002DB8                     l372:		; BSR set to: ?
  6005                           
  6006                           ;doprnt.c: 1450: if(flag & 0x800) {
  6007  002DB8  0101               	movlb	1	; () banked
  6008                           	
  6009  002DBA  0101               	movlb	1	; () banked
  6010  002DBC  A747               	btfss	((sprintf@flag+1))&0ffh,(11)&7
  6011  002DBE  D001               	goto	u6331
  6012  002DC0  D001               	goto	u6330
  6013  002DC2                     u6331:
  6014  002DC2  D014               	goto	l374
  6015  002DC4                     u6330:
  6016                           	line	1452
  6017  002DC4  C122  FFE9         	movff	(sprintf@sp),fsr0l
  6018  002DC8  C123  FFEA         	movff	(sprintf@sp+1),fsr0h
  6019  002DCC  0E30               	movlw	low(030h)
  6020  002DCE  6EEF               	movwf	indf0
  6021                           ;doprnt.c: 1452: ((*sp++ = ('0')));
  6022  002DD0  0101               	movlb	1	; () banked
  6023  002DD2  0101               	movlb	1	; () banked
  6024  002DD4  4B22               	infsnz	((sprintf@sp))&0ffh
  6025  002DD6  2B23               	incf	((sprintf@sp+1))&0ffh
  6026                           	line	1458
  6027  002DD8  C122  FFE9         	movff	(sprintf@sp),fsr0l
  6028  002DDC  C123  FFEA         	movff	(sprintf@sp+1),fsr0h
  6029  002DE0  0E78               	movlw	low(078h)
  6030  002DE2  6EEF               	movwf	indf0
  6031                           ;doprnt.c: 1458: ((*sp++ = ('x')));
  6032  002DE4  0101               	movlb	1	; () banked
  6033  002DE6  0101               	movlb	1	; () banked
  6034  002DE8  4B22               	infsnz	((sprintf@sp))&0ffh
  6035  002DEA  2B23               	incf	((sprintf@sp+1))&0ffh
  6036                           	line	1460
  6037                           	
  6038  002DEC                     l374:		; BSR set to: ?
  6039                           
  6040                           	line	1468
  6041                           ;doprnt.c: 1460: }
  6042                           ;doprnt.c: 1463: }
  6043                           ;doprnt.c: 1468: while(prec--) {
  6044  002DEC  D04A               	goto	l375
  6045                           	
  6046  002DEE                     l376:		; BSR set to: ?
  6047                           
  6048                           	line	1498
  6049                           ;doprnt.c: 1472: {
  6050                           ;doprnt.c: 1498: c = "0123456789abcdef"[(_val._v
                                 al / hexpowers[prec]) & 0xF];
  6051  002DEE  C144  F155         	movff	(sprintf@prec),??_sprintf+42+0
  6052  002DF2  90D8               	bcf	status,0
  6053  002DF4  0101               	movlb	1	; () banked
  6054  002DF6  3755               	rlcf	(??_sprintf+42+0)&0ffh
  6055  002DF8  90D8               	bcf	status,0
  6056  002DFA  0101               	movlb	1	; () banked
  6057  002DFC  3755               	rlcf	(??_sprintf+42+0)&0ffh
  6058                           
  6059  002DFE  0E77               	movlw	low((_hexpowers))
  6060  002E00  0101               	movlb	1	; () banked
  6061  002E02  2555               	addwf	(??_sprintf+42+0)&0ffh,w
  6062  002E04  6EF6               	movwf	tblptrl
  6063  002E06  6AF7               	clrf	tblptrh
  6064  002E08  0E10               	movlw	high((_hexpowers))
  6065  002E0A  22F7               	addwfc	tblptrh
  6066  002E0C  6AF8               	clrf	tblptru
  6067  002E0E  0E00               	movlw	low highword(__mediumconst)
  6068  002E10  22F8               	addwfc	tblptru
  6069  002E12  0009               	tblrd*+
  6070                           	
  6071  002E14  0101               	movlb	1	; () banked
  6072  002E16  CFF5 F15F          	movff	tablat,0+(?___lldiv+04h)
  6073  002E1A  0009               	tblrd*+
  6074                           	
  6075  002E1C  0101               	movlb	1	; () banked
  6076  002E1E  CFF5 F160          	movff	tablat,1+(?___lldiv+04h)
  6077  002E22  0009               	tblrd*+
  6078                           	
  6079  002E24  0101               	movlb	1	; () banked
  6080  002E26  CFF5 F161          	movff	tablat,2+(?___lldiv+04h)
  6081  002E2A  000A               	tblrd*-
  6082                           	
  6083  002E2C  0101               	movlb	1	; () banked
  6084  002E2E  CFF5 F162          	movff	tablat,3+(?___lldiv+04h)
  6085  002E32  C14E  F15B         	movff	(sprintf@_val),(?___lldiv)
  6086  002E36  C14F  F15C         	movff	(sprintf@_val+1),(?___lldiv+1)
  6087  002E3A  C150  F15D         	movff	(sprintf@_val+2),(?___lldiv+2)
  6088  002E3E  C151  F15E         	movff	(sprintf@_val+3),(?___lldiv+3)
  6089  002E42  ECAD  F025         	call	___lldiv	;wreg free
  6090  002E46  0E0F               	movlw	0Fh
  6091  002E48  0101               	movlb	1	; () banked
  6092  002E4A  0101               	movlb	1	; () banked
  6093  002E4C  175B               	andwf	(0+?___lldiv)&0ffh
  6094  002E4E  0E97               	movlw	low((STR_3))
  6095  002E50  0101               	movlb	1	; () banked
  6096  002E52  0101               	movlb	1	; () banked
  6097  002E54  255B               	addwf	(0+?___lldiv)&0ffh,w
  6098  002E56  6EF6               	movwf	tblptrl
  6099  002E58  6AF7               	clrf	tblptrh
  6100  002E5A  0E10               	movlw	high((STR_3))
  6101  002E5C  22F7               	addwfc	tblptrh
  6102  002E5E  6AF8               	clrf	tblptru
  6103  002E60  0E00               	movlw	low highword(__mediumconst)
  6104  002E62  22F8               	addwfc	tblptru
  6105  002E64  0008               	tblrd	*
  6106                           	
  6107  002E66  0101               	movlb	1	; () banked
  6108  002E68  CFF5 F13D          	movff	tablat,(sprintf@c)
  6109                           	line	1515
  6110  002E6C  C122  FFE9         	movff	(sprintf@sp),fsr0l
  6111  002E70  C123  FFEA         	movff	(sprintf@sp+1),fsr0h
  6112  002E74  0101               	movlb	1	; () banked
  6113  002E76  C13D  FFEF         	movff	(sprintf@c),indf0
  6114                           
  6115                           ;doprnt.c: 1514: }
  6116                           ;doprnt.c: 1515: ((*sp++ = (c)));
  6117  002E7A  0101               	movlb	1	; () banked
  6118  002E7C  0101               	movlb	1	; () banked
  6119  002E7E  4B22               	infsnz	((sprintf@sp))&0ffh
  6120  002E80  2B23               	incf	((sprintf@sp+1))&0ffh
  6121                           	line	1516
  6122                           	
  6123  002E82                     l375:		; BSR set to: ?
  6124                           
  6125                           	line	1468
  6126  002E82  0101               	movlb	1	; () banked
  6127  002E84  0101               	movlb	1	; () banked
  6128  002E86  0744               	decf	((sprintf@prec))&0ffh
  6129  002E88  A0D8               	btfss	status,0
  6130  002E8A  0745               	decf	((sprintf@prec+1))&0ffh
  6131  002E8C  0101               	movlb	1	; () banked
  6132  002E8E  2944               	incf	((sprintf@prec))&0ffh,w
  6133  002E90  B4D8               	btfsc	status,2
  6134  002E92  2945               	incf ((sprintf@prec+1))&0ffh,w
  6135                           
  6136  002E94  A4D8               	btfss	status,2
  6137  002E96  D001               	goto	u6341
  6138  002E98  D001               	goto	u6340
  6139  002E9A                     u6341:
  6140  002E9A  D7A9               	goto	l376
  6141  002E9C                     u6340:
  6142                           	
  6143  002E9C                     l377:		; BSR set to: ?
  6144                           
  6145                           	line	1519
  6146                           ;doprnt.c: 1516: }
  6147                           ;doprnt.c: 1519: if((flag & 0x08) && width > 0)
  6148  002E9C  0101               	movlb	1	; () banked
  6149                           	
  6150  002E9E  0101               	movlb	1	; () banked
  6151  002EA0  A746               	btfss	((sprintf@flag))&0ffh,(3)&7
  6152  002EA2  D001               	goto	u6351
  6153  002EA4  D001               	goto	u6350
  6154  002EA6                     u6351:
  6155  002EA6  D022               	goto	l198
  6156  002EA8                     u6350:
  6157  002EA8  0101               	movlb	1	; () banked
  6158  002EAA  0101               	movlb	1	; () banked
  6159  002EAC  5143               	movf	((sprintf@width+1))&0ffh,w
  6160  002EAE  0A80               	xorlw	80h
  6161  002EB0  0F80               	addlw	-((0)^80h)
  6162  002EB2  0E01               	movlw	01h
  6163  002EB4  B4D8               	btfsc	status,2
  6164  002EB6  5D42               	subwf	((sprintf@width))&0ffh,w
  6165  002EB8  A0D8               	btfss	status,0
  6166  002EBA  D001               	goto	u6361
  6167  002EBC  D001               	goto	u6360
  6168  002EBE                     u6361:
  6169  002EBE  D016               	goto	l198
  6170  002EC0                     u6360:
  6171                           	line	1520
  6172                           ;doprnt.c: 1520: do
  6173                           	
  6174  002EC0                     l381:		; BSR set to: ?
  6175                           
  6176                           	line	1521
  6177  002EC0  C122  FFE9         	movff	(sprintf@sp),fsr0l
  6178  002EC4  C123  FFEA         	movff	(sprintf@sp+1),fsr0h
  6179  002EC8  0E20               	movlw	low(020h)
  6180  002ECA  6EEF               	movwf	indf0
  6181                           ;doprnt.c: 1521: ((*sp++ = (' ')));
  6182  002ECC  0101               	movlb	1	; () banked
  6183  002ECE  0101               	movlb	1	; () banked
  6184  002ED0  4B22               	infsnz	((sprintf@sp))&0ffh
  6185  002ED2  2B23               	incf	((sprintf@sp+1))&0ffh
  6186                           	line	1522
  6187                           ;doprnt.c: 1522: while(--width);
  6188  002ED4  0101               	movlb	1	; () banked
  6189  002ED6  0101               	movlb	1	; () banked
  6190  002ED8  0742               	decf	((sprintf@width))&0ffh
  6191  002EDA  A0D8               	btfss	status,0
  6192  002EDC  0743               	decf	((sprintf@width+1))&0ffh
  6193  002EDE  0101               	movlb	1	; () banked
  6194  002EE0  5143               	movf	((sprintf@width+1))&0ffh,w
  6195  002EE2  1142               	iorwf ((sprintf@width))&0ffh,w
  6196                           
  6197  002EE4  A4D8               	btfss	status,2
  6198  002EE6  D001               	goto	u6371
  6199  002EE8  D001               	goto	u6370
  6200  002EEA                     u6371:
  6201  002EEA  D7EA               	goto	l381
  6202  002EEC                     u6370:
  6203                           	
  6204  002EEC                     l380:		; BSR set to: ?
  6205                           
  6206                           	
  6207  002EEC                     l378:		; BSR set to: ?
  6208                           
  6209                           	line	1524
  6210                           	
  6211  002EEC                     l198:		; BSR set to: ?
  6212                           
  6213                           	line	544
  6214  002EEC  0101               	movlb	1	; () banked
  6215  002EEE  0101               	movlb	1	; () banked
  6216  002EF0  5124               	movf	((sprintf@f))&0ffh,w
  6217  002EF2  0101               	movlb	1	; () banked
  6218  002EF4  6F55               	movwf	(??_sprintf+42+0)&0ffh
  6219  002EF6  0101               	movlb	1	; () banked
  6220  002EF8  0101               	movlb	1	; () banked
  6221  002EFA  5125               	movf	((sprintf@f+1))&0ffh,w
  6222  002EFC  0101               	movlb	1	; () banked
  6223  002EFE  6F56               	movwf	1+(??_sprintf+42+0)&0ffh
  6224  002F00  0101               	movlb	1	; () banked
  6225  002F02  4B24               	infsnz	((sprintf@f))&0ffh
  6226  002F04  2B25               	incf	((sprintf@f+1))&0ffh
  6227  002F06  C155  FFF6         	movff	??_sprintf+42+0,tblptrl
  6228  002F0A  C156  FFF7         	movff	??_sprintf+42+1,tblptrh
  6229  002F0E  0E00               	movlw	low highword(__mediumconst)
  6230  002F10  6EF8               	movwf	tblptru
  6231  002F12  0008               	tblrd	*
  6232                           	
  6233  002F14  0101               	movlb	1	; () banked
  6234  002F16  CFF5 F13D          	movff	tablat,(sprintf@c)
  6235  002F1A  0101               	movlb	1	; () banked
  6236  002F1C  673D               	tstfsz	((sprintf@c))&0ffh
  6237  002F1E  D001               	goto	u6381
  6238  002F20  D002               	goto	u6380
  6239  002F22                     u6381:
  6240  002F22  EF65  F008         	goto	l199
  6241  002F26                     u6380:
  6242                           	
  6243  002F26                     l200:		; BSR set to: ?
  6244                           
  6245                           	line	1526
  6246                           ;doprnt.c: 1524: }
  6247                           ;doprnt.c: 1526: alldone:
  6248                           	
  6249  002F26                     l224:		; BSR set to: ?
  6250                           
  6251                           	line	1529
  6252                           ;doprnt.c: 1529: *sp = 0;
  6253  002F26  C122  FFE9         	movff	(sprintf@sp),fsr0l
  6254  002F2A  C123  FFEA         	movff	(sprintf@sp+1),fsr0h
  6255  002F2E  0E00               	movlw	low(0)
  6256  002F30  6EEF               	movwf	indf0
  6257                           	line	1531
  6258  002F32  D000               	goto	l197
  6259                           	line	1532
  6260                           ;doprnt.c: 1532: }
  6261  002F34                     l197:
  6262                           			; BSR set to: ?
  6263                           
  6264  002F34  0012               	return
  6265                           	opt stack 0
  6266                           GLOBAL __end_of_sprintf
  6267  002F36                     	__end_of_sprintf:
  6268                           	FNSIZE	_sprintf,48,9
  6269                           ; =============== function _sprintf ends =======
                                 =====
  6270                           
  6271                           	signat	_sprintf,4698
  6272                           	global	_LCD_Init
  6273                           	global	??_LCD_Init
  6274                           	global	?_LCD_Init
  6275                                   psect   text4,class=CODE,space=0,reloc=2
  6276                           
  6277                           	opt lm
  6278                           	file	"C:\Users\leeee\Desktop\Desktop\School\Col
                                 lege\4th Year\Semester 2\Embedded Systems\HW\HW1
                                 0\lcd_portd.c"
  6279                           	line	73
  6280  000000                     	__size_of_LCD_Init	equ	__end_of_LCD_Init-_LCD_I
                                 nit
  6281                           ;lcd_portd.c: 72: void LCD_Init(void)
  6282                           ;lcd_portd.c: 73: {
  6283                           	
  6284  00517A                     _LCD_Init:		; BSR set to: ?
  6285                           
  6286                           	opt stack 29
  6287                           	line	74
  6288                           ;lcd_portd.c: 74: TRISD = 0x01;
  6289  00517A  0E01               	movlw	low(01h)
  6290  00517C  6E95               	movwf	((c:3989)),c	;volatile
  6291                           	line	75
  6292                           ;lcd_portd.c: 75: RD1 = 0;
  6293  00517E  9283               	bcf	c:(31769/8),(31769)&7	;volatile
  6294                           	line	76
  6295                           ;lcd_portd.c: 76: LCD_Inst(0x33);
  6296  005180  0101               	movlb	1	; () banked
  6297  005182  6F22               	movwf	(??_LCD_Init+0+0)&0ffh
  6298  005184  0E33               	movlw	low(033h)
  6299  005186  0101               	movlb	1	; () banked
  6300  005188  0101               	movlb	1	; () banked
  6301  00518A  6F24               	movwf	((?_LCD_Inst))&0ffh
  6302  00518C  0101               	movlb	1	; () banked
  6303  00518E  5122               	movf	(??_LCD_Init+0+0)&0ffh,w
  6304  005190  ECBA  F029         	call	_LCD_Inst	;wreg free
  6305                           	line	77
  6306                           ;lcd_portd.c: 77: LCD_Inst(0x32);
  6307  005194  0101               	movlb	1	; () banked
  6308  005196  6F22               	movwf	(??_LCD_Init+0+0)&0ffh
  6309  005198  0E32               	movlw	low(032h)
  6310  00519A  0101               	movlb	1	; () banked
  6311  00519C  0101               	movlb	1	; () banked
  6312  00519E  6F24               	movwf	((?_LCD_Inst))&0ffh
  6313  0051A0  0101               	movlb	1	; () banked
  6314  0051A2  5122               	movf	(??_LCD_Init+0+0)&0ffh,w
  6315  0051A4  ECBA  F029         	call	_LCD_Inst	;wreg free
  6316                           	line	78
  6317                           ;lcd_portd.c: 78: LCD_Inst(0x28);
  6318  0051A8  0101               	movlb	1	; () banked
  6319  0051AA  6F22               	movwf	(??_LCD_Init+0+0)&0ffh
  6320  0051AC  0E28               	movlw	low(028h)
  6321  0051AE  0101               	movlb	1	; () banked
  6322  0051B0  0101               	movlb	1	; () banked
  6323  0051B2  6F24               	movwf	((?_LCD_Inst))&0ffh
  6324  0051B4  0101               	movlb	1	; () banked
  6325  0051B6  5122               	movf	(??_LCD_Init+0+0)&0ffh,w
  6326  0051B8  ECBA  F029         	call	_LCD_Inst	;wreg free
  6327                           	line	79
  6328                           ;lcd_portd.c: 79: LCD_Inst(0x0E);
  6329  0051BC  0101               	movlb	1	; () banked
  6330  0051BE  6F22               	movwf	(??_LCD_Init+0+0)&0ffh
  6331  0051C0  0E0E               	movlw	low(0Eh)
  6332  0051C2  0101               	movlb	1	; () banked
  6333  0051C4  0101               	movlb	1	; () banked
  6334  0051C6  6F24               	movwf	((?_LCD_Inst))&0ffh
  6335  0051C8  0101               	movlb	1	; () banked
  6336  0051CA  5122               	movf	(??_LCD_Init+0+0)&0ffh,w
  6337  0051CC  ECBA  F029         	call	_LCD_Inst	;wreg free
  6338                           	line	80
  6339                           ;lcd_portd.c: 80: LCD_Inst(0x01);
  6340  0051D0  0101               	movlb	1	; () banked
  6341  0051D2  6F22               	movwf	(??_LCD_Init+0+0)&0ffh
  6342  0051D4  0E01               	movlw	low(01h)
  6343  0051D6  0101               	movlb	1	; () banked
  6344  0051D8  0101               	movlb	1	; () banked
  6345  0051DA  6F24               	movwf	((?_LCD_Inst))&0ffh
  6346  0051DC  0101               	movlb	1	; () banked
  6347  0051DE  5122               	movf	(??_LCD_Init+0+0)&0ffh,w
  6348  0051E0  ECBA  F029         	call	_LCD_Inst	;wreg free
  6349                           	line	81
  6350                           ;lcd_portd.c: 81: LCD_Inst(0x06);
  6351  0051E4  0101               	movlb	1	; () banked
  6352  0051E6  6F22               	movwf	(??_LCD_Init+0+0)&0ffh
  6353  0051E8  0E06               	movlw	low(06h)
  6354  0051EA  0101               	movlb	1	; () banked
  6355  0051EC  0101               	movlb	1	; () banked
  6356  0051EE  6F24               	movwf	((?_LCD_Inst))&0ffh
  6357  0051F0  0101               	movlb	1	; () banked
  6358  0051F2  5122               	movf	(??_LCD_Init+0+0)&0ffh,w
  6359  0051F4  ECBA  F029         	call	_LCD_Inst	;wreg free
  6360                           	line	82
  6361                           ;lcd_portd.c: 82: Wait_ms(100);
  6362  0051F8  0E64               	movlw	low(064h)
  6363  0051FA  0101               	movlb	1	; () banked
  6364  0051FC  0101               	movlb	1	; () banked
  6365  0051FE  6F26               	movwf	((?_Wait_ms))&0ffh
  6366  005200  0E00               	movlw	high(064h)
  6367  005202  0101               	movlb	1	; () banked
  6368  005204  6F27               	movwf	((?_Wait_ms+1))&0ffh
  6369  005206  EC48  F029         	call	_Wait_ms	;wreg free
  6370                           	line	83
  6371                           ;lcd_portd.c: 83: }
  6372  00520A                     l134:
  6373                           			; BSR set to: ?
  6374                           
  6375  00520A  0012               	return
  6376                           	opt stack 0
  6377                           GLOBAL __end_of_LCD_Init
  6378  00520C                     	__end_of_LCD_Init:
  6379                           	FNSIZE	_LCD_Init,1,0
  6380                           ; =============== function _LCD_Init ends ======
                                 ======
  6381                           
  6382                           	signat	_LCD_Init,88
  6383                           	global	_scale
  6384                           	global	??_scale
  6385                           	global	?_scale
  6386                                   psect   text5,class=CODE,space=0,reloc=2
  6387                           
  6388                           	opt lm
  6389                           	file	"C:\Program Files (x86)\HI-TECH Software\P
                                 ICC-18\PRO\9.63\lib\doprnt.c"
  6390                           	line	426
  6391  000000                     	__size_of_scale	equ	__end_of_scale-_scale
  6392                           ;doprnt.c: 424: static double
  6393                           ;doprnt.c: 425: scale(signed char scl)
  6394                           ;doprnt.c: 426: {
  6395                           	
  6396  002F36                     _scale:		; BSR set to: ?
  6397                           
  6398                           	opt stack 28
  6399                           	line	428
  6400  002F36  0101               	movlb	1	; () banked
  6401  002F38  0101               	movlb	1	; () banked
  6402  002F3A  AF5B               	btfss	((scale@scl))&0ffh,7
  6403  002F3C  D001               	goto	u6391
  6404  002F3E  D001               	goto	u6390
  6405  002F40                     u6391:
  6406  002F40  D162               	goto	l188
  6407  002F42                     u6390:
  6408                           	line	429
  6409                           ;doprnt.c: 429: scl = -scl;
  6410  002F42  0101               	movlb	1	; () banked
  6411  002F44  0101               	movlb	1	; () banked
  6412  002F46  6D5B               	negf	((scale@scl))&0ffh
  6413                           	line	430
  6414                           ;doprnt.c: 430: if(scl>=110)
  6415  002F48  0101               	movlb	1	; () banked
  6416  002F4A  0101               	movlb	1	; () banked
  6417  002F4C  515B               	movf	((scale@scl))&0ffh,w
  6418  002F4E  0A80               	xorlw	80h
  6419  002F50  0F12               	addlw	-((06Eh)^80h)
  6420  002F52  A0D8               	btfss	status,0
  6421  002F54  D001               	goto	u6401
  6422  002F56  D001               	goto	u6400
  6423  002F58                     u6401:
  6424  002F58  D0C2               	goto	l189
  6425  002F5A                     u6400:
  6426                           	line	431
  6427  002F5A  0E64               	movlw	low(064h)
  6428  002F5C  0101               	movlb	1	; () banked
  6429  002F5E  0101               	movlb	1	; () banked
  6430  002F60  6F7C               	movwf	(0+(?___awdiv+02h))&0ffh
  6431  002F62  0E00               	movlw	high(064h)
  6432  002F64  0101               	movlb	1	; () banked
  6433  002F66  6F7D               	movwf	(1+(?___awdiv+02h))&0ffh
  6434  002F68  0101               	movlb	1	; () banked
  6435  002F6A  0101               	movlb	1	; () banked
  6436  002F6C  515B               	movf	((scale@scl))&0ffh,w
  6437  002F6E  0101               	movlb	1	; () banked
  6438  002F70  0101               	movlb	1	; () banked
  6439  002F72  6F7A               	movwf	((?___awdiv))&0ffh
  6440  002F74  0101               	movlb	1	; () banked
  6441  002F76  6B7B               	clrf	((?___awdiv+1))&0ffh
  6442  002F78  0101               	movlb	1	; () banked
  6443  002F7A  BF7A               	btfsc	((?___awdiv))&0ffh,7
  6444  002F7C  077B               	decf	((?___awdiv+1))&0ffh
  6445  002F7E  EC15  F025         	call	___awdiv	;wreg free
  6446  002F82  C17A  F15E         	movff	0+?___awdiv,(_scale$1210)
  6447  002F86  C17B  F15F         	movff	1+?___awdiv,(_scale$1210+1)
  6448  002F8A  0E64               	movlw	low(064h)
  6449  002F8C  0101               	movlb	1	; () banked
  6450  002F8E  0101               	movlb	1	; () banked
  6451  002F90  6F7C               	movwf	(0+(?___awmod+02h))&0ffh
  6452  002F92  0E00               	movlw	high(064h)
  6453  002F94  0101               	movlb	1	; () banked
  6454  002F96  6F7D               	movwf	(1+(?___awmod+02h))&0ffh
  6455  002F98  0101               	movlb	1	; () banked
  6456  002F9A  0101               	movlb	1	; () banked
  6457  002F9C  515B               	movf	((scale@scl))&0ffh,w
  6458  002F9E  0101               	movlb	1	; () banked
  6459  002FA0  0101               	movlb	1	; () banked
  6460  002FA2  6F7A               	movwf	((?___awmod))&0ffh
  6461  002FA4  0101               	movlb	1	; () banked
  6462  002FA6  6B7B               	clrf	((?___awmod+1))&0ffh
  6463  002FA8  0101               	movlb	1	; () banked
  6464  002FAA  BF7A               	btfsc	((?___awmod))&0ffh,7
  6465  002FAC  077B               	decf	((?___awmod+1))&0ffh
  6466  002FAE  EC38  F026         	call	___awmod	;wreg free
  6467  002FB2  C17A  F160         	movff	0+?___awmod,(_scale$1211)
  6468  002FB6  C17B  F161         	movff	1+?___awmod,(_scale$1211+1)
  6469  002FBA  C160  F17A         	movff	(_scale$1211),(?___awdiv)
  6470  002FBE  C161  F17B         	movff	(_scale$1211+1),(?___awdiv+1)
  6471  002FC2  0E0A               	movlw	low(0Ah)
  6472  002FC4  0101               	movlb	1	; () banked
  6473  002FC6  0101               	movlb	1	; () banked
  6474  002FC8  6F7C               	movwf	(0+(?___awdiv+02h))&0ffh
  6475  002FCA  0E00               	movlw	high(0Ah)
  6476  002FCC  0101               	movlb	1	; () banked
  6477  002FCE  6F7D               	movwf	(1+(?___awdiv+02h))&0ffh
  6478  002FD0  EC15  F025         	call	___awdiv	;wreg free
  6479  002FD4  C17A  F162         	movff	0+?___awdiv,(_scale$1212)
  6480  002FD8  C17B  F163         	movff	1+?___awdiv,(_scale$1212+1)
  6481  002FDC  0101               	movlb	1	; () banked
  6482  002FDE  0101               	movlb	1	; () banked
  6483  002FE0  5162               	movf	((_scale$1212))&0ffh,w
  6484  002FE2  0F09               	addlw	low(09h)
  6485  002FE4  0D03               	mullw	03h
  6486  002FE6  0E29               	movlw	low((__npowers_))
  6487  002FE8  24F3               	addwf	(prodl),c,w
  6488  002FEA  6EF6               	movwf	tblptrl
  6489  002FEC  6AF7               	clrf	tblptrh
  6490  002FEE  0E10               	movlw	high((__npowers_))
  6491  002FF0  22F7               	addwfc	tblptrh
  6492  002FF2  6AF8               	clrf	tblptru
  6493  002FF4  0E00               	movlw	low highword(__mediumconst)
  6494  002FF6  22F8               	addwfc	tblptru
  6495  002FF8  0009               	tblrd	*+
  6496                           	
  6497  002FFA  CFF5 F174          	movff	tablat,??_scale+22+0
  6498  002FFE  0009               	tblrd	*+
  6499                           	
  6500  003000  CFF5 F175          	movff	tablat,??_scale+22+0+1
  6501  003004  0009               	tblrd	*+
  6502                           	
  6503  003006  CFF5 F176          	movff	tablat,??_scale+22+0+2
  6504  00300A  C174  F17D         	movff	??_scale+22+0,0+(?___ftmul+03h)
  6505  00300E  C175  F17E         	movff	??_scale+22+1,1+(?___ftmul+03h)
  6506  003012  C176  F17F         	movff	??_scale+22+2,2+(?___ftmul+03h)
  6507  003016  0101               	movlb	1	; () banked
  6508  003018  0101               	movlb	1	; () banked
  6509  00301A  515E               	movf	((_scale$1210))&0ffh,w
  6510  00301C  0F12               	addlw	low(012h)
  6511  00301E  0D03               	mullw	03h
  6512  003020  0E29               	movlw	low((__npowers_))
  6513  003022  24F3               	addwf	(prodl),c,w
  6514  003024  6EF6               	movwf	tblptrl
  6515  003026  6AF7               	clrf	tblptrh
  6516  003028  0E10               	movlw	high((__npowers_))
  6517  00302A  22F7               	addwfc	tblptrh
  6518  00302C  6AF8               	clrf	tblptru
  6519  00302E  0E00               	movlw	low highword(__mediumconst)
  6520  003030  22F8               	addwfc	tblptru
  6521  003032  0009               	tblrd	*+
  6522                           	
  6523  003034  CFF5 F177          	movff	tablat,??_scale+25+0
  6524  003038  0009               	tblrd	*+
  6525                           	
  6526  00303A  CFF5 F178          	movff	tablat,??_scale+25+0+1
  6527  00303E  0009               	tblrd	*+
  6528                           	
  6529  003040  CFF5 F179          	movff	tablat,??_scale+25+0+2
  6530  003044  C177  F17A         	movff	??_scale+25+0,(?___ftmul)
  6531  003048  C178  F17B         	movff	??_scale+25+1,(?___ftmul+1)
  6532  00304C  C179  F17C         	movff	??_scale+25+2,(?___ftmul+2)
  6533  003050  ECA9  F020         	call	___ftmul	;wreg free
  6534  003054  C17A  F164         	movff	0+?___ftmul,(_scale$1213)
  6535  003058  C17B  F165         	movff	1+?___ftmul,(_scale$1213+1)
  6536  00305C  C17C  F166         	movff	2+?___ftmul,(_scale$1213+2)
  6537  003060  0E0A               	movlw	low(0Ah)
  6538  003062  0101               	movlb	1	; () banked
  6539  003064  0101               	movlb	1	; () banked
  6540  003066  6F7C               	movwf	(0+(?___awmod+02h))&0ffh
  6541  003068  0E00               	movlw	high(0Ah)
  6542  00306A  0101               	movlb	1	; () banked
  6543  00306C  6F7D               	movwf	(1+(?___awmod+02h))&0ffh
  6544  00306E  0101               	movlb	1	; () banked
  6545  003070  0101               	movlb	1	; () banked
  6546  003072  515B               	movf	((scale@scl))&0ffh,w
  6547  003074  0101               	movlb	1	; () banked
  6548  003076  0101               	movlb	1	; () banked
  6549  003078  6F7A               	movwf	((?___awmod))&0ffh
  6550  00307A  0101               	movlb	1	; () banked
  6551  00307C  6B7B               	clrf	((?___awmod+1))&0ffh
  6552  00307E  0101               	movlb	1	; () banked
  6553  003080  BF7A               	btfsc	((?___awmod))&0ffh,7
  6554  003082  077B               	decf	((?___awmod+1))&0ffh
  6555  003084  EC38  F026         	call	___awmod	;wreg free
  6556  003088  0101               	movlb	1	; () banked
  6557  00308A  0101               	movlb	1	; () banked
  6558  00308C  517A               	movf	(0+?___awmod)&0ffh,w
  6559  00308E  0D03               	mullw	03h
  6560  003090  0E29               	movlw	low((__npowers_))
  6561  003092  24F3               	addwf	(prodl),c,w
  6562  003094  6EF6               	movwf	tblptrl
  6563  003096  6AF7               	clrf	tblptrh
  6564  003098  0E10               	movlw	high((__npowers_))
  6565  00309A  22F7               	addwfc	tblptrh
  6566  00309C  6AF8               	clrf	tblptru
  6567  00309E  0E00               	movlw	low highword(__mediumconst)
  6568  0030A0  22F8               	addwfc	tblptru
  6569  0030A2  0009               	tblrd	*+
  6570                           	
  6571  0030A4  CFF5 F174          	movff	tablat,??_scale+22+0
  6572  0030A8  0009               	tblrd	*+
  6573                           	
  6574  0030AA  CFF5 F175          	movff	tablat,??_scale+22+0+1
  6575  0030AE  0009               	tblrd	*+
  6576                           	
  6577  0030B0  CFF5 F176          	movff	tablat,??_scale+22+0+2
  6578  0030B4  C174  F17D         	movff	??_scale+22+0,0+(?___ftmul+03h)
  6579  0030B8  C175  F17E         	movff	??_scale+22+1,1+(?___ftmul+03h)
  6580  0030BC  C176  F17F         	movff	??_scale+22+2,2+(?___ftmul+03h)
  6581  0030C0  C164  F17A         	movff	(_scale$1213),(?___ftmul)
  6582  0030C4  C165  F17B         	movff	(_scale$1213+1),(?___ftmul+1)
  6583  0030C8  C166  F17C         	movff	(_scale$1213+2),(?___ftmul+2)
  6584  0030CC  ECA9  F020         	call	___ftmul	;wreg free
  6585  0030D0  C17A  F15B         	movff	0+?___ftmul,(?_scale)
  6586  0030D4  C17B  F15C         	movff	1+?___ftmul,(?_scale+1)
  6587  0030D8  C17C  F15D         	movff	2+?___ftmul,(?_scale+2)
  6588  0030DC  D1F3               	goto	l187
  6589                           	line	432
  6590                           	
  6591  0030DE                     l189:		; BSR set to: ?
  6592                           
  6593                           ;doprnt.c: 432: else if(scl > 10)
  6594  0030DE  0101               	movlb	1	; () banked
  6595  0030E0  0101               	movlb	1	; () banked
  6596  0030E2  515B               	movf	((scale@scl))&0ffh,w
  6597  0030E4  0A80               	xorlw	80h
  6598  0030E6  0F75               	addlw	-((0Bh)^80h)
  6599  0030E8  A0D8               	btfss	status,0
  6600  0030EA  D001               	goto	u6411
  6601  0030EC  D001               	goto	u6410
  6602  0030EE                     u6411:
  6603  0030EE  D06E               	goto	l190
  6604  0030F0                     u6410:
  6605                           	line	433
  6606  0030F0  0E0A               	movlw	low(0Ah)
  6607  0030F2  0101               	movlb	1	; () banked
  6608  0030F4  0101               	movlb	1	; () banked
  6609  0030F6  6F7C               	movwf	(0+(?___awdiv+02h))&0ffh
  6610  0030F8  0E00               	movlw	high(0Ah)
  6611  0030FA  0101               	movlb	1	; () banked
  6612  0030FC  6F7D               	movwf	(1+(?___awdiv+02h))&0ffh
  6613  0030FE  0101               	movlb	1	; () banked
  6614  003100  0101               	movlb	1	; () banked
  6615  003102  515B               	movf	((scale@scl))&0ffh,w
  6616  003104  0101               	movlb	1	; () banked
  6617  003106  0101               	movlb	1	; () banked
  6618  003108  6F7A               	movwf	((?___awdiv))&0ffh
  6619  00310A  0101               	movlb	1	; () banked
  6620  00310C  6B7B               	clrf	((?___awdiv+1))&0ffh
  6621  00310E  0101               	movlb	1	; () banked
  6622  003110  BF7A               	btfsc	((?___awdiv))&0ffh,7
  6623  003112  077B               	decf	((?___awdiv+1))&0ffh
  6624  003114  EC15  F025         	call	___awdiv	;wreg free
  6625  003118  C17A  F167         	movff	0+?___awdiv,(_scale$1217)
  6626  00311C  C17B  F168         	movff	1+?___awdiv,(_scale$1217+1)
  6627  003120  0E0A               	movlw	low(0Ah)
  6628  003122  0101               	movlb	1	; () banked
  6629  003124  0101               	movlb	1	; () banked
  6630  003126  6F7C               	movwf	(0+(?___awmod+02h))&0ffh
  6631  003128  0E00               	movlw	high(0Ah)
  6632  00312A  0101               	movlb	1	; () banked
  6633  00312C  6F7D               	movwf	(1+(?___awmod+02h))&0ffh
  6634  00312E  0101               	movlb	1	; () banked
  6635  003130  0101               	movlb	1	; () banked
  6636  003132  515B               	movf	((scale@scl))&0ffh,w
  6637  003134  0101               	movlb	1	; () banked
  6638  003136  0101               	movlb	1	; () banked
  6639  003138  6F7A               	movwf	((?___awmod))&0ffh
  6640  00313A  0101               	movlb	1	; () banked
  6641  00313C  6B7B               	clrf	((?___awmod+1))&0ffh
  6642  00313E  0101               	movlb	1	; () banked
  6643  003140  BF7A               	btfsc	((?___awmod))&0ffh,7
  6644  003142  077B               	decf	((?___awmod+1))&0ffh
  6645  003144  EC38  F026         	call	___awmod	;wreg free
  6646  003148  0101               	movlb	1	; () banked
  6647  00314A  0101               	movlb	1	; () banked
  6648  00314C  517A               	movf	(0+?___awmod)&0ffh,w
  6649  00314E  0D03               	mullw	03h
  6650  003150  0E29               	movlw	low((__npowers_))
  6651  003152  24F3               	addwf	(prodl),c,w
  6652  003154  6EF6               	movwf	tblptrl
  6653  003156  6AF7               	clrf	tblptrh
  6654  003158  0E10               	movlw	high((__npowers_))
  6655  00315A  22F7               	addwfc	tblptrh
  6656  00315C  6AF8               	clrf	tblptru
  6657  00315E  0E00               	movlw	low highword(__mediumconst)
  6658  003160  22F8               	addwfc	tblptru
  6659  003162  0009               	tblrd	*+
  6660                           	
  6661  003164  CFF5 F174          	movff	tablat,??_scale+22+0
  6662  003168  0009               	tblrd	*+
  6663                           	
  6664  00316A  CFF5 F175          	movff	tablat,??_scale+22+0+1
  6665  00316E  0009               	tblrd	*+
  6666                           	
  6667  003170  CFF5 F176          	movff	tablat,??_scale+22+0+2
  6668  003174  C174  F17D         	movff	??_scale+22+0,0+(?___ftmul+03h)
  6669  003178  C175  F17E         	movff	??_scale+22+1,1+(?___ftmul+03h)
  6670  00317C  C176  F17F         	movff	??_scale+22+2,2+(?___ftmul+03h)
  6671  003180  0101               	movlb	1	; () banked
  6672  003182  0101               	movlb	1	; () banked
  6673  003184  5167               	movf	((_scale$1217))&0ffh,w
  6674  003186  0F09               	addlw	low(09h)
  6675  003188  0D03               	mullw	03h
  6676  00318A  0E29               	movlw	low((__npowers_))
  6677  00318C  24F3               	addwf	(prodl),c,w
  6678  00318E  6EF6               	movwf	tblptrl
  6679  003190  6AF7               	clrf	tblptrh
  6680  003192  0E10               	movlw	high((__npowers_))
  6681  003194  22F7               	addwfc	tblptrh
  6682  003196  6AF8               	clrf	tblptru
  6683  003198  0E00               	movlw	low highword(__mediumconst)
  6684  00319A  22F8               	addwfc	tblptru
  6685  00319C  0009               	tblrd	*+
  6686                           	
  6687  00319E  CFF5 F177          	movff	tablat,??_scale+25+0
  6688  0031A2  0009               	tblrd	*+
  6689                           	
  6690  0031A4  CFF5 F178          	movff	tablat,??_scale+25+0+1
  6691  0031A8  0009               	tblrd	*+
  6692                           	
  6693  0031AA  CFF5 F179          	movff	tablat,??_scale+25+0+2
  6694  0031AE  C177  F17A         	movff	??_scale+25+0,(?___ftmul)
  6695  0031B2  C178  F17B         	movff	??_scale+25+1,(?___ftmul+1)
  6696  0031B6  C179  F17C         	movff	??_scale+25+2,(?___ftmul+2)
  6697  0031BA  ECA9  F020         	call	___ftmul	;wreg free
  6698  0031BE  C17A  F15B         	movff	0+?___ftmul,(?_scale)
  6699  0031C2  C17B  F15C         	movff	1+?___ftmul,(?_scale+1)
  6700  0031C6  C17C  F15D         	movff	2+?___ftmul,(?_scale+2)
  6701  0031CA  D17C               	goto	l187
  6702                           	line	434
  6703                           	
  6704  0031CC                     l190:		; BSR set to: ?
  6705                           
  6706  0031CC  0101               	movlb	1	; () banked
  6707  0031CE  0101               	movlb	1	; () banked
  6708  0031D0  515B               	movf	((scale@scl))&0ffh,w
  6709  0031D2  0D03               	mullw	03h
  6710  0031D4  0E29               	movlw	low((__npowers_))
  6711  0031D6  24F3               	addwf	(prodl),c,w
  6712  0031D8  6EF6               	movwf	tblptrl
  6713  0031DA  6AF7               	clrf	tblptrh
  6714  0031DC  0E10               	movlw	high((__npowers_))
  6715  0031DE  22F7               	addwfc	tblptrh
  6716  0031E0  6AF8               	clrf	tblptru
  6717  0031E2  0E00               	movlw	low highword(__mediumconst)
  6718  0031E4  22F8               	addwfc	tblptru
  6719  0031E6  0009               	tblrd	*+
  6720                           	
  6721  0031E8  CFF5 F174          	movff	tablat,??_scale+22+0
  6722  0031EC  0009               	tblrd	*+
  6723                           	
  6724  0031EE  CFF5 F175          	movff	tablat,??_scale+22+0+1
  6725  0031F2  0009               	tblrd	*+
  6726                           	
  6727  0031F4  CFF5 F176          	movff	tablat,??_scale+22+0+2
  6728  0031F8  C174  F15B         	movff	??_scale+22+0,(?_scale)
  6729  0031FC  C175  F15C         	movff	??_scale+22+1,(?_scale+1)
  6730  003200  C176  F15D         	movff	??_scale+22+2,(?_scale+2)
  6731  003204  D15F               	goto	l187
  6732                           	line	435
  6733                           	
  6734  003206                     l188:		; BSR set to: ?
  6735                           
  6736                           	line	436
  6737                           ;doprnt.c: 435: }
  6738                           ;doprnt.c: 436: if(scl>=110)
  6739  003206  0101               	movlb	1	; () banked
  6740  003208  0101               	movlb	1	; () banked
  6741  00320A  515B               	movf	((scale@scl))&0ffh,w
  6742  00320C  0A80               	xorlw	80h
  6743  00320E  0F12               	addlw	-((06Eh)^80h)
  6744  003210  A0D8               	btfss	status,0
  6745  003212  D001               	goto	u6421
  6746  003214  D001               	goto	u6420
  6747  003216                     u6421:
  6748  003216  D0C2               	goto	l192
  6749  003218                     u6420:
  6750                           	line	437
  6751  003218  0E64               	movlw	low(064h)
  6752  00321A  0101               	movlb	1	; () banked
  6753  00321C  0101               	movlb	1	; () banked
  6754  00321E  6F7C               	movwf	(0+(?___awdiv+02h))&0ffh
  6755  003220  0E00               	movlw	high(064h)
  6756  003222  0101               	movlb	1	; () banked
  6757  003224  6F7D               	movwf	(1+(?___awdiv+02h))&0ffh
  6758  003226  0101               	movlb	1	; () banked
  6759  003228  0101               	movlb	1	; () banked
  6760  00322A  515B               	movf	((scale@scl))&0ffh,w
  6761  00322C  0101               	movlb	1	; () banked
  6762  00322E  0101               	movlb	1	; () banked
  6763  003230  6F7A               	movwf	((?___awdiv))&0ffh
  6764  003232  0101               	movlb	1	; () banked
  6765  003234  6B7B               	clrf	((?___awdiv+1))&0ffh
  6766  003236  0101               	movlb	1	; () banked
  6767  003238  BF7A               	btfsc	((?___awdiv))&0ffh,7
  6768  00323A  077B               	decf	((?___awdiv+1))&0ffh
  6769  00323C  EC15  F025         	call	___awdiv	;wreg free
  6770  003240  C17A  F169         	movff	0+?___awdiv,(_scale$1224)
  6771  003244  C17B  F16A         	movff	1+?___awdiv,(_scale$1224+1)
  6772  003248  0E64               	movlw	low(064h)
  6773  00324A  0101               	movlb	1	; () banked
  6774  00324C  0101               	movlb	1	; () banked
  6775  00324E  6F7C               	movwf	(0+(?___awmod+02h))&0ffh
  6776  003250  0E00               	movlw	high(064h)
  6777  003252  0101               	movlb	1	; () banked
  6778  003254  6F7D               	movwf	(1+(?___awmod+02h))&0ffh
  6779  003256  0101               	movlb	1	; () banked
  6780  003258  0101               	movlb	1	; () banked
  6781  00325A  515B               	movf	((scale@scl))&0ffh,w
  6782  00325C  0101               	movlb	1	; () banked
  6783  00325E  0101               	movlb	1	; () banked
  6784  003260  6F7A               	movwf	((?___awmod))&0ffh
  6785  003262  0101               	movlb	1	; () banked
  6786  003264  6B7B               	clrf	((?___awmod+1))&0ffh
  6787  003266  0101               	movlb	1	; () banked
  6788  003268  BF7A               	btfsc	((?___awmod))&0ffh,7
  6789  00326A  077B               	decf	((?___awmod+1))&0ffh
  6790  00326C  EC38  F026         	call	___awmod	;wreg free
  6791  003270  C17A  F16B         	movff	0+?___awmod,(_scale$1225)
  6792  003274  C17B  F16C         	movff	1+?___awmod,(_scale$1225+1)
  6793  003278  C16B  F17A         	movff	(_scale$1225),(?___awdiv)
  6794  00327C  C16C  F17B         	movff	(_scale$1225+1),(?___awdiv+1)
  6795  003280  0E0A               	movlw	low(0Ah)
  6796  003282  0101               	movlb	1	; () banked
  6797  003284  0101               	movlb	1	; () banked
  6798  003286  6F7C               	movwf	(0+(?___awdiv+02h))&0ffh
  6799  003288  0E00               	movlw	high(0Ah)
  6800  00328A  0101               	movlb	1	; () banked
  6801  00328C  6F7D               	movwf	(1+(?___awdiv+02h))&0ffh
  6802  00328E  EC15  F025         	call	___awdiv	;wreg free
  6803  003292  C17A  F16D         	movff	0+?___awdiv,(_scale$1226)
  6804  003296  C17B  F16E         	movff	1+?___awdiv,(_scale$1226+1)
  6805  00329A  0101               	movlb	1	; () banked
  6806  00329C  0101               	movlb	1	; () banked
  6807  00329E  516D               	movf	((_scale$1226))&0ffh,w
  6808  0032A0  0F09               	addlw	low(09h)
  6809  0032A2  0D03               	mullw	03h
  6810  0032A4  0E50               	movlw	low((__powers_))
  6811  0032A6  24F3               	addwf	(prodl),c,w
  6812  0032A8  6EF6               	movwf	tblptrl
  6813  0032AA  6AF7               	clrf	tblptrh
  6814  0032AC  0E10               	movlw	high((__powers_))
  6815  0032AE  22F7               	addwfc	tblptrh
  6816  0032B0  6AF8               	clrf	tblptru
  6817  0032B2  0E00               	movlw	low highword(__mediumconst)
  6818  0032B4  22F8               	addwfc	tblptru
  6819  0032B6  0009               	tblrd	*+
  6820                           	
  6821  0032B8  CFF5 F174          	movff	tablat,??_scale+22+0
  6822  0032BC  0009               	tblrd	*+
  6823                           	
  6824  0032BE  CFF5 F175          	movff	tablat,??_scale+22+0+1
  6825  0032C2  0009               	tblrd	*+
  6826                           	
  6827  0032C4  CFF5 F176          	movff	tablat,??_scale+22+0+2
  6828  0032C8  C174  F17D         	movff	??_scale+22+0,0+(?___ftmul+03h)
  6829  0032CC  C175  F17E         	movff	??_scale+22+1,1+(?___ftmul+03h)
  6830  0032D0  C176  F17F         	movff	??_scale+22+2,2+(?___ftmul+03h)
  6831  0032D4  0101               	movlb	1	; () banked
  6832  0032D6  0101               	movlb	1	; () banked
  6833  0032D8  5169               	movf	((_scale$1224))&0ffh,w
  6834  0032DA  0F12               	addlw	low(012h)
  6835  0032DC  0D03               	mullw	03h
  6836  0032DE  0E50               	movlw	low((__powers_))
  6837  0032E0  24F3               	addwf	(prodl),c,w
  6838  0032E2  6EF6               	movwf	tblptrl
  6839  0032E4  6AF7               	clrf	tblptrh
  6840  0032E6  0E10               	movlw	high((__powers_))
  6841  0032E8  22F7               	addwfc	tblptrh
  6842  0032EA  6AF8               	clrf	tblptru
  6843  0032EC  0E00               	movlw	low highword(__mediumconst)
  6844  0032EE  22F8               	addwfc	tblptru
  6845  0032F0  0009               	tblrd	*+
  6846                           	
  6847  0032F2  CFF5 F177          	movff	tablat,??_scale+25+0
  6848  0032F6  0009               	tblrd	*+
  6849                           	
  6850  0032F8  CFF5 F178          	movff	tablat,??_scale+25+0+1
  6851  0032FC  0009               	tblrd	*+
  6852                           	
  6853  0032FE  CFF5 F179          	movff	tablat,??_scale+25+0+2
  6854  003302  C177  F17A         	movff	??_scale+25+0,(?___ftmul)
  6855  003306  C178  F17B         	movff	??_scale+25+1,(?___ftmul+1)
  6856  00330A  C179  F17C         	movff	??_scale+25+2,(?___ftmul+2)
  6857  00330E  ECA9  F020         	call	___ftmul	;wreg free
  6858  003312  C17A  F16F         	movff	0+?___ftmul,(_scale$1227)
  6859  003316  C17B  F170         	movff	1+?___ftmul,(_scale$1227+1)
  6860  00331A  C17C  F171         	movff	2+?___ftmul,(_scale$1227+2)
  6861  00331E  0E0A               	movlw	low(0Ah)
  6862  003320  0101               	movlb	1	; () banked
  6863  003322  0101               	movlb	1	; () banked
  6864  003324  6F7C               	movwf	(0+(?___awmod+02h))&0ffh
  6865  003326  0E00               	movlw	high(0Ah)
  6866  003328  0101               	movlb	1	; () banked
  6867  00332A  6F7D               	movwf	(1+(?___awmod+02h))&0ffh
  6868  00332C  0101               	movlb	1	; () banked
  6869  00332E  0101               	movlb	1	; () banked
  6870  003330  515B               	movf	((scale@scl))&0ffh,w
  6871  003332  0101               	movlb	1	; () banked
  6872  003334  0101               	movlb	1	; () banked
  6873  003336  6F7A               	movwf	((?___awmod))&0ffh
  6874  003338  0101               	movlb	1	; () banked
  6875  00333A  6B7B               	clrf	((?___awmod+1))&0ffh
  6876  00333C  0101               	movlb	1	; () banked
  6877  00333E  BF7A               	btfsc	((?___awmod))&0ffh,7
  6878  003340  077B               	decf	((?___awmod+1))&0ffh
  6879  003342  EC38  F026         	call	___awmod	;wreg free
  6880  003346  0101               	movlb	1	; () banked
  6881  003348  0101               	movlb	1	; () banked
  6882  00334A  517A               	movf	(0+?___awmod)&0ffh,w
  6883  00334C  0D03               	mullw	03h
  6884  00334E  0E50               	movlw	low((__powers_))
  6885  003350  24F3               	addwf	(prodl),c,w
  6886  003352  6EF6               	movwf	tblptrl
  6887  003354  6AF7               	clrf	tblptrh
  6888  003356  0E10               	movlw	high((__powers_))
  6889  003358  22F7               	addwfc	tblptrh
  6890  00335A  6AF8               	clrf	tblptru
  6891  00335C  0E00               	movlw	low highword(__mediumconst)
  6892  00335E  22F8               	addwfc	tblptru
  6893  003360  0009               	tblrd	*+
  6894                           	
  6895  003362  CFF5 F174          	movff	tablat,??_scale+22+0
  6896  003366  0009               	tblrd	*+
  6897                           	
  6898  003368  CFF5 F175          	movff	tablat,??_scale+22+0+1
  6899  00336C  0009               	tblrd	*+
  6900                           	
  6901  00336E  CFF5 F176          	movff	tablat,??_scale+22+0+2
  6902  003372  C174  F17D         	movff	??_scale+22+0,0+(?___ftmul+03h)
  6903  003376  C175  F17E         	movff	??_scale+22+1,1+(?___ftmul+03h)
  6904  00337A  C176  F17F         	movff	??_scale+22+2,2+(?___ftmul+03h)
  6905  00337E  C16F  F17A         	movff	(_scale$1227),(?___ftmul)
  6906  003382  C170  F17B         	movff	(_scale$1227+1),(?___ftmul+1)
  6907  003386  C171  F17C         	movff	(_scale$1227+2),(?___ftmul+2)
  6908  00338A  ECA9  F020         	call	___ftmul	;wreg free
  6909  00338E  C17A  F15B         	movff	0+?___ftmul,(?_scale)
  6910  003392  C17B  F15C         	movff	1+?___ftmul,(?_scale+1)
  6911  003396  C17C  F15D         	movff	2+?___ftmul,(?_scale+2)
  6912  00339A  D094               	goto	l187
  6913                           	line	438
  6914                           	
  6915  00339C                     l192:		; BSR set to: ?
  6916                           
  6917                           ;doprnt.c: 438: else if(scl > 10)
  6918  00339C  0101               	movlb	1	; () banked
  6919  00339E  0101               	movlb	1	; () banked
  6920  0033A0  515B               	movf	((scale@scl))&0ffh,w
  6921  0033A2  0A80               	xorlw	80h
  6922  0033A4  0F75               	addlw	-((0Bh)^80h)
  6923  0033A6  A0D8               	btfss	status,0
  6924  0033A8  D001               	goto	u6431
  6925  0033AA  D001               	goto	u6430
  6926  0033AC                     u6431:
  6927  0033AC  D06E               	goto	l193
  6928  0033AE                     u6430:
  6929                           	line	439
  6930  0033AE  0E0A               	movlw	low(0Ah)
  6931  0033B0  0101               	movlb	1	; () banked
  6932  0033B2  0101               	movlb	1	; () banked
  6933  0033B4  6F7C               	movwf	(0+(?___awdiv+02h))&0ffh
  6934  0033B6  0E00               	movlw	high(0Ah)
  6935  0033B8  0101               	movlb	1	; () banked
  6936  0033BA  6F7D               	movwf	(1+(?___awdiv+02h))&0ffh
  6937  0033BC  0101               	movlb	1	; () banked
  6938  0033BE  0101               	movlb	1	; () banked
  6939  0033C0  515B               	movf	((scale@scl))&0ffh,w
  6940  0033C2  0101               	movlb	1	; () banked
  6941  0033C4  0101               	movlb	1	; () banked
  6942  0033C6  6F7A               	movwf	((?___awdiv))&0ffh
  6943  0033C8  0101               	movlb	1	; () banked
  6944  0033CA  6B7B               	clrf	((?___awdiv+1))&0ffh
  6945  0033CC  0101               	movlb	1	; () banked
  6946  0033CE  BF7A               	btfsc	((?___awdiv))&0ffh,7
  6947  0033D0  077B               	decf	((?___awdiv+1))&0ffh
  6948  0033D2  EC15  F025         	call	___awdiv	;wreg free
  6949  0033D6  C17A  F172         	movff	0+?___awdiv,(_scale$1231)
  6950  0033DA  C17B  F173         	movff	1+?___awdiv,(_scale$1231+1)
  6951  0033DE  0E0A               	movlw	low(0Ah)
  6952  0033E0  0101               	movlb	1	; () banked
  6953  0033E2  0101               	movlb	1	; () banked
  6954  0033E4  6F7C               	movwf	(0+(?___awmod+02h))&0ffh
  6955  0033E6  0E00               	movlw	high(0Ah)
  6956  0033E8  0101               	movlb	1	; () banked
  6957  0033EA  6F7D               	movwf	(1+(?___awmod+02h))&0ffh
  6958  0033EC  0101               	movlb	1	; () banked
  6959  0033EE  0101               	movlb	1	; () banked
  6960  0033F0  515B               	movf	((scale@scl))&0ffh,w
  6961  0033F2  0101               	movlb	1	; () banked
  6962  0033F4  0101               	movlb	1	; () banked
  6963  0033F6  6F7A               	movwf	((?___awmod))&0ffh
  6964  0033F8  0101               	movlb	1	; () banked
  6965  0033FA  6B7B               	clrf	((?___awmod+1))&0ffh
  6966  0033FC  0101               	movlb	1	; () banked
  6967  0033FE  BF7A               	btfsc	((?___awmod))&0ffh,7
  6968  003400  077B               	decf	((?___awmod+1))&0ffh
  6969  003402  EC38  F026         	call	___awmod	;wreg free
  6970  003406  0101               	movlb	1	; () banked
  6971  003408  0101               	movlb	1	; () banked
  6972  00340A  517A               	movf	(0+?___awmod)&0ffh,w
  6973  00340C  0D03               	mullw	03h
  6974  00340E  0E50               	movlw	low((__powers_))
  6975  003410  24F3               	addwf	(prodl),c,w
  6976  003412  6EF6               	movwf	tblptrl
  6977  003414  6AF7               	clrf	tblptrh
  6978  003416  0E10               	movlw	high((__powers_))
  6979  003418  22F7               	addwfc	tblptrh
  6980  00341A  6AF8               	clrf	tblptru
  6981  00341C  0E00               	movlw	low highword(__mediumconst)
  6982  00341E  22F8               	addwfc	tblptru
  6983  003420  0009               	tblrd	*+
  6984                           	
  6985  003422  CFF5 F174          	movff	tablat,??_scale+22+0
  6986  003426  0009               	tblrd	*+
  6987                           	
  6988  003428  CFF5 F175          	movff	tablat,??_scale+22+0+1
  6989  00342C  0009               	tblrd	*+
  6990                           	
  6991  00342E  CFF5 F176          	movff	tablat,??_scale+22+0+2
  6992  003432  C174  F17D         	movff	??_scale+22+0,0+(?___ftmul+03h)
  6993  003436  C175  F17E         	movff	??_scale+22+1,1+(?___ftmul+03h)
  6994  00343A  C176  F17F         	movff	??_scale+22+2,2+(?___ftmul+03h)
  6995  00343E  0101               	movlb	1	; () banked
  6996  003440  0101               	movlb	1	; () banked
  6997  003442  5172               	movf	((_scale$1231))&0ffh,w
  6998  003444  0F09               	addlw	low(09h)
  6999  003446  0D03               	mullw	03h
  7000  003448  0E50               	movlw	low((__powers_))
  7001  00344A  24F3               	addwf	(prodl),c,w
  7002  00344C  6EF6               	movwf	tblptrl
  7003  00344E  6AF7               	clrf	tblptrh
  7004  003450  0E10               	movlw	high((__powers_))
  7005  003452  22F7               	addwfc	tblptrh
  7006  003454  6AF8               	clrf	tblptru
  7007  003456  0E00               	movlw	low highword(__mediumconst)
  7008  003458  22F8               	addwfc	tblptru
  7009  00345A  0009               	tblrd	*+
  7010                           	
  7011  00345C  CFF5 F177          	movff	tablat,??_scale+25+0
  7012  003460  0009               	tblrd	*+
  7013                           	
  7014  003462  CFF5 F178          	movff	tablat,??_scale+25+0+1
  7015  003466  0009               	tblrd	*+
  7016                           	
  7017  003468  CFF5 F179          	movff	tablat,??_scale+25+0+2
  7018  00346C  C177  F17A         	movff	??_scale+25+0,(?___ftmul)
  7019  003470  C178  F17B         	movff	??_scale+25+1,(?___ftmul+1)
  7020  003474  C179  F17C         	movff	??_scale+25+2,(?___ftmul+2)
  7021  003478  ECA9  F020         	call	___ftmul	;wreg free
  7022  00347C  C17A  F15B         	movff	0+?___ftmul,(?_scale)
  7023  003480  C17B  F15C         	movff	1+?___ftmul,(?_scale+1)
  7024  003484  C17C  F15D         	movff	2+?___ftmul,(?_scale+2)
  7025  003488  D01D               	goto	l187
  7026                           	line	440
  7027                           	
  7028  00348A                     l193:		; BSR set to: ?
  7029                           
  7030  00348A  0101               	movlb	1	; () banked
  7031  00348C  0101               	movlb	1	; () banked
  7032  00348E  515B               	movf	((scale@scl))&0ffh,w
  7033  003490  0D03               	mullw	03h
  7034  003492  0E50               	movlw	low((__powers_))
  7035  003494  24F3               	addwf	(prodl),c,w
  7036  003496  6EF6               	movwf	tblptrl
  7037  003498  6AF7               	clrf	tblptrh
  7038  00349A  0E10               	movlw	high((__powers_))
  7039  00349C  22F7               	addwfc	tblptrh
  7040  00349E  6AF8               	clrf	tblptru
  7041  0034A0  0E00               	movlw	low highword(__mediumconst)
  7042  0034A2  22F8               	addwfc	tblptru
  7043  0034A4  0009               	tblrd	*+
  7044                           	
  7045  0034A6  CFF5 F174          	movff	tablat,??_scale+22+0
  7046  0034AA  0009               	tblrd	*+
  7047                           	
  7048  0034AC  CFF5 F175          	movff	tablat,??_scale+22+0+1
  7049  0034B0  0009               	tblrd	*+
  7050                           	
  7051  0034B2  CFF5 F176          	movff	tablat,??_scale+22+0+2
  7052  0034B6  C174  F15B         	movff	??_scale+22+0,(?_scale)
  7053  0034BA  C175  F15C         	movff	??_scale+22+1,(?_scale+1)
  7054  0034BE  C176  F15D         	movff	??_scale+22+2,(?_scale+2)
  7055  0034C2  D000               	goto	l187
  7056                           	line	441
  7057                           ;doprnt.c: 441: }
  7058  0034C4                     l187:
  7059                           			; BSR set to: ?
  7060                           
  7061  0034C4  0012               	return
  7062                           	opt stack 0
  7063                           GLOBAL __end_of_scale
  7064  0034C6                     	__end_of_scale:
  7065                           	FNSIZE	_scale,28,3
  7066                           ; =============== function _scale ends =========
                                 ===
  7067                           
  7068                           	signat	_scale,4219
  7069                           	global	___llmod
  7070                           	global	??___llmod
  7071                           	global	?___llmod
  7072                                   psect   text6,class=CODE,space=0,reloc=2
  7073                           
  7074                           	opt lm
  7075                           	file	"C:\Program Files (x86)\HI-TECH Software\P
                                 ICC-18\PRO\9.63\sources\llmod.c"
  7076                           	line	5
  7077  000000                     	__size_of___llmod	equ	__end_of___llmod-___llmod
  7078                           	
  7079  004D78                     ___llmod:		; BSR set to: ?
  7080                           
  7081                           	opt stack 28
  7082                           	line	8
  7083  004D78  0101               	movlb	1	; () banked
  7084  004D7A  5162               	movf	((___llmod@divisor+3))&0ffh,w
  7085  004D7C  115F               	iorwf ((___llmod@divisor))&0ffh,w
  7086  004D7E  1160               	iorwf ((___llmod@divisor+1))&0ffh,w
  7087  004D80  1161               	iorwf ((___llmod@divisor+2))&0ffh,w
  7088                           
  7089  004D82  B4D8               	btfsc	status,2
  7090  004D84  D001               	goto	u6441
  7091  004D86  D001               	goto	u6440
  7092  004D88                     u6441:
  7093  004D88  D05E               	goto	l705
  7094  004D8A                     u6440:
  7095                           	line	9
  7096  004D8A  0101               	movlb	1	; () banked
  7097  004D8C  6F64               	movwf	(??___llmod+1+0)&0ffh
  7098  004D8E  0E01               	movlw	low(01h)
  7099  004D90  0101               	movlb	1	; () banked
  7100  004D92  0101               	movlb	1	; () banked
  7101  004D94  6F63               	movwf	((___llmod@counter))&0ffh
  7102  004D96  0101               	movlb	1	; () banked
  7103  004D98  5164               	movf	(??___llmod+1+0)&0ffh,w
  7104                           	line	10
  7105  004D9A  D00D               	goto	l706
  7106                           	
  7107  004D9C                     l707:		; BSR set to: ?
  7108                           
  7109                           	line	11
  7110  004D9C  0101               	movlb	1	; () banked
  7111  004D9E  90D8               	bcf	status,0
  7112  004DA0  0101               	movlb	1	; () banked
  7113  004DA2  375F               	rlcf	((___llmod@divisor))&0ffh
  7114  004DA4  0101               	movlb	1	; () banked
  7115  004DA6  3760               	rlcf	((___llmod@divisor+1))&0ffh
  7116  004DA8  0101               	movlb	1	; () banked
  7117  004DAA  3761               	rlcf	((___llmod@divisor+2))&0ffh
  7118  004DAC  0101               	movlb	1	; () banked
  7119  004DAE  3762               	rlcf	((___llmod@divisor+3))&0ffh
  7120                           	line	12
  7121  004DB0  0101               	movlb	1	; () banked
  7122  004DB2  0101               	movlb	1	; () banked
  7123  004DB4  2B63               	incf	((___llmod@counter))&0ffh
  7124                           	line	13
  7125                           	
  7126  004DB6                     l706:		; BSR set to: ?
  7127                           
  7128                           	line	10
  7129  004DB6  0101               	movlb	1	; () banked
  7130                           	
  7131  004DB8  0101               	movlb	1	; () banked
  7132  004DBA  AF62               	btfss	((___llmod@divisor+3))&0ffh,(31)&7
  7133  004DBC  D001               	goto	u6451
  7134  004DBE  D001               	goto	u6450
  7135  004DC0                     u6451:
  7136  004DC0  D7ED               	goto	l707
  7137  004DC2                     u6450:
  7138                           	
  7139  004DC2                     l708:		; BSR set to: ?
  7140                           
  7141                           	line	14
  7142                           	
  7143  004DC2                     l711:		; BSR set to: ?
  7144                           
  7145                           	line	15
  7146  004DC2  0101               	movlb	1	; () banked
  7147  004DC4  0101               	movlb	1	; () banked
  7148  004DC6  515F               	movf	((___llmod@divisor))&0ffh,w
  7149  004DC8  0101               	movlb	1	; () banked
  7150  004DCA  0101               	movlb	1	; () banked
  7151  004DCC  5D5B               	subwf	((___llmod@dividend))&0ffh,w
  7152  004DCE  0101               	movlb	1	; () banked
  7153  004DD0  0101               	movlb	1	; () banked
  7154  004DD2  5160               	movf	((___llmod@divisor+1))&0ffh,w
  7155  004DD4  0101               	movlb	1	; () banked
  7156  004DD6  0101               	movlb	1	; () banked
  7157  004DD8  595C               	subwfb	((___llmod@dividend+1))&0ffh,w
  7158  004DDA  0101               	movlb	1	; () banked
  7159  004DDC  0101               	movlb	1	; () banked
  7160  004DDE  5161               	movf	((___llmod@divisor+2))&0ffh,w
  7161  004DE0  0101               	movlb	1	; () banked
  7162  004DE2  0101               	movlb	1	; () banked
  7163  004DE4  595D               	subwfb	((___llmod@dividend+2))&0ffh,w
  7164  004DE6  0101               	movlb	1	; () banked
  7165  004DE8  0101               	movlb	1	; () banked
  7166  004DEA  5162               	movf	((___llmod@divisor+3))&0ffh,w
  7167  004DEC  0101               	movlb	1	; () banked
  7168  004DEE  0101               	movlb	1	; () banked
  7169  004DF0  595E               	subwfb	((___llmod@dividend+3))&0ffh,w
  7170  004DF2  A0D8               	btfss	status,0
  7171  004DF4  D001               	goto	u6461
  7172  004DF6  D001               	goto	u6460
  7173  004DF8                     u6461:
  7174  004DF8  D018               	goto	l712
  7175  004DFA                     u6460:
  7176                           	line	16
  7177  004DFA  0101               	movlb	1	; () banked
  7178  004DFC  0101               	movlb	1	; () banked
  7179  004DFE  515F               	movf	((___llmod@divisor))&0ffh,w
  7180  004E00  0101               	movlb	1	; () banked
  7181  004E02  0101               	movlb	1	; () banked
  7182  004E04  5F5B               	subwf	((___llmod@dividend))&0ffh
  7183  004E06  0101               	movlb	1	; () banked
  7184  004E08  0101               	movlb	1	; () banked
  7185  004E0A  5160               	movf	((___llmod@divisor+1))&0ffh,w
  7186  004E0C  0101               	movlb	1	; () banked
  7187  004E0E  0101               	movlb	1	; () banked
  7188  004E10  5B5C               	subwfb	((___llmod@dividend+1))&0ffh
  7189  004E12  0101               	movlb	1	; () banked
  7190  004E14  0101               	movlb	1	; () banked
  7191  004E16  5161               	movf	((___llmod@divisor+2))&0ffh,w
  7192  004E18  0101               	movlb	1	; () banked
  7193  004E1A  0101               	movlb	1	; () banked
  7194  004E1C  5B5D               	subwfb	((___llmod@dividend+2))&0ffh
  7195  004E1E  0101               	movlb	1	; () banked
  7196  004E20  0101               	movlb	1	; () banked
  7197  004E22  5162               	movf	((___llmod@divisor+3))&0ffh,w
  7198  004E24  0101               	movlb	1	; () banked
  7199  004E26  0101               	movlb	1	; () banked
  7200  004E28  5B5E               	subwfb	((___llmod@dividend+3))&0ffh
  7201                           	
  7202  004E2A                     l712:		; BSR set to: ?
  7203                           
  7204                           	line	17
  7205  004E2A  0101               	movlb	1	; () banked
  7206  004E2C  90D8               	bcf	status,0
  7207  004E2E  0101               	movlb	1	; () banked
  7208  004E30  3362               	rrcf	((___llmod@divisor+3))&0ffh
  7209  004E32  0101               	movlb	1	; () banked
  7210  004E34  3361               	rrcf	((___llmod@divisor+2))&0ffh
  7211  004E36  0101               	movlb	1	; () banked
  7212  004E38  3360               	rrcf	((___llmod@divisor+1))&0ffh
  7213  004E3A  0101               	movlb	1	; () banked
  7214  004E3C  335F               	rrcf	((___llmod@divisor))&0ffh
  7215                           	line	18
  7216  004E3E  0101               	movlb	1	; () banked
  7217  004E40  0101               	movlb	1	; () banked
  7218  004E42  2F63               	decfsz	((___llmod@counter))&0ffh
  7219                           	
  7220  004E44  D7BE               	goto	l711
  7221                           	
  7222  004E46                     l710:		; BSR set to: ?
  7223                           
  7224                           	line	19
  7225                           	
  7226  004E46                     l705:		; BSR set to: ?
  7227                           
  7228                           	line	20
  7229  004E46  C15B  F15B         	movff	(___llmod@dividend),(?___llmod)
  7230  004E4A  C15C  F15C         	movff	(___llmod@dividend+1),(?___llmod+1)
  7231  004E4E  C15D  F15D         	movff	(___llmod@dividend+2),(?___llmod+2)
  7232  004E52  C15E  F15E         	movff	(___llmod@dividend+3),(?___llmod+3)
  7233  004E56  D000               	goto	l704
  7234                           	line	21
  7235  004E58                     l704:
  7236                           			; BSR set to: ?
  7237                           
  7238  004E58  0012               	return
  7239                           	opt stack 0
  7240                           GLOBAL __end_of___llmod
  7241  004E5A                     	__end_of___llmod:
  7242                           	FNSIZE	___llmod,2,8
  7243                           ; =============== function ___llmod ends =======
                                 =====
  7244                           
  7245                           	signat	___llmod,8316
  7246                           	global	_fround
  7247                           	global	??_fround
  7248                           	global	?_fround
  7249                                   psect   text7,class=CODE,space=0,reloc=2
  7250                           
  7251                           	opt lm
  7252                           	file	"C:\Program Files (x86)\HI-TECH Software\P
                                 ICC-18\PRO\9.63\lib\doprnt.c"
  7253                           	line	410
  7254  000000                     	__size_of_fround	equ	__end_of_fround-_fround
  7255                           ;stdio.h: 12: typedef int ptrdiff_t;
  7256                           ;stdio.h: 13: typedef unsigned size_t;
  7257                           ;stdio.h: 14: typedef unsigned short wchar_t;
  7258                           ;stdarg.h: 36: typedef void * va_list[1];
  7259                           ;stdarg.h: 39: extern void * __va_start(void);
  7260                           ;stdarg.h: 42: extern void * __va_arg(void *);
  7261                           ;stdio.h: 27: extern int errno;
  7262                           ;stdio.h: 58: struct __prbuf
  7263                           ;stdio.h: 59: {
  7264                           ;stdio.h: 60: char * ptr;
  7265                           ;stdio.h: 61: void (* func)(char);
  7266                           ;stdio.h: 62: };
  7267                           ;conio.h: 17: extern int errno;
  7268                           ;conio.h: 20: extern void init_uart(void);
  7269                           ;conio.h: 22: extern char getch(void);
  7270                           	
  7271  003800                     _fround:		; BSR set to: ?
  7272                           
  7273                           	opt stack 28
  7274                           	line	413
  7275  003800  0E6D               	movlw	(06Eh-1)
  7276  003802  0101               	movlb	1	; () banked
  7277  003804  0101               	movlb	1	; () banked
  7278  003806  655B               	cpfsgt	((fround@prec))&0ffh
  7279  003808  D001               	goto	u6471
  7280  00380A  D001               	goto	u6470
  7281  00380C                     u6471:
  7282  00380C  D0CA               	goto	l184
  7283  00380E                     u6470:
  7284                           	line	414
  7285  00380E  0E64               	movlw	low(064h)
  7286  003810  0101               	movlb	1	; () banked
  7287  003812  0101               	movlb	1	; () banked
  7288  003814  6F7C               	movwf	(0+(?___awdiv+02h))&0ffh
  7289  003816  0E00               	movlw	high(064h)
  7290  003818  0101               	movlb	1	; () banked
  7291  00381A  6F7D               	movwf	(1+(?___awdiv+02h))&0ffh
  7292  00381C  0101               	movlb	1	; () banked
  7293  00381E  0101               	movlb	1	; () banked
  7294  003820  C15B  F17A         	movff	(fround@prec),(?___awdiv)
  7295  003824  0101               	movlb	1	; () banked
  7296  003826  0101               	movlb	1	; () banked
  7297  003828  6B7B               	clrf	((?___awdiv+1))&0ffh
  7298  00382A  EC15  F025         	call	___awdiv	;wreg free
  7299  00382E  C17A  F15E         	movff	0+?___awdiv,(_fround$1239)
  7300  003832  C17B  F15F         	movff	1+?___awdiv,(_fround$1239+1)
  7301  003836  0E64               	movlw	low(064h)
  7302  003838  0101               	movlb	1	; () banked
  7303  00383A  0101               	movlb	1	; () banked
  7304  00383C  6F7C               	movwf	(0+(?___awmod+02h))&0ffh
  7305  00383E  0E00               	movlw	high(064h)
  7306  003840  0101               	movlb	1	; () banked
  7307  003842  6F7D               	movwf	(1+(?___awmod+02h))&0ffh
  7308  003844  0101               	movlb	1	; () banked
  7309  003846  0101               	movlb	1	; () banked
  7310  003848  C15B  F17A         	movff	(fround@prec),(?___awmod)
  7311  00384C  0101               	movlb	1	; () banked
  7312  00384E  0101               	movlb	1	; () banked
  7313  003850  6B7B               	clrf	((?___awmod+1))&0ffh
  7314  003852  EC38  F026         	call	___awmod	;wreg free
  7315  003856  C17A  F160         	movff	0+?___awmod,(_fround$1240)
  7316  00385A  C17B  F161         	movff	1+?___awmod,(_fround$1240+1)
  7317  00385E  C160  F17A         	movff	(_fround$1240),(?___awdiv)
  7318  003862  C161  F17B         	movff	(_fround$1240+1),(?___awdiv+1)
  7319  003866  0E0A               	movlw	low(0Ah)
  7320  003868  0101               	movlb	1	; () banked
  7321  00386A  0101               	movlb	1	; () banked
  7322  00386C  6F7C               	movwf	(0+(?___awdiv+02h))&0ffh
  7323  00386E  0E00               	movlw	high(0Ah)
  7324  003870  0101               	movlb	1	; () banked
  7325  003872  6F7D               	movwf	(1+(?___awdiv+02h))&0ffh
  7326  003874  EC15  F025         	call	___awdiv	;wreg free
  7327  003878  C17A  F162         	movff	0+?___awdiv,(_fround$1241)
  7328  00387C  C17B  F163         	movff	1+?___awdiv,(_fround$1241+1)
  7329  003880  0101               	movlb	1	; () banked
  7330  003882  0101               	movlb	1	; () banked
  7331  003884  5162               	movf	((_fround$1241))&0ffh,w
  7332  003886  0F09               	addlw	low(09h)
  7333  003888  0D03               	mullw	03h
  7334  00388A  0E29               	movlw	low((__npowers_))
  7335  00388C  24F3               	addwf	(prodl),c,w
  7336  00388E  6EF6               	movwf	tblptrl
  7337  003890  6AF7               	clrf	tblptrh
  7338  003892  0E10               	movlw	high((__npowers_))
  7339  003894  22F7               	addwfc	tblptrh
  7340  003896  6AF8               	clrf	tblptru
  7341  003898  0E00               	movlw	low highword(__mediumconst)
  7342  00389A  22F8               	addwfc	tblptru
  7343  00389C  0009               	tblrd	*+
  7344                           	
  7345  00389E  CFF5 F169          	movff	tablat,??_fround+11+0
  7346  0038A2  0009               	tblrd	*+
  7347                           	
  7348  0038A4  CFF5 F16A          	movff	tablat,??_fround+11+0+1
  7349  0038A8  0009               	tblrd	*+
  7350                           	
  7351  0038AA  CFF5 F16B          	movff	tablat,??_fround+11+0+2
  7352  0038AE  C169  F17D         	movff	??_fround+11+0,0+(?___ftmul+03h)
  7353  0038B2  C16A  F17E         	movff	??_fround+11+1,1+(?___ftmul+03h)
  7354+ 0038B6  C16B  F17F         	movff	??_fround+11+2,2+(?___ftmul+03h)
  7355+ 0038BA  0101               	movlb	1	; () banked
  7356+ 0038BC  0101               	movlb	1	; () banked
  7357+ 0038BE  515E               	movf	((_fround$1239))&0ffh,w
  7358+ 0038C0  0F12               	addlw	low(012h)
  7359+ 0038C2  0D03               	mullw	03h
  7360+ 0038C4  0E29               	movlw	low((__npowers_))
  7361+ 0038C6  24F3               	addwf	(prodl),c,w
  7362+ 0038C8  6EF6               	movwf	tblptrl
  7363+ 0038CA  6AF7               	clrf	tblptrh
  7364+ 0038CC  0E10               	movlw	high((__npowers_))
  7365+ 0038CE  22F7               	addwfc	tblptrh
  7366+ 0038D0  6AF8               	clrf	tblptru
  7367+ 0038D2  0E00               	movlw	low highword(__mediumconst)
  7368+ 0038D4  22F8               	addwfc	tblptru
  7369+ 0038D6  0009               	tblrd	*+
  7370+                          	
  7371+ 0038D8  CFF5 F16C          	movff	tablat,??_fround+14+0
  7372+ 0038DC  0009               	tblrd	*+
  7373+                          	
  7374+ 0038DE  CFF5 F16D          	movff	tablat,??_fround+14+0+1
  7375+ 0038E2  0009               	tblrd	*+
  7376+                          	
  7377+ 0038E4  CFF5 F16E          	movff	tablat,??_fround+14+0+2
  7378+ 0038E8  C16C  F17A         	movff	??_fround+14+0,(?___ftmul)
  7379+ 0038EC  C16D  F17B         	movff	??_fround+14+1,(?___ftmul+1)
  7380+ 0038F0  C16E  F17C         	movff	??_fround+14+2,(?___ftmul+2)
  7381+ 0038F4  ECA9  F020         	call	___ftmul	;wreg free
  7382+ 0038F8  C17A  F164         	movff	0+?___ftmul,(_fround$1242)
  7383+ 0038FC  C17B  F165         	movff	1+?___ftmul,(_fround$1242+1)
  7384+ 003900  C17C  F166         	movff	2+?___ftmul,(_fround$1242+2)
  7385+ 003904  0E0A               	movlw	low(0Ah)
  7386+ 003906  0101               	movlb	1	; () banked
  7387+ 003908  0101               	movlb	1	; () banked
  7388+ 00390A  6F7C               	movwf	(0+(?___awmod+02h))&0ffh
  7389+ 00390C  0E00               	movlw	high(0Ah)
  7390+ 00390E  0101               	movlb	1	; () banked
  7391+ 003910  6F7D               	movwf	(1+(?___awmod+02h))&0ffh
  7392+ 003912  0101               	movlb	1	; () banked
  7393+ 003914  0101               	movlb	1	; () banked
  7394+ 003916  C15B  F17A         	movff	(fround@prec),(?___awmod)
  7395+ 00391A  0101               	movlb	1	; () banked
  7396+ 00391C  0101               	movlb	1	; () banked
  7397+ 00391E  6B7B               	clrf	((?___awmod+1))&0ffh
  7398+ 003920  EC38  F026         	call	___awmod	;wreg free
  7399+ 003924  0101               	movlb	1	; () banked
  7400+ 003926  0101               	movlb	1	; () banked
  7401+ 003928  517A               	movf	(0+?___awmod)&0ffh,w
  7402+ 00392A  0D03               	mullw	03h
  7403+ 00392C  0E29               	movlw	low((__npowers_))
  7404+ 00392E  24F3               	addwf	(prodl),c,w
  7405+ 003930  6EF6               	movwf	tblptrl
  7406+ 003932  6AF7               	clrf	tblptrh
  7407+ 003934  0E10               	movlw	high((__npowers_))
  7408+ 003936  22F7               	addwfc	tblptrh
  7409+ 003938  6AF8               	clrf	tblptru
  7410+ 00393A  0E00               	movlw	low highword(__mediumconst)
  7411+ 00393C  22F8               	addwfc	tblptru
  7412+ 00393E  0009               	tblrd	*+
  7413+                          	
  7414+ 003940  CFF5 F169          	movff	tablat,??_fround+11+0
  7415+ 003944  0009               	tblrd	*+
  7416+                          	
  7417+ 003946  CFF5 F16A          	movff	tablat,??_fround+11+0+1
  7418+ 00394A  0009               	tblrd	*+
  7419+                          	
  7420+ 00394C  CFF5 F16B          	movff	tablat,??_fround+11+0+2
  7421+ 003950  C169  F17D         	movff	??_fround+11+0,0+(?___ftmul+03h)
  7422+ 003954  C16A  F17E         	movff	??_fround+11+1,1+(?___ftmul+03h)
  7423+ 003958  C16B  F17F         	movff	??_fround+11+2,2+(?___ftmul+03h)
  7424+ 00395C  C164  F17A         	movff	(_fround$1242),(?___ftmul)
  7425+ 003960  C165  F17B         	movff	(_fround$1242+1),(?___ftmul+1)
  7426+ 003964  C166  F17C         	movff	(_fround$1242+2),(?___ftmul+2)
  7427+ 003968  ECA9  F020         	call	___ftmul	;wreg free
  7428+ 00396C  C17A  F17A         	movff	0+?___ftmul,(?___ftmul)
  7429+ 003970  C17B  F17B         	movff	1+?___ftmul,(?___ftmul+1)
  7430+ 003974  C17C  F17C         	movff	2+?___ftmul,(?___ftmul+2)
  7431+ 003978  0E00               	movlw	low(float24(0.50000000000000000))
  7432+ 00397A  0101               	movlb	1	; () banked
  7433+ 00397C  0101               	movlb	1	; () banked
  7434+ 00397E  6F7D               	movwf	(0+(?___ftmul+03h))&0ffh
  7435+ 003980  0E00               	movlw	high(float24(0.50000000000000000))
  7436+ 003982  0101               	movlb	1	; () banked
  7437+ 003984  0101               	movlb	1	; () banked
  7438+ 003986  6F7E               	movwf	(1+(?___ftmul+03h))&0ffh
  7439+ 003988  0E3F               	movlw	low highword(float24(0.50000000000000000)
      +                          )
  7440+ 00398A  0101               	movlb	1	; () banked
  7441+ 00398C  0101               	movlb	1	; () banked
  7442+ 00398E  6F7F               	movwf	(2+(?___ftmul+03h))&0ffh
  7443+                          
  7444+ 003990  ECA9  F020         	call	___ftmul	;wreg free
  7445+ 003994  C17A  F15B         	movff	0+?___ftmul,(?_fround)
  7446+ 003998  C17B  F15C         	movff	1+?___ftmul,(?_fround+1)
  7447+ 00399C  C17C  F15D         	movff	2+?___ftmul,(?_fround+2)
  7448+ 0039A0  D0B2               	goto	l183
  7449+                          	line	415
  7450+                          	
  7451+ 0039A2                     l184:		; BSR set to: ?
  7452+                          
  7453+                          ;doprnt.c: 415: else if(prec > 10)
  7454+ 0039A2  0E0A               	movlw	(0Bh-1)
  7455+ 0039A4  0101               	movlb	1	; () banked
  7456+ 0039A6  0101               	movlb	1	; () banked
  7457+ 0039A8  655B               	cpfsgt	((fround@prec))&0ffh
  7458+ 0039AA  D001               	goto	u6481
  7459+ 0039AC  D001               	goto	u6480
  7460+ 0039AE                     u6481:
  7461+ 0039AE  D07A               	goto	l185
  7462+ 0039B0                     u6480:
  7463+                          	line	416
  7464+ 0039B0  0E0A               	movlw	low(0Ah)
  7465+ 0039B2  0101               	movlb	1	; () banked
  7466+ 0039B4  0101               	movlb	1	; () banked
  7467+ 0039B6  6F7C               	movwf	(0+(?___awdiv+02h))&0ffh
  7468+ 0039B8  0E00               	movlw	high(0Ah)
  7469+ 0039BA  0101               	movlb	1	; () banked
  7470+ 0039BC  6F7D               	movwf	(1+(?___awdiv+02h))&0ffh
  7471+ 0039BE  0101               	movlb	1	; () banked
  7472+ 0039C0  0101               	movlb	1	; () banked
  7473+ 0039C2  C15B  F17A         	movff	(fround@prec),(?___awdiv)
  7474+ 0039C6  0101               	movlb	1	; () banked
  7475+ 0039C8  0101               	movlb	1	; () banked
  7476+ 0039CA  6B7B               	clrf	((?___awdiv+1))&0ffh
  7477+ 0039CC  EC15  F025         	call	___awdiv	;wreg free
  7478+ 0039D0  C17A  F167         	movff	0+?___awdiv,(_fround$1247)
  7479+ 0039D4  C17B  F168         	movff	1+?___awdiv,(_fround$1247+1)
  7480+ 0039D8  0E0A               	movlw	low(0Ah)
  7481+ 0039DA  0101               	movlb	1	; () banked
  7482+ 0039DC  0101               	movlb	1	; () banked
  7483+ 0039DE  6F7C               	movwf	(0+(?___awmod+02h))&0ffh
  7484+ 0039E0  0E00               	movlw	high(0Ah)
  7485+ 0039E2  0101               	movlb	1	; () banked
  7486+ 0039E4  6F7D               	movwf	(1+(?___awmod+02h))&0ffh
  7487+ 0039E6  0101               	movlb	1	; () banked
  7488+ 0039E8  0101               	movlb	1	; () banked
  7489+ 0039EA  C15B  F17A         	movff	(fround@prec),(?___awmod)
  7490+ 0039EE  0101               	movlb	1	; () banked
  7491+ 0039F0  0101               	movlb	1	; () banked
  7492+ 0039F2  6B7B               	clrf	((?___awmod+1))&0ffh
  7493+ 0039F4  EC38  F026         	call	___awmod	;wreg free
  7494+ 0039F8  0101               	movlb	1	; () banked
  7495+ 0039FA  0101               	movlb	1	; () banked
  7496+ 0039FC  517A               	movf	(0+?___awmod)&0ffh,w
  7497+ 0039FE  0D03               	mullw	03h
  7498+ 003A00  0E29               	movlw	low((__npowers_))
  7499+ 003A02  24F3               	addwf	(prodl),c,w
  7500+ 003A04  6EF6               	movwf	tblptrl
  7501+ 003A06  6AF7               	clrf	tblptrh
  7502+ 003A08  0E10               	movlw	high((__npowers_))
  7503+ 003A0A  22F7               	addwfc	tblptrh
  7504+ 003A0C  6AF8               	clrf	tblptru
  7505+ 003A0E  0E00               	movlw	low highword(__mediumconst)
  7506+ 003A10  22F8               	addwfc	tblptru
  7507+ 003A12  0009               	tblrd	*+
  7508+                          	
  7509+ 003A14  CFF5 F169          	movff	tablat,??_fround+11+0
  7510+ 003A18  0009               	tblrd	*+
  7511+                          	
  7512+ 003A1A  CFF5 F16A          	movff	tablat,??_fround+11+0+1
  7513+ 003A1E  0009               	tblrd	*+
  7514+                          	
  7515+ 003A20  CFF5 F16B          	movff	tablat,??_fround+11+0+2
  7516+ 003A24  C169  F17D         	movff	??_fround+11+0,0+(?___ftmul+03h)
  7517+ 003A28  C16A  F17E         	movff	??_fround+11+1,1+(?___ftmul+03h)
  7518+ 003A2C  C16B  F17F         	movff	??_fround+11+2,2+(?___ftmul+03h)
  7519+ 003A30  0101               	movlb	1	; () banked
  7520+ 003A32  0101               	movlb	1	; () banked
  7521+ 003A34  5167               	movf	((_fround$1247))&0ffh,w
  7522+ 003A36  0F09               	addlw	low(09h)
  7523+ 003A38  0D03               	mullw	03h
  7524+ 003A3A  0E29               	movlw	low((__npowers_))
  7525+ 003A3C  24F3               	addwf	(prodl),c,w
  7526+ 003A3E  6EF6               	movwf	tblptrl
  7527+ 003A40  6AF7               	clrf	tblptrh
  7528+ 003A42  0E10               	movlw	high((__npowers_))
  7529+ 003A44  22F7               	addwfc	tblptrh
  7530+ 003A46  6AF8               	clrf	tblptru
  7531+ 003A48  0E00               	movlw	low highword(__mediumconst)
  7532+ 003A4A  22F8               	addwfc	tblptru
  7533+ 003A4C  0009               	tblrd	*+
  7534+                          	
  7535+ 003A4E  CFF5 F16C          	movff	tablat,??_fround+14+0
  7536+ 003A52  0009               	tblrd	*+
  7537+                          	
  7538+ 003A54  CFF5 F16D          	movff	tablat,??_fround+14+0+1
  7539+ 003A58  0009               	tblrd	*+
  7540+                          	
  7541+ 003A5A  CFF5 F16E          	movff	tablat,??_fround+14+0+2
  7542+ 003A5E  C16C  F17A         	movff	??_fround+14+0,(?___ftmul)
  7543+ 003A62  C16D  F17B         	movff	??_fround+14+1,(?___ftmul+1)
  7544+ 003A66  C16E  F17C         	movff	??_fround+14+2,(?___ftmul+2)
  7545+ 003A6A  ECA9  F020         	call	___ftmul	;wreg free
  7546+ 003A6E  C17A  F17A         	movff	0+?___ftmul,(?___ftmul)
  7547+ 003A72  C17B  F17B         	movff	1+?___ftmul,(?___ftmul+1)
  7548+ 003A76  C17C  F17C         	movff	2+?___ftmul,(?___ftmul+2)
  7549+ 003A7A  0E00               	movlw	low(float24(0.50000000000000000))
  7550+ 003A7C  0101               	movlb	1	; () banked
  7551+ 003A7E  0101               	movlb	1	; () banked
  7552+ 003A80  6F7D               	movwf	(0+(?___ftmul+03h))&0ffh
  7553+ 003A82  0E00               	movlw	high(float24(0.50000000000000000))
  7554+ 003A84  0101               	movlb	1	; () banked
  7555+ 003A86  0101               	movlb	1	; () banked
  7556+ 003A88  6F7E               	movwf	(1+(?___ftmul+03h))&0ffh
  7557+ 003A8A  0E3F               	movlw	low highword(float24(0.50000000000000000)
      +                          )
  7558+ 003A8C  0101               	movlb	1	; () banked
  7559+ 003A8E  0101               	movlb	1	; () banked
  7560+ 003A90  6F7F               	movwf	(2+(?___ftmul+03h))&0ffh
  7561+                          
  7562+ 003A92  ECA9  F020         	call	___ftmul	;wreg free
  7563+ 003A96  C17A  F15B         	movff	0+?___ftmul,(?_fround)
  7564+ 003A9A  C17B  F15C         	movff	1+?___ftmul,(?_fround+1)
  7565+ 003A9E  C17C  F15D         	movff	2+?___ftmul,(?_fround+2)
  7566+ 003AA2  D031               	goto	l183
  7567+                          	line	417
  7568+                          	
  7569+ 003AA4                     l185:		; BSR set to: ?
  7570+                          
  7571+ 003AA4  0E00               	movlw	low(float24(0.50000000000000000))
  7572+ 003AA6  0101               	movlb	1	; () banked
  7573+ 003AA8  0101               	movlb	1	; () banked
  7574+ 003AAA  6F7D               	movwf	(0+(?___ftmul+03h))&0ffh
  7575+ 003AAC  0E00               	movlw	high(float24(0.50000000000000000))
  7576+ 003AAE  0101               	movlb	1	; () banked
  7577+ 003AB0  0101               	movlb	1	; () banked
  7578+ 003AB2  6F7E               	movwf	(1+(?___ftmul+03h))&0ffh
  7579+ 003AB4  0E3F               	movlw	low highword(float24(0.50000000000000000)
      +                          )
  7580+ 003AB6  0101               	movlb	1	; () banked
  7581+ 003AB8  0101               	movlb	1	; () banked
  7582+ 003ABA  6F7F               	movwf	(2+(?___ftmul+03h))&0ffh
  7583+                          
  7584+ 003ABC  0101               	movlb	1	; () banked
  7585+ 003ABE  0101               	movlb	1	; () banked
  7586+ 003AC0  515B               	movf	((fround@prec))&0ffh,w
  7587+ 003AC2  0D03               	mullw	03h
  7588+ 003AC4  0E29               	movlw	low((__npowers_))
  7589+ 003AC6  24F3               	addwf	(prodl),c,w
  7590+ 003AC8  6EF6               	movwf	tblptrl
  7591+ 003ACA  6AF7               	clrf	tblptrh
  7592+ 003ACC  0E10               	movlw	high((__npowers_))
  7593+ 003ACE  22F7               	addwfc	tblptrh
  7594+ 003AD0  6AF8               	clrf	tblptru
  7595+ 003AD2  0E00               	movlw	low highword(__mediumconst)
  7596+ 003AD4  22F8               	addwfc	tblptru
  7597+ 003AD6  0009               	tblrd	*+
  7598+                          	
  7599+ 003AD8  CFF5 F169          	movff	tablat,??_fround+11+0
  7600+ 003ADC  0009               	tblrd	*+
  7601+                          	
  7602+ 003ADE  CFF5 F16A          	movff	tablat,??_fround+11+0+1
  7603+ 003AE2  0009               	tblrd	*+
  7604+                          	
  7605+ 003AE4  CFF5 F16B          	movff	tablat,??_fround+11+0+2
  7606+ 003AE8  C169  F17A         	movff	??_fround+11+0,(?___ftmul)
  7607+ 003AEC  C16A  F17B         	movff	??_fround+11+1,(?___ftmul+1)
  7608+ 003AF0  C16B  F17C         	movff	??_fround+11+2,(?___ftmul+2)
  7609+ 003AF4  ECA9  F020         	call	___ftmul	;wreg free
  7610+ 003AF8  C17A  F15B         	movff	0+?___ftmul,(?_fround)
  7611+ 003AFC  C17B  F15C         	movff	1+?___ftmul,(?_fround+1)
  7612+ 003B00  C17C  F15D         	movff	2+?___ftmul,(?_fround+2)
  7613+ 003B04  D000               	goto	l183
  7614+                          	line	418
  7615+                          ;doprnt.c: 418: }
  7616+ 003B06                     l183:
  7617+                          			; BSR set to: ?
  7618+                          
  7619+ 003B06  0012               	return
  7620+                          	opt stack 0
  7621+                          GLOBAL __end_of_fround
  7622+ 003B08                     	__end_of_fround:
  7623+                          	FNSIZE	_fround,17,3
  7624+                          ; =============== function _fround ends ========
      +                          ====
  7625+                          
  7626+                          	signat	_fround,4219
  7627+                          	global	___ftneg
  7628+                          	global	??___ftneg
  7629+                          	global	?___ftneg
  7630+                                  psect   text8,class=CODE,space=0,reloc=2
  7631+                          
  7632+                          	opt lm
  7633+                          	file	"C:\Program Files (x86)\HI-TECH Software\P
      +                          ICC-18\PRO\9.63\sources\ftneg.c"
  7634+                          	line	16
  7635+ 000000                     	__size_of___ftneg	equ	__end_of___ftneg-___ftneg
  7636+                          	
  7637+ 005516                     ___ftneg:		; BSR set to: ?
  7638+                          
  7639+                          	opt stack 28
  7640+                          	line	17
  7641+ 005516  0101               	movlb	1	; () banked
  7642+ 005518  0101               	movlb	1	; () banked
  7643+ 00551A  515B               	movf	((___ftneg@f1))&0ffh,w
  7644+ 00551C  0101               	movlb	1	; () banked
  7645+ 00551E  115C               	iorwf	((___ftneg@f1+1))&0ffh,w
  7646+ 005520  0101               	movlb	1	; () banked
  7647+ 005522  115D               	iorwf	((___ftneg@f1+2))&0ffh,w
  7648+ 005524  B4D8               	btfsc	status,2
  7649+ 005526  D001               	goto	u6491
  7650+ 005528  D001               	goto	u6490
  7651+ 00552A                     u6491:
  7652+ 00552A  D00C               	goto	l754
  7653+ 00552C                     u6490:
  7654+                          	line	18
  7655+ 00552C  0E00               	movlw	low(0800000h)
  7656+ 00552E  0101               	movlb	1	; () banked
  7657+ 005530  0101               	movlb	1	; () banked
  7658+ 005532  1B5B               	xorwf	((___ftneg@f1))&0ffh
  7659+ 005534  0E00               	movlw	high(0800000h)
  7660+ 005536  0101               	movlb	1	; () banked
  7661+ 005538  0101               	movlb	1	; () banked
  7662+ 00553A  1B5C               	xorwf	((___ftneg@f1+1))&0ffh
  7663+ 00553C  0E80               	movlw	low highword(0800000h)
  7664+ 00553E  0101               	movlb	1	; () banked
  7665+ 005540  0101               	movlb	1	; () banked
  7666+ 005542  1B5D               	xorwf	((___ftneg@f1+2))&0ffh
  7667+                          
  7668+                          	
  7669+ 005544                     l754:		; BSR set to: ?
  7670+                          
  7671+                          	line	19
  7672+ 005544  C15B  F15B         	movff	(___ftneg@f1),(?___ftneg)
  7673+ 005548  C15C  F15C         	movff	(___ftneg@f1+1),(?___ftneg+1)
  7674+ 00554C  C15D  F15D         	movff	(___ftneg@f1+2),(?___ftneg+2)
  7675+ 005550  D000               	goto	l753
  7676+                          	line	20
  7677+ 005552                     l753:
  7678+                          			; BSR set to: ?
  7679+                          
  7680+ 005552  0012               	return
  7681+                          	opt stack 0
  7682+                          GLOBAL __end_of___ftneg
  7683+ 005554                     	__end_of___ftneg:
  7684+                          	FNSIZE	___ftneg,0,3
  7685+                          ; =============== function ___ftneg ends =======
      +                          =====
  7686+                          
  7687+                          	signat	___ftneg,4219
  7688+                          	global	___fttol
  7689+                          	global	??___fttol
  7690+                          	global	?___fttol
  7691+                                  psect   text9,class=CODE,space=0,reloc=2
  7692+                          
  7693+                          	opt lm
  7694+                          	file	"C:\Program Files (x86)\HI-TECH Software\P
      +                          ICC-18\PRO\9.63\sources\fttol.c"
  7695+                          	line	16
  7696+ 000000                     	__size_of___fttol	equ	__end_of___fttol-___fttol
  7697+                          	
  7698+ 0047A8                     ___fttol:		; BSR set to: ?
  7699+                          
  7700+                          	opt stack 28
  7701+                          	line	20
  7702+ 0047A8  0101               	movlb	1	; () banked
  7703+ 0047AA  0E60               	movlw	low(___fttol@exp1)
  7704+ 0047AC  0101               	movlb	1	; () banked
  7705+ 0047AE  0101               	movlb	1	; () banked
  7706+ 0047B0  6F89               	movwf	(0+(?___ftunpack+02h))&0ffh
  7707+ 0047B2  0101               	movlb	1	; () banked
  7708+ 0047B4  0E01               	movlw	high(___fttol@exp1)
  7709+ 0047B6  0101               	movlb	1	; () banked
  7710+ 0047B8  6F8A               	movwf	(1+(?___ftunpack+02h))&0ffh
  7711+ 0047BA  0101               	movlb	1	; () banked
  7712+ 0047BC  0E5B               	movlw	low(___fttol@f1)
  7713+ 0047BE  0101               	movlb	1	; () banked
  7714+ 0047C0  0101               	movlb	1	; () banked
  7715+ 0047C2  6F87               	movwf	((?___ftunpack))&0ffh
  7716+ 0047C4  0101               	movlb	1	; () banked
  7717+ 0047C6  0E01               	movlw	high(___fttol@f1)
  7718+ 0047C8  0101               	movlb	1	; () banked
  7719+ 0047CA  6F88               	movwf	((?___ftunpack+1))&0ffh
  7720+ 0047CC  EC68  F028         	call	___ftunpack	;wreg free
  7721+ 0047D0  0101               	movlb	1	; () banked
  7722+ 0047D2  0101               	movlb	1	; () banked
  7723+ 0047D4  6F5F               	movwf	((___fttol@sign1))&0ffh
  7724+                          	line	21
  7725+ 0047D6  0101               	movlb	1	; () banked
  7726+ 0047D8  0101               	movlb	1	; () banked
  7727+ 0047DA  515B               	movf	((___fttol@f1))&0ffh,w
  7728+ 0047DC  0101               	movlb	1	; () banked
  7729+ 0047DE  0101               	movlb	1	; () banked
  7730+ 0047E0  6F61               	movwf	((___fttol@lval))&0ffh
  7731+ 0047E2  0101               	movlb	1	; () banked
  7732+ 0047E4  0101               	movlb	1	; () banked
  7733+ 0047E6  515C               	movf	((___fttol@f1+1))&0ffh,w
  7734+ 0047E8  0101               	movlb	1	; () banked
  7735+ 0047EA  6F62               	movwf	1+((___fttol@lval))&0ffh
  7736+                          	
  7737+ 0047EC  0101               	movlb	1	; () banked
  7738+ 0047EE  515D               	movf	((___fttol@f1+2))&0ffh,w
  7739+ 0047F0  0101               	movlb	1	; () banked
  7740+ 0047F2  6F63               	movwf	2+((___fttol@lval))&0ffh
  7741+                          	
  7742+ 0047F4  0101               	movlb	1	; () banked
  7743+ 0047F6  6B64               	clrf	3+((___fttol@lval))&0ffh
  7744+                          	line	22
  7745+ 0047F8  0E8E               	movlw	(08Eh)&0ffh
  7746+ 0047FA  0101               	movlb	1	; () banked
  7747+ 0047FC  0101               	movlb	1	; () banked
  7748+ 0047FE  5F60               	subwf	((___fttol@exp1))&0ffh
  7749+                          	line	23
  7750+ 004800  0101               	movlb	1	; () banked
  7751+ 004802  0101               	movlb	1	; () banked
  7752+ 004804  AF60               	btfss	((___fttol@exp1))&0ffh,7
  7753+ 004806  D001               	goto	u6501
  7754+ 004808  D001               	goto	u6500
  7755+ 00480A                     u6501:
  7756+ 00480A  D026               	goto	l663
  7757+ 00480C                     u6500:
  7758+                          	line	24
  7759+ 00480C  0101               	movlb	1	; () banked
  7760+ 00480E  0101               	movlb	1	; () banked
  7761+ 004810  5160               	movf	((___fttol@exp1))&0ffh,w
  7762+ 004812  0A80               	xorlw	80h
  7763+ 004814  0F8F               	addlw	-((-15)^80h)
  7764+ 004816  B0D8               	btfsc	status,0
  7765+ 004818  D001               	goto	u6511
  7766+ 00481A  D001               	goto	u6510
  7767+ 00481C                     u6511:
  7768+ 00481C  D00E               	goto	l667
  7769+ 00481E                     u6510:
  7770+                          	line	25
  7771+ 00481E  0E00               	movlw	low(0)
  7772+ 004820  0101               	movlb	1	; () banked
  7773+ 004822  0101               	movlb	1	; () banked
  7774+ 004824  6F5B               	movwf	((?___fttol))&0ffh
  7775+ 004826  0E00               	movlw	high(0)
  7776+ 004828  0101               	movlb	1	; () banked
  7777+ 00482A  6F5C               	movwf	((?___fttol+1))&0ffh
  7778+ 00482C  0E00               	movlw	low highword(0)
  7779+ 00482E  0101               	movlb	1	; () banked
  7780+ 004830  6F5D               	movwf	((?___fttol+2))&0ffh
  7781+ 004832  0E00               	movlw	high highword(0)
  7782+ 004834  0101               	movlb	1	; () banked
  7783+ 004836  6F5E               	movwf	((?___fttol+3))&0ffh
  7784+ 004838  D058               	goto	l662
  7785+                          	line	26
  7786+                          	
  7787+ 00483A                     l667:		; BSR set to: ?
  7788+                          
  7789+                          	line	27
  7790+ 00483A  0101               	movlb	1	; () banked
  7791+ 00483C  90D8               	bcf	status,0
  7792+ 00483E  0101               	movlb	1	; () banked
  7793+ 004840  3364               	rrcf	((___fttol@lval+3))&0ffh
  7794+ 004842  0101               	movlb	1	; () banked
  7795+ 004844  3363               	rrcf	((___fttol@lval+2))&0ffh
  7796+ 004846  0101               	movlb	1	; () banked
  7797+ 004848  3362               	rrcf	((___fttol@lval+1))&0ffh
  7798+ 00484A  0101               	movlb	1	; () banked
  7799+ 00484C  3361               	rrcf	((___fttol@lval))&0ffh
  7800+                          	line	28
  7801+ 00484E  0101               	movlb	1	; () banked
  7802+ 004850  0101               	movlb	1	; () banked
  7803+ 004852  3F60               	incfsz	((___fttol@exp1))&0ffh
  7804+                          	
  7805+ 004854  D7F2               	goto	l667
  7806+                          	
  7807+ 004856                     l666:		; BSR set to: ?
  7808+                          
  7809+                          	line	29
  7810+ 004856  D029               	goto	l668
  7811+                          	
  7812+ 004858                     l663:		; BSR set to: ?
  7813+                          
  7814+                          	line	30
  7815+ 004858  0E1F               	movlw	(020h-1)
  7816+ 00485A  0101               	movlb	1	; () banked
  7817+ 00485C  0101               	movlb	1	; () banked
  7818+ 00485E  6560               	cpfsgt	((___fttol@exp1))&0ffh
  7819+ 004860  D001               	goto	u6521
  7820+ 004862  D001               	goto	u6520
  7821+ 004864                     u6521:
  7822+ 004864  D00E               	goto	l669
  7823+ 004866                     u6520:
  7824+                          	line	31
  7825+ 004866  0E00               	movlw	low(0)
  7826+ 004868  0101               	movlb	1	; () banked
  7827+ 00486A  0101               	movlb	1	; () banked
  7828+ 00486C  6F5B               	movwf	((?___fttol))&0ffh
  7829+ 00486E  0E00               	movlw	high(0)
  7830+ 004870  0101               	movlb	1	; () banked
  7831+ 004872  6F5C               	movwf	((?___fttol+1))&0ffh
  7832+ 004874  0E00               	movlw	low highword(0)
  7833+ 004876  0101               	movlb	1	; () banked
  7834+ 004878  6F5D               	movwf	((?___fttol+2))&0ffh
  7835+ 00487A  0E00               	movlw	high highword(0)
  7836+ 00487C  0101               	movlb	1	; () banked
  7837+ 00487E  6F5E               	movwf	((?___fttol+3))&0ffh
  7838+ 004880  D034               	goto	l662
  7839+                          	
  7840+ 004882                     l669:		; BSR set to: ?
  7841+                          
  7842+                          	line	32
  7843+ 004882  D00D               	goto	l670
  7844+                          	
  7845+ 004884                     l671:		; BSR set to: ?
  7846+                          
  7847+                          	line	33
  7848+ 004884  0101               	movlb	1	; () banked
  7849+ 004886  90D8               	bcf	status,0
  7850+ 004888  0101               	movlb	1	; () banked
  7851+ 00488A  3761               	rlcf	((___fttol@lval))&0ffh
  7852+ 00488C  0101               	movlb	1	; () banked
  7853+ 00488E  3762               	rlcf	((___fttol@lval+1))&0ffh
  7854+ 004890  0101               	movlb	1	; () banked
  7855+ 004892  3763               	rlcf	((___fttol@lval+2))&0ffh
  7856+ 004894  0101               	movlb	1	; () banked
  7857+ 004896  3764               	rlcf	((___fttol@lval+3))&0ffh
  7858+                          	line	34
  7859+ 004898  0101               	movlb	1	; () banked
  7860+ 00489A  0101               	movlb	1	; () banked
  7861+ 00489C  0760               	decf	((___fttol@exp1))&0ffh
  7862+                          	line	35
  7863+                          	
  7864+ 00489E                     l670:		; BSR set to: ?
  7865+                          
  7866+                          	line	32
  7867+ 00489E  0101               	movlb	1	; () banked
  7868+ 0048A0  0101               	movlb	1	; () banked
  7869+ 0048A2  6760               	tstfsz	((___fttol@exp1))&0ffh
  7870+ 0048A4  D001               	goto	u6531
  7871+ 0048A6  D001               	goto	u6530
  7872+ 0048A8                     u6531:
  7873+ 0048A8  D7ED               	goto	l671
  7874+ 0048AA                     u6530:
  7875+                          	
  7876+ 0048AA                     l672:		; BSR set to: ?
  7877+                          
  7878+                          	line	36
  7879+                          	
  7880+ 0048AA                     l668:		; BSR set to: ?
  7881+                          
  7882+                          	line	37
  7883+ 0048AA  0101               	movlb	1	; () banked
  7884+ 0048AC  0101               	movlb	1	; () banked
  7885+ 0048AE  515F               	movf	((___fttol@sign1))&0ffh,w
  7886+ 0048B0  B4D8               	btfsc	status,2
  7887+ 0048B2  D001               	goto	u6541
  7888+ 0048B4  D001               	goto	u6540
  7889+ 0048B6                     u6541:
  7890+ 0048B6  D010               	goto	l673
  7891+ 0048B8                     u6540:
  7892+                          	line	38
  7893+ 0048B8  0101               	movlb	1	; () banked
  7894+ 0048BA  0101               	movlb	1	; () banked
  7895+ 0048BC  1F64               	comf	((___fttol@lval+3))&0ffh
  7896+ 0048BE  0101               	movlb	1	; () banked
  7897+ 0048C0  1F63               	comf	((___fttol@lval+2))&0ffh
  7898+ 0048C2  0101               	movlb	1	; () banked
  7899+ 0048C4  1F62               	comf	((___fttol@lval+1))&0ffh
  7900+ 0048C6  0101               	movlb	1	; () banked
  7901+ 0048C8  6D61               	negf	((___fttol@lval))&0ffh
  7902+ 0048CA  0E00               	movlw	0
  7903+ 0048CC  0101               	movlb	1	; () banked
  7904+ 0048CE  2362               	addwfc	((___fttol@lval+1))&0ffh
  7905+ 0048D0  0101               	movlb	1	; () banked
  7906+ 0048D2  2363               	addwfc	((___fttol@lval+2))&0ffh
  7907+ 0048D4  0101               	movlb	1	; () banked
  7908+ 0048D6  2364               	addwfc	((___fttol@lval+3))&0ffh
  7909+                          	
  7910+ 0048D8                     l673:		; BSR set to: ?
  7911+                          
  7912+                          	line	39
  7913+ 0048D8  C161  F15B         	movff	(___fttol@lval),(?___fttol)
  7914+ 0048DC  C162  F15C         	movff	(___fttol@lval+1),(?___fttol+1)
  7915+ 0048E0  C163  F15D         	movff	(___fttol@lval+2),(?___fttol+2)
  7916+ 0048E4  C164  F15E         	movff	(___fttol@lval+3),(?___fttol+3)
  7917+ 0048E8  D000               	goto	l662
  7918+                          	line	40
  7919+ 0048EA                     l662:
  7920+                          			; BSR set to: ?
  7921+                          
  7922+ 0048EA  0012               	return
  7923+                          	opt stack 0
  7924+                          GLOBAL __end_of___fttol
  7925+ 0048EC                     	__end_of___fttol:
  7926+                          	FNSIZE	___fttol,6,4
  7927+                          ; =============== function ___fttol ends =======
      +                          =====
  7928+                          
  7929+                          	signat	___fttol,4220
  7930+                          	global	___asftadd
  7931+                          	global	??___asftadd
  7932+                          	global	?___asftadd
  7933+                                  psect   text10,class=CODE,space=0,reloc=
      +                          2
  7934+                          
  7935+                          	opt lm
  7936+                          	file	"C:\Program Files (x86)\HI-TECH Software\P
      +                          ICC-18\PRO\9.63\sources\asftadd.c"
  7937+                          	line	5
  7938+ 000000                     	__size_of___asftadd	equ	__end_of___asftadd-___a
      +                          sftadd
  7939+                          	
  7940+ 00544A                     ___asftadd:		; BSR set to: ?
  7941+                          
  7942+                          	opt stack 28
  7943+                          	line	6
  7944+ 00544A  C15D  F169         	movff	(___asftadd@f2),0+(?___ftadd+03h)
  7945+ 00544E  C15E  F16A         	movff	(___asftadd@f2+1),1+(?___ftadd+03h)
  7946+ 005452  C15F  F16B         	movff	(___asftadd@f2+2),2+(?___ftadd+03h)
  7947+ 005456  C15B  FFE9         	movff	(___asftadd@f1p),fsr0l
  7948+ 00545A  C15C  FFEA         	movff	(___asftadd@f1p+1),fsr0h
  7949+ 00545E  0101               	movlb	1	; () banked
  7950+ 005460  CFEE F166          	movff	postinc0,(?___ftadd)
  7951+ 005464  0101               	movlb	1	; () banked
  7952+ 005466  CFEE F167          	movff	postinc0,(?___ftadd+1)
  7953+ 00546A  0101               	movlb	1	; () banked
  7954+ 00546C  CFED F168          	movff	postdec0,(?___ftadd+2)
  7955+ 005470  EC63  F01A         	call	___ftadd	;wreg free
  7956+ 005474  C15B  FFE9         	movff	(___asftadd@f1p),fsr0l
  7957+ 005478  C15C  FFEA         	movff	(___asftadd@f1p+1),fsr0h
  7958+ 00547C  C166  FFEE         	movff	0+?___ftadd,postinc0
  7959+ 005480  C167  FFEE         	movff	1+?___ftadd,postinc0
  7960+ 005484  C168  FFED         	movff	2+?___ftadd,postdec0
  7961+ 005488  52ED               	movf	postdec0
  7962+ 00548A  D000               	goto	l621
  7963+                          	line	7
  7964+ 00548C                     l621:
  7965+                          			; BSR set to: ?
  7966+                          
  7967+ 00548C  0012               	return
  7968+                          	opt stack 0
  7969+                          GLOBAL __end_of___asftadd
  7970+ 00548E                     	__end_of___asftadd:
  7971+                          	FNSIZE	___asftadd,0,5
  7972+                          ; =============== function ___asftadd ends =====
      +                          =======
  7973+                          
  7974+                          	signat	___asftadd,8315
  7975+                          	global	___asftmul
  7976+                          	global	??___asftmul
  7977+                          	global	?___asftmul
  7978+                                  psect   text11,class=CODE,space=0,reloc=
      +                          2
  7979+                          
  7980+                          	opt lm
  7981+                          	file	"C:\Program Files (x86)\HI-TECH Software\P
      +                          ICC-18\PRO\9.63\sources\asftmul.c"
  7982+                          	line	5
  7983+ 000000                     	__size_of___asftmul	equ	__end_of___asftmul-___a
      +                          sftmul
  7984+                          	
  7985+ 0053C2                     ___asftmul:		; BSR set to: ?
  7986+                          
  7987+                          	opt stack 28
  7988+                          	line	6
  7989+ 0053C2  C15D  F17D         	movff	(___asftmul@f2),0+(?___ftmul+03h)
  7990+ 0053C6  C15E  F17E         	movff	(___asftmul@f2+1),1+(?___ftmul+03h)
  7991+ 0053CA  C15F  F17F         	movff	(___asftmul@f2+2),2+(?___ftmul+03h)
  7992+ 0053CE  C15B  FFE9         	movff	(___asftmul@f1p),fsr0l
  7993+ 0053D2  C15C  FFEA         	movff	(___asftmul@f1p+1),fsr0h
  7994+ 0053D6  0101               	movlb	1	; () banked
  7995+ 0053D8  CFEE F17A          	movff	postinc0,(?___ftmul)
  7996+ 0053DC  0101               	movlb	1	; () banked
  7997+ 0053DE  CFEE F17B          	movff	postinc0,(?___ftmul+1)
  7998+ 0053E2  0101               	movlb	1	; () banked
  7999+ 0053E4  CFED F17C          	movff	postdec0,(?___ftmul+2)
  8000+ 0053E8  ECA9  F020         	call	___ftmul	;wreg free
  8001+ 0053EC  C15B  FFE9         	movff	(___asftmul@f1p),fsr0l
  8002+ 0053F0  C15C  FFEA         	movff	(___asftmul@f1p+1),fsr0h
  8003+ 0053F4  C17A  FFEE         	movff	0+?___ftmul,postinc0
  8004+ 0053F8  C17B  FFEE         	movff	1+?___ftmul,postinc0
  8005+ 0053FC  C17C  FFED         	movff	2+?___ftmul,postdec0
  8006+ 005400  52ED               	movf	postdec0
  8007+ 005402  D000               	goto	l659
  8008+                          	line	7
  8009+ 005404                     l659:
  8010+                          			; BSR set to: ?
  8011+                          
  8012+ 005404  0012               	return
  8013+                          	opt stack 0
  8014+                          GLOBAL __end_of___asftmul
  8015+ 005406                     	__end_of___asftmul:
  8016+                          	FNSIZE	___asftmul,0,5
  8017+                          ; =============== function ___asftmul ends =====
      +                          =======
  8018+                          
  8019+                          	signat	___asftmul,8315
  8020+                          	global	___ftge
  8021+                          	global	??___ftge
  8022+                          	global	?___ftge
  8023+                                  psect   text12,class=CODE,space=0,reloc=
      +                          2
  8024+                          
  8025+                          	opt lm
  8026+                          	file	"C:\Program Files (x86)\HI-TECH Software\P
      +                          ICC-18\PRO\9.63\sources\ftge.c"
  8027+                          	line	5
  8028+ 000000                     	__size_of___ftge	equ	__end_of___ftge-___ftge
  8029+                          	
  8030+ 004E5A                     ___ftge:		; BSR set to: ?
  8031+                          
  8032+                          	opt stack 28
  8033+                          	line	6
  8034+ 004E5A  0101               	movlb	1	; () banked
  8035+                          	
  8036+ 004E5C  0101               	movlb	1	; () banked
  8037+ 004E5E  AF5D               	btfss	((___ftge@ff1+2))&0ffh,(23)&7
  8038+ 004E60  D001               	goto	u6551
  8039+ 004E62  D001               	goto	u6550
  8040+ 004E64                     u6551:
  8041+ 004E64  D01C               	goto	l758
  8042+ 004E66                     u6550:
  8043+                          	line	7
  8044+ 004E66  0E00               	movlw	0
  8045+ 004E68  6F61               	movwf	(??___ftge+0+0)&0ffh
  8046+ 004E6A  0E00               	movlw	0
  8047+ 004E6C  6F62               	movwf	(??___ftge+0+0+1)&0ffh
  8048+ 004E6E  0E80               	movlw	080h
  8049+ 004E70  6F63               	movwf	(??___ftge+0+0+2)&0ffh
  8050+ 004E72  0101               	movlb	1	; () banked
  8051+ 004E74  0101               	movlb	1	; () banked
  8052+ 004E76  515B               	movf	((___ftge@ff1))&0ffh,w
  8053+ 004E78  0101               	movlb	1	; () banked
  8054+ 004E7A  5D61               	subwf	(??___ftge+0+0)&0ffh,w
  8055+ 004E7C  0101               	movlb	1	; () banked
  8056+ 004E7E  0101               	movlb	1	; () banked
  8057+ 004E80  6F5B               	movwf	((___ftge@ff1))&0ffh
  8058+ 004E82  0101               	movlb	1	; () banked
  8059+ 004E84  0101               	movlb	1	; () banked
  8060+ 004E86  515C               	movf	((___ftge@ff1+1))&0ffh,w
  8061+ 004E88  0101               	movlb	1	; () banked
  8062+ 004E8A  5962               	subwfb	(??___ftge+0+1)&0ffh,w
  8063+ 004E8C  0101               	movlb	1	; () banked
  8064+ 004E8E  6F5C               	movwf	1+((___ftge@ff1))&0ffh
  8065+ 004E90  0101               	movlb	1	; () banked
  8066+ 004E92  0101               	movlb	1	; () banked
  8067+ 004E94  515D               	movf	((___ftge@ff1+2))&0ffh,w
  8068+ 004E96  0101               	movlb	1	; () banked
  8069+ 004E98  5963               	subwfb	(??___ftge+0+2)&0ffh,w
  8070+ 004E9A  0101               	movlb	1	; () banked
  8071+ 004E9C  6F5D               	movwf	2+((___ftge@ff1))&0ffh
  8072+                          	
  8073+ 004E9E                     l758:		; BSR set to: ?
  8074+                          
  8075+                          	line	8
  8076+ 004E9E  0101               	movlb	1	; () banked
  8077+                          	
  8078+ 004EA0  0101               	movlb	1	; () banked
  8079+ 004EA2  AF60               	btfss	((___ftge@ff2+2))&0ffh,(23)&7
  8080+ 004EA4  D001               	goto	u6561
  8081+ 004EA6  D001               	goto	u6560
  8082+ 004EA8                     u6561:
  8083+ 004EA8  D01C               	goto	l759
  8084+ 004EAA                     u6560:
  8085+                          	line	9
  8086+ 004EAA  0E00               	movlw	0
  8087+ 004EAC  6F61               	movwf	(??___ftge+0+0)&0ffh
  8088+ 004EAE  0E00               	movlw	0
  8089+ 004EB0  6F62               	movwf	(??___ftge+0+0+1)&0ffh
  8090+ 004EB2  0E80               	movlw	080h
  8091+ 004EB4  6F63               	movwf	(??___ftge+0+0+2)&0ffh
  8092+ 004EB6  0101               	movlb	1	; () banked
  8093+ 004EB8  0101               	movlb	1	; () banked
  8094+ 004EBA  515E               	movf	((___ftge@ff2))&0ffh,w
  8095+ 004EBC  0101               	movlb	1	; () banked
  8096+ 004EBE  5D61               	subwf	(??___ftge+0+0)&0ffh,w
  8097+ 004EC0  0101               	movlb	1	; () banked
  8098+ 004EC2  0101               	movlb	1	; () banked
  8099+ 004EC4  6F5E               	movwf	((___ftge@ff2))&0ffh
  8100+ 004EC6  0101               	movlb	1	; () banked
  8101+ 004EC8  0101               	movlb	1	; () banked
  8102+ 004ECA  515F               	movf	((___ftge@ff2+1))&0ffh,w
  8103+ 004ECC  0101               	movlb	1	; () banked
  8104+ 004ECE  5962               	subwfb	(??___ftge+0+1)&0ffh,w
  8105+ 004ED0  0101               	movlb	1	; () banked
  8106+ 004ED2  6F5F               	movwf	1+((___ftge@ff2))&0ffh
  8107+ 004ED4  0101               	movlb	1	; () banked
  8108+ 004ED6  0101               	movlb	1	; () banked
  8109+ 004ED8  5160               	movf	((___ftge@ff2+2))&0ffh,w
  8110+ 004EDA  0101               	movlb	1	; () banked
  8111+ 004EDC  5963               	subwfb	(??___ftge+0+2)&0ffh,w
  8112+ 004EDE  0101               	movlb	1	; () banked
  8113+ 004EE0  6F60               	movwf	2+((___ftge@ff2))&0ffh
  8114+                          	
  8115+ 004EE2                     l759:		; BSR set to: ?
  8116+                          
  8117+                          	line	10
  8118+ 004EE2  0E00               	movlw	low(0800000h)
  8119+ 004EE4  0101               	movlb	1	; () banked
  8120+ 004EE6  0101               	movlb	1	; () banked
  8121+ 004EE8  1B5B               	xorwf	((___ftge@ff1))&0ffh
  8122+ 004EEA  0E00               	movlw	high(0800000h)
  8123+ 004EEC  0101               	movlb	1	; () banked
  8124+ 004EEE  0101               	movlb	1	; () banked
  8125+ 004EF0  1B5C               	xorwf	((___ftge@ff1+1))&0ffh
  8126+ 004EF2  0E80               	movlw	low highword(0800000h)
  8127+ 004EF4  0101               	movlb	1	; () banked
  8128+ 004EF6  0101               	movlb	1	; () banked
  8129+ 004EF8  1B5D               	xorwf	((___ftge@ff1+2))&0ffh
  8130+                          
  8131+                          	line	11
  8132+ 004EFA  0E00               	movlw	low(0800000h)
  8133+ 004EFC  0101               	movlb	1	; () banked
  8134+ 004EFE  0101               	movlb	1	; () banked
  8135+ 004F00  1B5E               	xorwf	((___ftge@ff2))&0ffh
  8136+ 004F02  0E00               	movlw	high(0800000h)
  8137+ 004F04  0101               	movlb	1	; () banked
  8138+ 004F06  0101               	movlb	1	; () banked
  8139+ 004F08  1B5F               	xorwf	((___ftge@ff2+1))&0ffh
  8140+ 004F0A  0E80               	movlw	low highword(0800000h)
  8141+ 004F0C  0101               	movlb	1	; () banked
  8142+ 004F0E  0101               	movlb	1	; () banked
  8143+ 004F10  1B60               	xorwf	((___ftge@ff2+2))&0ffh
  8144+                          
  8145+                          	line	12
  8146+ 004F12  0101               	movlb	1	; () banked
  8147+ 004F14  0101               	movlb	1	; () banked
  8148+ 004F16  515E               	movf	((___ftge@ff2))&0ffh,w
  8149+ 004F18  0101               	movlb	1	; () banked
  8150+ 004F1A  0101               	movlb	1	; () banked
  8151+ 004F1C  5D5B               	subwf	((___ftge@ff1))&0ffh,w
  8152+ 004F1E  0101               	movlb	1	; () banked
  8153+ 004F20  0101               	movlb	1	; () banked
  8154+ 004F22  515F               	movf	((___ftge@ff2+1))&0ffh,w
  8155+ 004F24  0101               	movlb	1	; () banked
  8156+ 004F26  0101               	movlb	1	; () banked
  8157+ 004F28  595C               	subwfb	((___ftge@ff1+1))&0ffh,w
  8158+ 004F2A  0101               	movlb	1	; () banked
  8159+ 004F2C  0101               	movlb	1	; () banked
  8160+ 004F2E  5160               	movf	((___ftge@ff2+2))&0ffh,w
  8161+ 004F30  0101               	movlb	1	; () banked
  8162+ 004F32  0101               	movlb	1	; () banked
  8163+ 004F34  595D               	subwfb	((___ftge@ff1+2))&0ffh,w
  8164+ 004F36  D000               	goto	l757
  8165+                          	line	13
  8166+ 004F38                     l757:
  8167+                          			; BSR set to: ?
  8168+                          
  8169+ 004F38  0012               	return
  8170+                          	opt stack 0
  8171+                          GLOBAL __end_of___ftge
  8172+ 004F3A                     	__end_of___ftge:
  8173+                          	FNSIZE	___ftge,3,6
  8174+                          ; =============== function ___ftge ends ========
      +                          ====
  8175+                          
  8176+                          	signat	___ftge,8312
  8177+                          	global	___asftdiv
  8178+                          	global	??___asftdiv
  8179+                          	global	?___asftdiv
  8180+                                  psect   text13,class=CODE,space=0,reloc=
      +                          2
  8181+                          
  8182+                          	opt lm
  8183+                          	file	"C:\Program Files (x86)\HI-TECH Software\P
      +                          ICC-18\PRO\9.63\sources\asftdiv.c"
  8184+                          	line	5
  8185+ 000000                     	__size_of___asftdiv	equ	__end_of___asftdiv-___a
      +                          sftdiv
  8186+                          	
  8187+ 00548E                     ___asftdiv:		; BSR set to: ?
  8188+                          
  8189+                          	opt stack 28
  8190+                          	line	6
  8191+ 00548E  C15D  F163         	movff	(___asftdiv@f2),0+(?___ftdiv+03h)
  8192+ 005492  C15E  F164         	movff	(___asftdiv@f2+1),1+(?___ftdiv+03h)
  8193+ 005496  C15F  F165         	movff	(___asftdiv@f2+2),2+(?___ftdiv+03h)
  8194+ 00549A  C15B  FFE9         	movff	(___asftdiv@f1p),fsr0l
  8195+ 00549E  C15C  FFEA         	movff	(___asftdiv@f1p+1),fsr0h
  8196+ 0054A2  0101               	movlb	1	; () banked
  8197+ 0054A4  CFEE F160          	movff	postinc0,(?___ftdiv)
  8198+ 0054A8  0101               	movlb	1	; () banked
  8199+ 0054AA  CFEE F161          	movff	postinc0,(?___ftdiv+1)
  8200+ 0054AE  0101               	movlb	1	; () banked
  8201+ 0054B0  CFED F162          	movff	postdec0,(?___ftdiv+2)
  8202+ 0054B4  EC85  F021         	call	___ftdiv	;wreg free
  8203+ 0054B8  C15B  FFE9         	movff	(___asftdiv@f1p),fsr0l
  8204+ 0054BC  C15C  FFEA         	movff	(___asftdiv@f1p+1),fsr0h
  8205+ 0054C0  C160  FFEE         	movff	0+?___ftdiv,postinc0
  8206+ 0054C4  C161  FFEE         	movff	1+?___ftdiv,postinc0
  8207+ 0054C8  C162  FFED         	movff	2+?___ftdiv,postdec0
  8208+ 0054CC  52ED               	movf	postdec0
  8209+ 0054CE  D000               	goto	l630
  8210+                          	line	7
  8211+ 0054D0                     l630:
  8212+                          			; BSR set to: ?
  8213+                          
  8214+ 0054D0  0012               	return
  8215+                          	opt stack 0
  8216+                          GLOBAL __end_of___asftdiv
  8217+ 0054D2                     	__end_of___asftdiv:
  8218+                          	FNSIZE	___asftdiv,0,5
  8219+                          ; =============== function ___asftdiv ends =====
      +                          =======
  8220+                          
  8221+                          	signat	___asftdiv,8315
  8222+                          	global	___lldiv
  8223+                          	global	??___lldiv
  8224+                          	global	?___lldiv
  8225+                                  psect   text14,class=CODE,space=0,reloc=
      +                          2
  8226+                          
  8227+                          	opt lm
  8228+                          	file	"C:\Program Files (x86)\HI-TECH Software\P
      +                          ICC-18\PRO\9.63\sources\lldiv.c"
  8229+                          	line	5
  8230+ 000000                     	__size_of___lldiv	equ	__end_of___lldiv-___lldiv
  8231+                          	
  8232+ 004B5A                     ___lldiv:		; BSR set to: ?
  8233+                          
  8234+                          	opt stack 28
  8235+                          	line	9
  8236+ 004B5A  0E00               	movlw	low(0)
  8237+ 004B5C  0101               	movlb	1	; () banked
  8238+ 004B5E  0101               	movlb	1	; () banked
  8239+ 004B60  6F64               	movwf	((___lldiv@quotient))&0ffh
  8240+ 004B62  0E00               	movlw	high(0)
  8241+ 004B64  0101               	movlb	1	; () banked
  8242+ 004B66  6F65               	movwf	((___lldiv@quotient+1))&0ffh
  8243+ 004B68  0E00               	movlw	low highword(0)
  8244+ 004B6A  0101               	movlb	1	; () banked
  8245+ 004B6C  6F66               	movwf	((___lldiv@quotient+2))&0ffh
  8246+ 004B6E  0E00               	movlw	high highword(0)
  8247+ 004B70  0101               	movlb	1	; () banked
  8248+ 004B72  6F67               	movwf	((___lldiv@quotient+3))&0ffh
  8249+                          	line	10
  8250+ 004B74  0101               	movlb	1	; () banked
  8251+ 004B76  5162               	movf	((___lldiv@divisor+3))&0ffh,w
  8252+ 004B78  115F               	iorwf ((___lldiv@divisor))&0ffh,w
  8253+ 004B7A  1160               	iorwf ((___lldiv@divisor+1))&0ffh,w
  8254+ 004B7C  1161               	iorwf ((___lldiv@divisor+2))&0ffh,w
  8255+                          
  8256+ 004B7E  B4D8               	btfsc	status,2
  8257+ 004B80  D001               	goto	u6571
  8258+ 004B82  D001               	goto	u6570
  8259+ 004B84                     u6571:
  8260+ 004B84  D06B               	goto	l696
  8261+ 004B86                     u6570:
  8262+                          	line	11
  8263+ 004B86  0101               	movlb	1	; () banked
  8264+ 004B88  6F68               	movwf	(??___lldiv+5+0)&0ffh
  8265+ 004B8A  0E01               	movlw	low(01h)
  8266+ 004B8C  0101               	movlb	1	; () banked
  8267+ 004B8E  0101               	movlb	1	; () banked
  8268+ 004B90  6F63               	movwf	((___lldiv@counter))&0ffh
  8269+ 004B92  0101               	movlb	1	; () banked
  8270+ 004B94  5168               	movf	(??___lldiv+5+0)&0ffh,w
  8271+                          	line	12
  8272+ 004B96  D00D               	goto	l697
  8273+                          	
  8274+ 004B98                     l698:		; BSR set to: ?
  8275+                          
  8276+                          	line	13
  8277+ 004B98  0101               	movlb	1	; () banked
  8278+ 004B9A  90D8               	bcf	status,0
  8279+ 004B9C  0101               	movlb	1	; () banked
  8280+ 004B9E  375F               	rlcf	((___lldiv@divisor))&0ffh
  8281+ 004BA0  0101               	movlb	1	; () banked
  8282+ 004BA2  3760               	rlcf	((___lldiv@divisor+1))&0ffh
  8283+ 004BA4  0101               	movlb	1	; () banked
  8284+ 004BA6  3761               	rlcf	((___lldiv@divisor+2))&0ffh
  8285+ 004BA8  0101               	movlb	1	; () banked
  8286+ 004BAA  3762               	rlcf	((___lldiv@divisor+3))&0ffh
  8287+                          	line	14
  8288+ 004BAC  0101               	movlb	1	; () banked
  8289+ 004BAE  0101               	movlb	1	; () banked
  8290+ 004BB0  2B63               	incf	((___lldiv@counter))&0ffh
  8291+                          	line	15
  8292+                          	
  8293+ 004BB2                     l697:		; BSR set to: ?
  8294+                          
  8295+                          	line	12
  8296+ 004BB2  0101               	movlb	1	; () banked
  8297+                          	
  8298+ 004BB4  0101               	movlb	1	; () banked
  8299+ 004BB6  AF62               	btfss	((___lldiv@divisor+3))&0ffh,(31)&7
  8300+ 004BB8  D001               	goto	u6581
  8301+ 004BBA  D001               	goto	u6580
  8302+ 004BBC                     u6581:
  8303+ 004BBC  D7ED               	goto	l698
  8304+ 004BBE                     u6580:
  8305+                          	
  8306+ 004BBE                     l699:		; BSR set to: ?
  8307+                          
  8308+                          	line	16
  8309+                          	
  8310+ 004BBE                     l702:		; BSR set to: ?
  8311+                          
  8312+                          	line	17
  8313+ 004BBE  0101               	movlb	1	; () banked
  8314+ 004BC0  90D8               	bcf	status,0
  8315+ 004BC2  0101               	movlb	1	; () banked
  8316+ 004BC4  3764               	rlcf	((___lldiv@quotient))&0ffh
  8317+ 004BC6  0101               	movlb	1	; () banked
  8318+ 004BC8  3765               	rlcf	((___lldiv@quotient+1))&0ffh
  8319+ 004BCA  0101               	movlb	1	; () banked
  8320+ 004BCC  3766               	rlcf	((___lldiv@quotient+2))&0ffh
  8321+ 004BCE  0101               	movlb	1	; () banked
  8322+ 004BD0  3767               	rlcf	((___lldiv@quotient+3))&0ffh
  8323+                          	line	18
  8324+ 004BD2  0101               	movlb	1	; () banked
  8325+ 004BD4  0101               	movlb	1	; () banked
  8326+ 004BD6  515F               	movf	((___lldiv@divisor))&0ffh,w
  8327+ 004BD8  0101               	movlb	1	; () banked
  8328+ 004BDA  0101               	movlb	1	; () banked
  8329+ 004BDC  5D5B               	subwf	((___lldiv@dividend))&0ffh,w
  8330+ 004BDE  0101               	movlb	1	; () banked
  8331+ 004BE0  0101               	movlb	1	; () banked
  8332+ 004BE2  5160               	movf	((___lldiv@divisor+1))&0ffh,w
  8333+ 004BE4  0101               	movlb	1	; () banked
  8334+ 004BE6  0101               	movlb	1	; () banked
  8335+ 004BE8  595C               	subwfb	((___lldiv@dividend+1))&0ffh,w
  8336+ 004BEA  0101               	movlb	1	; () banked
  8337+ 004BEC  0101               	movlb	1	; () banked
  8338+ 004BEE  5161               	movf	((___lldiv@divisor+2))&0ffh,w
  8339+ 004BF0  0101               	movlb	1	; () banked
  8340+ 004BF2  0101               	movlb	1	; () banked
  8341+ 004BF4  595D               	subwfb	((___lldiv@dividend+2))&0ffh,w
  8342+ 004BF6  0101               	movlb	1	; () banked
  8343+ 004BF8  0101               	movlb	1	; () banked
  8344+ 004BFA  5162               	movf	((___lldiv@divisor+3))&0ffh,w
  8345+ 004BFC  0101               	movlb	1	; () banked
  8346+ 004BFE  0101               	movlb	1	; () banked
  8347+ 004C00  595E               	subwfb	((___lldiv@dividend+3))&0ffh,w
  8348+ 004C02  A0D8               	btfss	status,0
  8349+ 004C04  D001               	goto	u6591
  8350+ 004C06  D001               	goto	u6590
  8351+ 004C08                     u6591:
  8352+ 004C08  D01B               	goto	l703
  8353+ 004C0A                     u6590:
  8354+                          	line	19
  8355+ 004C0A  0101               	movlb	1	; () banked
  8356+ 004C0C  0101               	movlb	1	; () banked
  8357+ 004C0E  515F               	movf	((___lldiv@divisor))&0ffh,w
  8358+ 004C10  0101               	movlb	1	; () banked
  8359+ 004C12  0101               	movlb	1	; () banked
  8360+ 004C14  5F5B               	subwf	((___lldiv@dividend))&0ffh
  8361+ 004C16  0101               	movlb	1	; () banked
  8362+ 004C18  0101               	movlb	1	; () banked
  8363+ 004C1A  5160               	movf	((___lldiv@divisor+1))&0ffh,w
  8364+ 004C1C  0101               	movlb	1	; () banked
  8365+ 004C1E  0101               	movlb	1	; () banked
  8366+ 004C20  5B5C               	subwfb	((___lldiv@dividend+1))&0ffh
  8367+ 004C22  0101               	movlb	1	; () banked
  8368+ 004C24  0101               	movlb	1	; () banked
  8369+ 004C26  5161               	movf	((___lldiv@divisor+2))&0ffh,w
  8370+ 004C28  0101               	movlb	1	; () banked
  8371+ 004C2A  0101               	movlb	1	; () banked
  8372+ 004C2C  5B5D               	subwfb	((___lldiv@dividend+2))&0ffh
  8373+ 004C2E  0101               	movlb	1	; () banked
  8374+ 004C30  0101               	movlb	1	; () banked
  8375+ 004C32  5162               	movf	((___lldiv@divisor+3))&0ffh,w
  8376+ 004C34  0101               	movlb	1	; () banked
  8377+ 004C36  0101               	movlb	1	; () banked
  8378+ 004C38  5B5E               	subwfb	((___lldiv@dividend+3))&0ffh
  8379+                          	line	20
  8380+ 004C3A  0101               	movlb	1	; () banked
  8381+ 004C3C  0101               	movlb	1	; () banked
  8382+ 004C3E  8164               	bsf	(0+(0/8)+(___lldiv@quotient))&0ffh,(0)&7
  8383+                          	line	21
  8384+                          	
  8385+ 004C40                     l703:		; BSR set to: ?
  8386+                          
  8387+                          	line	22
  8388+ 004C40  0101               	movlb	1	; () banked
  8389+ 004C42  90D8               	bcf	status,0
  8390+ 004C44  0101               	movlb	1	; () banked
  8391+ 004C46  3362               	rrcf	((___lldiv@divisor+3))&0ffh
  8392+ 004C48  0101               	movlb	1	; () banked
  8393+ 004C4A  3361               	rrcf	((___lldiv@divisor+2))&0ffh
  8394+ 004C4C  0101               	movlb	1	; () banked
  8395+ 004C4E  3360               	rrcf	((___lldiv@divisor+1))&0ffh
  8396+ 004C50  0101               	movlb	1	; () banked
  8397+ 004C52  335F               	rrcf	((___lldiv@divisor))&0ffh
  8398+                          	line	23
  8399+ 004C54  0101               	movlb	1	; () banked
  8400+ 004C56  0101               	movlb	1	; () banked
  8401+ 004C58  2F63               	decfsz	((___lldiv@counter))&0ffh
  8402+                          	
  8403+ 004C5A  D7B1               	goto	l702
  8404+                          	
  8405+ 004C5C                     l701:		; BSR set to: ?
  8406+                          
  8407+                          	line	24
  8408+                          	
  8409+ 004C5C                     l696:		; BSR set to: ?
  8410+                          
  8411+                          	line	25
  8412+ 004C5C  C164  F15B         	movff	(___lldiv@quotient),(?___lldiv)
  8413+ 004C60  C165  F15C         	movff	(___lldiv@quotient+1),(?___lldiv+1)
  8414+ 004C64  C166  F15D         	movff	(___lldiv@quotient+2),(?___lldiv+2)
  8415+ 004C68  C167  F15E         	movff	(___lldiv@quotient+3),(?___lldiv+3)
  8416+ 004C6C  D000               	goto	l695
  8417+                          	line	26
  8418+ 004C6E                     l695:
  8419+                          			; BSR set to: ?
  8420+                          
  8421+ 004C6E  0012               	return
  8422+                          	opt stack 0
  8423+                          GLOBAL __end_of___lldiv
  8424+ 004C70                     	__end_of___lldiv:
  8425+                          	FNSIZE	___lldiv,6,8
  8426+                          ; =============== function ___lldiv ends =======
      +                          =====
  8427+                          
  8428+                          	signat	___lldiv,8316
  8429+                          	global	___lltoft
  8430+                          	global	??___lltoft
  8431+                          	global	?___lltoft
  8432+                                  psect   text15,class=CODE,space=0,reloc=
      +                          2
  8433+                          
  8434+                          	opt lm
  8435+                          	file	"C:\Program Files (x86)\HI-TECH Software\P
      +                          ICC-18\PRO\9.63\sources\lltoft.c"
  8436+                          	line	16
  8437+ 000000                     	__size_of___lltoft	equ	__end_of___lltoft-___llt
      +                          oft
  8438+                          	
  8439+ 004F3A                     ___lltoft:		; BSR set to: ?
  8440+                          
  8441+                          	opt stack 28
  8442+                          	line	20
  8443+ 004F3A  0101               	movlb	1	; () banked
  8444+ 004F3C  515E               	movf	((___lltoft@c+3))&0ffh,w
  8445+ 004F3E  115B               	iorwf ((___lltoft@c))&0ffh,w
  8446+ 004F40  115C               	iorwf ((___lltoft@c+1))&0ffh,w
  8447+ 004F42  115D               	iorwf ((___lltoft@c+2))&0ffh,w
  8448+                          
  8449+ 004F44  A4D8               	btfss	status,2
  8450+ 004F46  D001               	goto	u6601
  8451+ 004F48  D001               	goto	u6600
  8452+ 004F4A                     u6601:
  8453+ 004F4A  D00D               	goto	l716
  8454+ 004F4C                     u6600:
  8455+                          	line	21
  8456+ 004F4C  0E00               	movlw	low(float24(0.00000000000000000))
  8457+ 004F4E  0101               	movlb	1	; () banked
  8458+ 004F50  0101               	movlb	1	; () banked
  8459+ 004F52  6F5B               	movwf	((?___lltoft))&0ffh
  8460+ 004F54  0E00               	movlw	high(float24(0.00000000000000000))
  8461+ 004F56  0101               	movlb	1	; () banked
  8462+ 004F58  0101               	movlb	1	; () banked
  8463+ 004F5A  6F5C               	movwf	((?___lltoft+1))&0ffh
  8464+ 004F5C  0E00               	movlw	low highword(float24(0.00000000000000000)
      +                          )
  8465+ 004F5E  0101               	movlb	1	; () banked
  8466+ 004F60  0101               	movlb	1	; () banked
  8467+ 004F62  6F5D               	movwf	((?___lltoft+2))&0ffh
  8468+                          
  8469+ 004F64  D051               	goto	l715
  8470+                          	
  8471+ 004F66                     l716:		; BSR set to: ?
  8472+                          
  8473+                          	line	22
  8474+ 004F66  0101               	movlb	1	; () banked
  8475+ 004F68  6F63               	movwf	(??___lltoft+4+0)&0ffh
  8476+ 004F6A  0E8E               	movlw	low(08Eh)
  8477+ 004F6C  0101               	movlb	1	; () banked
  8478+ 004F6E  0101               	movlb	1	; () banked
  8479+ 004F70  6F5F               	movwf	((___lltoft@exp))&0ffh
  8480+ 004F72  0101               	movlb	1	; () banked
  8481+ 004F74  5163               	movf	(??___lltoft+4+0)&0ffh,w
  8482+                          	line	24
  8483+ 004F76  D00D               	goto	l717
  8484+                          	
  8485+ 004F78                     l718:		; BSR set to: ?
  8486+                          
  8487+                          	line	25
  8488+ 004F78  0101               	movlb	1	; () banked
  8489+ 004F7A  90D8               	bcf	status,0
  8490+ 004F7C  0101               	movlb	1	; () banked
  8491+ 004F7E  335E               	rrcf	((___lltoft@c+3))&0ffh
  8492+ 004F80  0101               	movlb	1	; () banked
  8493+ 004F82  335D               	rrcf	((___lltoft@c+2))&0ffh
  8494+ 004F84  0101               	movlb	1	; () banked
  8495+ 004F86  335C               	rrcf	((___lltoft@c+1))&0ffh
  8496+ 004F88  0101               	movlb	1	; () banked
  8497+ 004F8A  335B               	rrcf	((___lltoft@c))&0ffh
  8498+                          	line	26
  8499+ 004F8C  0101               	movlb	1	; () banked
  8500+ 004F8E  0101               	movlb	1	; () banked
  8501+ 004F90  2B5F               	incf	((___lltoft@exp))&0ffh
  8502+                          	line	27
  8503+                          	
  8504+ 004F92                     l717:		; BSR set to: ?
  8505+                          
  8506+                          	line	24
  8507+ 004F92  0E00               	movlw	0
  8508+ 004F94  0101               	movlb	1	; () banked
  8509+ 004F96  0101               	movlb	1	; () banked
  8510+ 004F98  155B               	andwf	((___lltoft@c))&0ffh,w
  8511+ 004F9A  0101               	movlb	1	; () banked
  8512+ 004F9C  6F63               	movwf	(??___lltoft+4+0)&0ffh
  8513+ 004F9E  0E00               	movlw	0
  8514+ 004FA0  0101               	movlb	1	; () banked
  8515+ 004FA2  0101               	movlb	1	; () banked
  8516+ 004FA4  155C               	andwf	((___lltoft@c+1))&0ffh,w
  8517+ 004FA6  0101               	movlb	1	; () banked
  8518+ 004FA8  6F64               	movwf	1+(??___lltoft+4+0)&0ffh
  8519+ 004FAA  0E00               	movlw	0
  8520+ 004FAC  0101               	movlb	1	; () banked
  8521+ 004FAE  0101               	movlb	1	; () banked
  8522+ 004FB0  155D               	andwf	((___lltoft@c+2))&0ffh,w
  8523+ 004FB2  0101               	movlb	1	; () banked
  8524+ 004FB4  6F65               	movwf	2+(??___lltoft+4+0)&0ffh
  8525+ 004FB6  0EFF               	movlw	0FFh
  8526+ 004FB8  0101               	movlb	1	; () banked
  8527+ 004FBA  0101               	movlb	1	; () banked
  8528+ 004FBC  155E               	andwf	((___lltoft@c+3))&0ffh,w
  8529+ 004FBE  0101               	movlb	1	; () banked
  8530+ 004FC0  6F66               	movwf	3+(??___lltoft+4+0)&0ffh
  8531+ 004FC2  0101               	movlb	1	; () banked
  8532+ 004FC4  5166               	movf	(??___lltoft+4+3)&0ffh,w
  8533+ 004FC6  1163               	iorwf (??___lltoft+4+0)&0ffh,w
  8534+ 004FC8  1164               	iorwf (??___lltoft+4+1)&0ffh,w
  8535+ 004FCA  1165               	iorwf (??___lltoft+4+2)&0ffh,w
  8536+                          
  8537+ 004FCC  A4D8               	btfss	status,2
  8538+ 004FCE  D001               	goto	u6611
  8539+ 004FD0  D001               	goto	u6610
  8540+ 004FD2                     u6611:
  8541+ 004FD2  D7D2               	goto	l718
  8542+ 004FD4                     u6610:
  8543+                          	
  8544+ 004FD4                     l719:		; BSR set to: ?
  8545+                          
  8546+                          	line	28
  8547+ 004FD4  C15B  F160         	movff	(___lltoft@c),(___lltoft@f1)
  8548+ 004FD8  C15C  F161         	movff	(___lltoft@c+1),(___lltoft@f1+1)
  8549+ 004FDC  C15D  F162         	movff	(___lltoft@c+2),(___lltoft@f1+2)
  8550+                          	line	29
  8551+ 004FE0  C15F  F189         	movff	(___lltoft@exp),0+(?___ftpack+02h)
  8552+ 004FE4  0101               	movlb	1	; () banked
  8553+ 004FE6  0E60               	movlw	low(___lltoft@f1)
  8554+ 004FE8  0101               	movlb	1	; () banked
  8555+ 004FEA  0101               	movlb	1	; () banked
  8556+ 004FEC  6F87               	movwf	((?___ftpack))&0ffh
  8557+ 004FEE  0101               	movlb	1	; () banked
  8558+ 004FF0  0E01               	movlw	high(___lltoft@f1)
  8559+ 004FF2  0101               	movlb	1	; () banked
  8560+ 004FF4  6F88               	movwf	((?___ftpack+1))&0ffh
  8561+ 004FF6  EC76  F024         	call	___ftpack	;wreg free
  8562+                          	line	30
  8563+ 004FFA  C160  F15B         	movff	(___lltoft@f1),(?___lltoft)
  8564+ 004FFE  C161  F15C         	movff	(___lltoft@f1+1),(?___lltoft+1)
  8565+ 005002  C162  F15D         	movff	(___lltoft@f1+2),(?___lltoft+2)
  8566+ 005006  D000               	goto	l715
  8567+                          	line	31
  8568+ 005008                     l715:
  8569+                          			; BSR set to: ?
  8570+                          
  8571+ 005008  0012               	return
  8572+                          	opt stack 0
  8573+                          GLOBAL __end_of___lltoft
  8574+ 00500A                     	__end_of___lltoft:
  8575+                          	FNSIZE	___lltoft,8,4
  8576+                          ; =============== function ___lltoft ends ======
      +                          ======
  8577+                          
  8578+                          	signat	___lltoft,4219
  8579+                          	global	___almod
  8580+                          	global	??___almod
  8581+                          	global	?___almod
  8582+                                  psect   text16,class=CODE,space=0,reloc=
      +                          2
  8583+                          
  8584+                          	opt lm
  8585+                          	file	"C:\Program Files (x86)\HI-TECH Software\P
      +                          ICC-18\PRO\9.63\sources\almod.c"
  8586+                          	line	5
  8587+ 000000                     	__size_of___almod	equ	__end_of___almod-___almod
  8588+                          	
  8589+ 004498                     ___almod:		; BSR set to: ?
  8590+                          
  8591+                          	opt stack 28
  8592+                          	line	8
  8593+ 004498  0101               	movlb	1	; () banked
  8594+ 00449A  6F3E               	movwf	(??___almod+2+0)&0ffh
  8595+ 00449C  0E00               	movlw	low(0)
  8596+ 00449E  0101               	movlb	1	; () banked
  8597+ 0044A0  0101               	movlb	1	; () banked
  8598+ 0044A2  6F3C               	movwf	((___almod@sign))&0ffh
  8599+ 0044A4  0101               	movlb	1	; () banked
  8600+ 0044A6  513E               	movf	(??___almod+2+0)&0ffh,w
  8601+                          	line	9
  8602+ 0044A8  0101               	movlb	1	; () banked
  8603+ 0044AA  0101               	movlb	1	; () banked
  8604+ 0044AC  AF37               	btfss	((___almod@dividend+3))&0ffh,7
  8605+ 0044AE  D001               	goto	u6621
  8606+ 0044B0  D001               	goto	u6620
  8607+ 0044B2                     u6621:
  8608+ 0044B2  D018               	goto	l420
  8609+ 0044B4                     u6620:
  8610+                          	line	10
  8611+ 0044B4  0101               	movlb	1	; () banked
  8612+ 0044B6  0101               	movlb	1	; () banked
  8613+ 0044B8  1F37               	comf	((___almod@dividend+3))&0ffh
  8614+ 0044BA  0101               	movlb	1	; () banked
  8615+ 0044BC  1F36               	comf	((___almod@dividend+2))&0ffh
  8616+ 0044BE  0101               	movlb	1	; () banked
  8617+ 0044C0  1F35               	comf	((___almod@dividend+1))&0ffh
  8618+ 0044C2  0101               	movlb	1	; () banked
  8619+ 0044C4  6D34               	negf	((___almod@dividend))&0ffh
  8620+ 0044C6  0E00               	movlw	0
  8621+ 0044C8  0101               	movlb	1	; () banked
  8622+ 0044CA  2335               	addwfc	((___almod@dividend+1))&0ffh
  8623+ 0044CC  0101               	movlb	1	; () banked
  8624+ 0044CE  2336               	addwfc	((___almod@dividend+2))&0ffh
  8625+ 0044D0  0101               	movlb	1	; () banked
  8626+ 0044D2  2337               	addwfc	((___almod@dividend+3))&0ffh
  8627+                          	line	11
  8628+ 0044D4  0101               	movlb	1	; () banked
  8629+ 0044D6  6F3E               	movwf	(??___almod+2+0)&0ffh
  8630+ 0044D8  0E01               	movlw	low(01h)
  8631+ 0044DA  0101               	movlb	1	; () banked
  8632+ 0044DC  0101               	movlb	1	; () banked
  8633+ 0044DE  6F3C               	movwf	((___almod@sign))&0ffh
  8634+ 0044E0  0101               	movlb	1	; () banked
  8635+ 0044E2  513E               	movf	(??___almod+2+0)&0ffh,w
  8636+                          	line	12
  8637+                          	
  8638+ 0044E4                     l420:		; BSR set to: ?
  8639+                          
  8640+                          	line	13
  8641+ 0044E4  0101               	movlb	1	; () banked
  8642+ 0044E6  0101               	movlb	1	; () banked
  8643+ 0044E8  AF3B               	btfss	((___almod@divisor+3))&0ffh,7
  8644+ 0044EA  D001               	goto	u6631
  8645+ 0044EC  D001               	goto	u6630
  8646+ 0044EE                     u6631:
  8647+ 0044EE  D010               	goto	l421
  8648+ 0044F0                     u6630:
  8649+                          	line	14
  8650+ 0044F0  0101               	movlb	1	; () banked
  8651+ 0044F2  0101               	movlb	1	; () banked
  8652+ 0044F4  1F3B               	comf	((___almod@divisor+3))&0ffh
  8653+ 0044F6  0101               	movlb	1	; () banked
  8654+ 0044F8  1F3A               	comf	((___almod@divisor+2))&0ffh
  8655+ 0044FA  0101               	movlb	1	; () banked
  8656+ 0044FC  1F39               	comf	((___almod@divisor+1))&0ffh
  8657+ 0044FE  0101               	movlb	1	; () banked
  8658+ 004500  6D38               	negf	((___almod@divisor))&0ffh
  8659+ 004502  0E00               	movlw	0
  8660+ 004504  0101               	movlb	1	; () banked
  8661+ 004506  2339               	addwfc	((___almod@divisor+1))&0ffh
  8662+ 004508  0101               	movlb	1	; () banked
  8663+ 00450A  233A               	addwfc	((___almod@divisor+2))&0ffh
  8664+ 00450C  0101               	movlb	1	; () banked
  8665+ 00450E  233B               	addwfc	((___almod@divisor+3))&0ffh
  8666+                          	
  8667+ 004510                     l421:		; BSR set to: ?
  8668+                          
  8669+                          	line	15
  8670+ 004510  0101               	movlb	1	; () banked
  8671+ 004512  513B               	movf	((___almod@divisor+3))&0ffh,w
  8672+ 004514  1138               	iorwf ((___almod@divisor))&0ffh,w
  8673+ 004516  1139               	iorwf ((___almod@divisor+1))&0ffh,w
  8674+ 004518  113A               	iorwf ((___almod@divisor+2))&0ffh,w
  8675+                          
  8676+ 00451A  B4D8               	btfsc	status,2
  8677+ 00451C  D001               	goto	u6641
  8678+ 00451E  D001               	goto	u6640
  8679+ 004520                     u6641:
  8680+ 004520  D05E               	goto	l422
  8681+ 004522                     u6640:
  8682+                          	line	16
  8683+ 004522  0101               	movlb	1	; () banked
  8684+ 004524  6F3E               	movwf	(??___almod+2+0)&0ffh
  8685+ 004526  0E01               	movlw	low(01h)
  8686+ 004528  0101               	movlb	1	; () banked
  8687+ 00452A  0101               	movlb	1	; () banked
  8688+ 00452C  6F3D               	movwf	((___almod@counter))&0ffh
  8689+ 00452E  0101               	movlb	1	; () banked
  8690+ 004530  513E               	movf	(??___almod+2+0)&0ffh,w
  8691+                          	line	17
  8692+ 004532  D00D               	goto	l423
  8693+                          	
  8694+ 004534                     l424:		; BSR set to: ?
  8695+                          
  8696+                          	line	18
  8697+ 004534  0101               	movlb	1	; () banked
  8698+ 004536  90D8               	bcf	status,0
  8699+ 004538  0101               	movlb	1	; () banked
  8700+ 00453A  3738               	rlcf	((___almod@divisor))&0ffh
  8701+ 00453C  0101               	movlb	1	; () banked
  8702+ 00453E  3739               	rlcf	((___almod@divisor+1))&0ffh
  8703+ 004540  0101               	movlb	1	; () banked
  8704+ 004542  373A               	rlcf	((___almod@divisor+2))&0ffh
  8705+ 004544  0101               	movlb	1	; () banked
  8706+ 004546  373B               	rlcf	((___almod@divisor+3))&0ffh
  8707+                          	line	19
  8708+ 004548  0101               	movlb	1	; () banked
  8709+ 00454A  0101               	movlb	1	; () banked
  8710+ 00454C  2B3D               	incf	((___almod@counter))&0ffh
  8711+                          	line	20
  8712+                          	
  8713+ 00454E                     l423:		; BSR set to: ?
  8714+                          
  8715+                          	line	17
  8716+ 00454E  0101               	movlb	1	; () banked
  8717+                          	
  8718+ 004550  0101               	movlb	1	; () banked
  8719+ 004552  AF3B               	btfss	((___almod@divisor+3))&0ffh,(31)&7
  8720+ 004554  D001               	goto	u6651
  8721+ 004556  D001               	goto	u6650
  8722+ 004558                     u6651:
  8723+ 004558  D7ED               	goto	l424
  8724+ 00455A                     u6650:
  8725+                          	
  8726+ 00455A                     l425:		; BSR set to: ?
  8727+                          
  8728+                          	line	21
  8729+                          	
  8730+ 00455A                     l428:		; BSR set to: ?
  8731+                          
  8732+                          	line	22
  8733+ 00455A  0101               	movlb	1	; () banked
  8734+ 00455C  0101               	movlb	1	; () banked
  8735+ 00455E  5138               	movf	((___almod@divisor))&0ffh,w
  8736+ 004560  0101               	movlb	1	; () banked
  8737+ 004562  0101               	movlb	1	; () banked
  8738+ 004564  5D34               	subwf	((___almod@dividend))&0ffh,w
  8739+ 004566  0101               	movlb	1	; () banked
  8740+ 004568  0101               	movlb	1	; () banked
  8741+ 00456A  5139               	movf	((___almod@divisor+1))&0ffh,w
  8742+ 00456C  0101               	movlb	1	; () banked
  8743+ 00456E  0101               	movlb	1	; () banked
  8744+ 004570  5935               	subwfb	((___almod@dividend+1))&0ffh,w
  8745+ 004572  0101               	movlb	1	; () banked
  8746+ 004574  0101               	movlb	1	; () banked
  8747+ 004576  513A               	movf	((___almod@divisor+2))&0ffh,w
  8748+ 004578  0101               	movlb	1	; () banked
  8749+ 00457A  0101               	movlb	1	; () banked
  8750+ 00457C  5936               	subwfb	((___almod@dividend+2))&0ffh,w
  8751+ 00457E  0101               	movlb	1	; () banked
  8752+ 004580  0101               	movlb	1	; () banked
  8753+ 004582  513B               	movf	((___almod@divisor+3))&0ffh,w
  8754+ 004584  0101               	movlb	1	; () banked
  8755+ 004586  0101               	movlb	1	; () banked
  8756+ 004588  5937               	subwfb	((___almod@dividend+3))&0ffh,w
  8757+ 00458A  A0D8               	btfss	status,0
  8758+ 00458C  D001               	goto	u6661
  8759+ 00458E  D001               	goto	u6660
  8760+ 004590                     u6661:
  8761+ 004590  D018               	goto	l429
  8762+ 004592                     u6660:
  8763+                          	line	23
  8764+ 004592  0101               	movlb	1	; () banked
  8765+ 004594  0101               	movlb	1	; () banked
  8766+ 004596  5138               	movf	((___almod@divisor))&0ffh,w
  8767+ 004598  0101               	movlb	1	; () banked
  8768+ 00459A  0101               	movlb	1	; () banked
  8769+ 00459C  5F34               	subwf	((___almod@dividend))&0ffh
  8770+ 00459E  0101               	movlb	1	; () banked
  8771+ 0045A0  0101               	movlb	1	; () banked
  8772+ 0045A2  5139               	movf	((___almod@divisor+1))&0ffh,w
  8773+ 0045A4  0101               	movlb	1	; () banked
  8774+ 0045A6  0101               	movlb	1	; () banked
  8775+ 0045A8  5B35               	subwfb	((___almod@dividend+1))&0ffh
  8776+ 0045AA  0101               	movlb	1	; () banked
  8777+ 0045AC  0101               	movlb	1	; () banked
  8778+ 0045AE  513A               	movf	((___almod@divisor+2))&0ffh,w
  8779+ 0045B0  0101               	movlb	1	; () banked
  8780+ 0045B2  0101               	movlb	1	; () banked
  8781+ 0045B4  5B36               	subwfb	((___almod@dividend+2))&0ffh
  8782+ 0045B6  0101               	movlb	1	; () banked
  8783+ 0045B8  0101               	movlb	1	; () banked
  8784+ 0045BA  513B               	movf	((___almod@divisor+3))&0ffh,w
  8785+ 0045BC  0101               	movlb	1	; () banked
  8786+ 0045BE  0101               	movlb	1	; () banked
  8787+ 0045C0  5B37               	subwfb	((___almod@dividend+3))&0ffh
  8788+                          	
  8789+ 0045C2                     l429:		; BSR set to: ?
  8790+                          
  8791+                          	line	24
  8792+ 0045C2  0101               	movlb	1	; () banked
  8793+ 0045C4  90D8               	bcf	status,0
  8794+ 0045C6  0101               	movlb	1	; () banked
  8795+ 0045C8  333B               	rrcf	((___almod@divisor+3))&0ffh
  8796+ 0045CA  0101               	movlb	1	; () banked
  8797+ 0045CC  333A               	rrcf	((___almod@divisor+2))&0ffh
  8798+ 0045CE  0101               	movlb	1	; () banked
  8799+ 0045D0  3339               	rrcf	((___almod@divisor+1))&0ffh
  8800+ 0045D2  0101               	movlb	1	; () banked
  8801+ 0045D4  3338               	rrcf	((___almod@divisor))&0ffh
  8802+                          	line	25
  8803+ 0045D6  0101               	movlb	1	; () banked
  8804+ 0045D8  0101               	movlb	1	; () banked
  8805+ 0045DA  2F3D               	decfsz	((___almod@counter))&0ffh
  8806+                          	
  8807+ 0045DC  D7BE               	goto	l428
  8808+                          	
  8809+ 0045DE                     l427:		; BSR set to: ?
  8810+                          
  8811+                          	line	26
  8812+                          	
  8813+ 0045DE                     l422:		; BSR set to: ?
  8814+                          
  8815+                          	line	27
  8816+ 0045DE  0101               	movlb	1	; () banked
  8817+ 0045E0  0101               	movlb	1	; () banked
  8818+ 0045E2  513C               	movf	((___almod@sign))&0ffh,w
  8819+ 0045E4  B4D8               	btfsc	status,2
  8820+ 0045E6  D001               	goto	u6671
  8821+ 0045E8  D001               	goto	u6670
  8822+ 0045EA                     u6671:
  8823+ 0045EA  D010               	goto	l430
  8824+ 0045EC                     u6670:
  8825+                          	line	28
  8826+ 0045EC  0101               	movlb	1	; () banked
  8827+ 0045EE  0101               	movlb	1	; () banked
  8828+ 0045F0  1F37               	comf	((___almod@dividend+3))&0ffh
  8829+ 0045F2  0101               	movlb	1	; () banked
  8830+ 0045F4  1F36               	comf	((___almod@dividend+2))&0ffh
  8831+ 0045F6  0101               	movlb	1	; () banked
  8832+ 0045F8  1F35               	comf	((___almod@dividend+1))&0ffh
  8833+ 0045FA  0101               	movlb	1	; () banked
  8834+ 0045FC  6D34               	negf	((___almod@dividend))&0ffh
  8835+ 0045FE  0E00               	movlw	0
  8836+ 004600  0101               	movlb	1	; () banked
  8837+ 004602  2335               	addwfc	((___almod@dividend+1))&0ffh
  8838+ 004604  0101               	movlb	1	; () banked
  8839+ 004606  2336               	addwfc	((___almod@dividend+2))&0ffh
  8840+ 004608  0101               	movlb	1	; () banked
  8841+ 00460A  2337               	addwfc	((___almod@dividend+3))&0ffh
  8842+                          	
  8843+ 00460C                     l430:		; BSR set to: ?
  8844+                          
  8845+                          	line	29
  8846+ 00460C  C134  F134         	movff	(___almod@dividend),(?___almod)
  8847+ 004610  C135  F135         	movff	(___almod@dividend+1),(?___almod+1)
  8848+ 004614  C136  F136         	movff	(___almod@dividend+2),(?___almod+2)
  8849+ 004618  C137  F137         	movff	(___almod@dividend+3),(?___almod+3)
  8850+ 00461C  D000               	goto	l419
  8851+                          	line	30
  8852+ 00461E                     l419:
  8853+                          			; BSR set to: ?
  8854+                          
  8855+ 00461E  0012               	return
  8856+                          	opt stack 0
  8857+                          GLOBAL __end_of___almod
  8858+ 004620                     	__end_of___almod:
  8859+                          	FNSIZE	___almod,3,8
  8860+                          ; =============== function ___almod ends =======
      +                          =====
  8861+                          
  8862+                          	signat	___almod,8316
  8863+                          	global	_LCD_Write
  8864+                          	global	??_LCD_Write
  8865+                          	global	?_LCD_Write
  8866+                                  psect   text17,class=CODE,space=0,reloc=
      +                          2
  8867+                          
  8868+                          	opt lm
  8869+                          	file	"C:\Users\leeee\Desktop\Desktop\School\Col
      +                          lege\4th Year\Semester 2\Embedded Systems\HW\HW1
      +                          0\lcd_portd.c"
  8870+                          	line	62
  8871+ 000000                     	__size_of_LCD_Write	equ	__end_of_LCD_Write-_LCD
      +                          _Write
  8872+                          ;lcd_portd.c: 61: void LCD_Write(unsigned char c
      +                          )
  8873+                          ;lcd_portd.c: 62: {
  8874+                          	
  8875+ 005554                     _LCD_Write:		; BSR set to: ?
  8876+                          
  8877+                          	opt stack 28
  8878+                          	line	63
  8879+                          ;lcd_portd.c: 63: RD2 = 1;
  8880+ 005554  8483               	bsf	c:(31770/8),(31770)&7	;volatile
  8881+                          	line	64
  8882+                          ;lcd_portd.c: 64: PORTD = (PORTD & 0x0F) | (c & 
      +                          0xF0);
  8883+ 005556  C134  F135         	movff	(LCD_Write@c),??_LCD_Write+0+0
  8884+ 00555A  0EF0               	movlw	0F0h
  8885+ 00555C  0101               	movlb	1	; () banked
  8886+ 00555E  1735               	andwf	(??_LCD_Write+0+0)&0ffh
  8887+ 005560  5083               	movf	((c:3971)),c,w	;volatile
  8888+ 005562  0B0F               	andlw	low(0Fh)
  8889+ 005564  0101               	movlb	1	; () banked
  8890+ 005566  1135               	iorwf	(??_LCD_Write+0+0)&0ffh,w
  8891+ 005568  6E83               	movwf	((c:3971)),c	;volatile
  8892+                          	line	65
  8893+                          ;lcd_portd.c: 65: LCD_Strobe();
  8894+ 00556A  ECF6  F02A         	call	_LCD_Strobe	;wreg free
  8895+                          	line	66
  8896+                          ;lcd_portd.c: 66: PORTD = (PORTD & 0x0F) | ((c<<
      +                          4) & 0xF0);
  8897+ 00556E  C134  F135         	movff	(LCD_Write@c),??_LCD_Write+0+0
  8898+ 005572  0101               	movlb	1	; () banked
  8899+ 005574  3B35               	swapf	(??_LCD_Write+0+0)&0ffh
  8900+ 005576  0EF0               	movlw	(0ffh shl 4) & 0ffh
  8901+ 005578  1735               	andwf	(??_LCD_Write+0+0)&0ffh
  8902+ 00557A  0EF0               	movlw	0F0h
  8903+ 00557C  0101               	movlb	1	; () banked
  8904+ 00557E  1735               	andwf	(??_LCD_Write+0+0)&0ffh
  8905+ 005580  5083               	movf	((c:3971)),c,w	;volatile
  8906+ 005582  0B0F               	andlw	low(0Fh)
  8907+ 005584  0101               	movlb	1	; () banked
  8908+ 005586  1135               	iorwf	(??_LCD_Write+0+0)&0ffh,w
  8909+ 005588  6E83               	movwf	((c:3971)),c	;volatile
  8910+                          	line	67
  8911+                          ;lcd_portd.c: 67: LCD_Strobe();
  8912+ 00558A  ECF6  F02A         	call	_LCD_Strobe	;wreg free
  8913+                          	line	69
  8914+                          ;lcd_portd.c: 69: }
  8915+ 00558E                     l133:
  8916+                          			; BSR set to: ?
  8917+                          
  8918+ 00558E  0012               	return
  8919+                          	opt stack 0
  8920+                          GLOBAL __end_of_LCD_Write
  8921+ 005590                     	__end_of_LCD_Write:
  8922+                          	FNSIZE	_LCD_Write,1,1
  8923+                          ; =============== function _LCD_Write ends =====
      +                          =======
  8924+                          
  8925+                          	signat	_LCD_Write,4216
  8926+                          	global	___aldiv
  8927+                          	global	??___aldiv
  8928+                          	global	?___aldiv
  8929+                                  psect   text18,class=CODE,space=0,reloc=
      +                          2
  8930+                          
  8931+                          	opt lm
  8932+                          	file	"C:\Program Files (x86)\HI-TECH Software\P
      +                          ICC-18\PRO\9.63\sources\aldiv.c"
  8933+                          	line	5
  8934+ 000000                     	__size_of___aldiv	equ	__end_of___aldiv-___aldiv
  8935+                          	
  8936+ 003F8E                     ___aldiv:		; BSR set to: ?
  8937+                          
  8938+                          	opt stack 28
  8939+                          	line	9
  8940+ 003F8E  0101               	movlb	1	; () banked
  8941+ 003F90  6F42               	movwf	(??___aldiv+6+0)&0ffh
  8942+ 003F92  0E00               	movlw	low(0)
  8943+ 003F94  0101               	movlb	1	; () banked
  8944+ 003F96  0101               	movlb	1	; () banked
  8945+ 003F98  6F3D               	movwf	((___aldiv@sign))&0ffh
  8946+ 003F9A  0101               	movlb	1	; () banked
  8947+ 003F9C  5142               	movf	(??___aldiv+6+0)&0ffh,w
  8948+                          	line	10
  8949+ 003F9E  0101               	movlb	1	; () banked
  8950+ 003FA0  0101               	movlb	1	; () banked
  8951+ 003FA2  AF3B               	btfss	((___aldiv@divisor+3))&0ffh,7
  8952+ 003FA4  D001               	goto	u6681
  8953+ 003FA6  D001               	goto	u6680
  8954+ 003FA8                     u6681:
  8955+ 003FA8  D018               	goto	l408
  8956+ 003FAA                     u6680:
  8957+                          	line	11
  8958+ 003FAA  0101               	movlb	1	; () banked
  8959+ 003FAC  0101               	movlb	1	; () banked
  8960+ 003FAE  1F3B               	comf	((___aldiv@divisor+3))&0ffh
  8961+ 003FB0  0101               	movlb	1	; () banked
  8962+ 003FB2  1F3A               	comf	((___aldiv@divisor+2))&0ffh
  8963+ 003FB4  0101               	movlb	1	; () banked
  8964+ 003FB6  1F39               	comf	((___aldiv@divisor+1))&0ffh
  8965+ 003FB8  0101               	movlb	1	; () banked
  8966+ 003FBA  6D38               	negf	((___aldiv@divisor))&0ffh
  8967+ 003FBC  0E00               	movlw	0
  8968+ 003FBE  0101               	movlb	1	; () banked
  8969+ 003FC0  2339               	addwfc	((___aldiv@divisor+1))&0ffh
  8970+ 003FC2  0101               	movlb	1	; () banked
  8971+ 003FC4  233A               	addwfc	((___aldiv@divisor+2))&0ffh
  8972+ 003FC6  0101               	movlb	1	; () banked
  8973+ 003FC8  233B               	addwfc	((___aldiv@divisor+3))&0ffh
  8974+                          	line	12
  8975+ 003FCA  0101               	movlb	1	; () banked
  8976+ 003FCC  6F42               	movwf	(??___aldiv+6+0)&0ffh
  8977+ 003FCE  0E01               	movlw	low(01h)
  8978+ 003FD0  0101               	movlb	1	; () banked
  8979+ 003FD2  0101               	movlb	1	; () banked
  8980+ 003FD4  6F3D               	movwf	((___aldiv@sign))&0ffh
  8981+ 003FD6  0101               	movlb	1	; () banked
  8982+ 003FD8  5142               	movf	(??___aldiv+6+0)&0ffh,w
  8983+                          	line	13
  8984+                          	
  8985+ 003FDA                     l408:		; BSR set to: ?
  8986+                          
  8987+                          	line	14
  8988+ 003FDA  0101               	movlb	1	; () banked
  8989+ 003FDC  0101               	movlb	1	; () banked
  8990+ 003FDE  AF37               	btfss	((___aldiv@dividend+3))&0ffh,7
  8991+ 003FE0  D001               	goto	u6691
  8992+ 003FE2  D001               	goto	u6690
  8993+ 003FE4                     u6691:
  8994+ 003FE4  D014               	goto	l409
  8995+ 003FE6                     u6690:
  8996+                          	line	15
  8997+ 003FE6  0101               	movlb	1	; () banked
  8998+ 003FE8  0101               	movlb	1	; () banked
  8999+ 003FEA  1F37               	comf	((___aldiv@dividend+3))&0ffh
  9000+ 003FEC  0101               	movlb	1	; () banked
  9001+ 003FEE  1F36               	comf	((___aldiv@dividend+2))&0ffh
  9002+ 003FF0  0101               	movlb	1	; () banked
  9003+ 003FF2  1F35               	comf	((___aldiv@dividend+1))&0ffh
  9004+ 003FF4  0101               	movlb	1	; () banked
  9005+ 003FF6  6D34               	negf	((___aldiv@dividend))&0ffh
  9006+ 003FF8  0E00               	movlw	0
  9007+ 003FFA  0101               	movlb	1	; () banked
  9008+ 003FFC  2335               	addwfc	((___aldiv@dividend+1))&0ffh
  9009+ 003FFE  0101               	movlb	1	; () banked
  9010+ 004000  2336               	addwfc	((___aldiv@dividend+2))&0ffh
  9011+ 004002  0101               	movlb	1	; () banked
  9012+ 004004  2337               	addwfc	((___aldiv@dividend+3))&0ffh
  9013+                          	line	16
  9014+ 004006  0E01               	movlw	(01h)&0ffh
  9015+ 004008  0101               	movlb	1	; () banked
  9016+ 00400A  0101               	movlb	1	; () banked
  9017+ 00400C  1B3D               	xorwf	((___aldiv@sign))&0ffh
  9018+                          	line	17
  9019+                          	
  9020+ 00400E                     l409:		; BSR set to: ?
  9021+                          
  9022+                          	line	18
  9023+ 00400E  0E00               	movlw	low(0)
  9024+ 004010  0101               	movlb	1	; () banked
  9025+ 004012  0101               	movlb	1	; () banked
  9026+ 004014  6F3E               	movwf	((___aldiv@quotient))&0ffh
  9027+ 004016  0E00               	movlw	high(0)
  9028+ 004018  0101               	movlb	1	; () banked
  9029+ 00401A  6F3F               	movwf	((___aldiv@quotient+1))&0ffh
  9030+ 00401C  0E00               	movlw	low highword(0)
  9031+ 00401E  0101               	movlb	1	; () banked
  9032+ 004020  6F40               	movwf	((___aldiv@quotient+2))&0ffh
  9033+ 004022  0E00               	movlw	high highword(0)
  9034+ 004024  0101               	movlb	1	; () banked
  9035+ 004026  6F41               	movwf	((___aldiv@quotient+3))&0ffh
  9036+                          	line	19
  9037+ 004028  0101               	movlb	1	; () banked
  9038+ 00402A  513B               	movf	((___aldiv@divisor+3))&0ffh,w
  9039+ 00402C  1138               	iorwf ((___aldiv@divisor))&0ffh,w
  9040+ 00402E  1139               	iorwf ((___aldiv@divisor+1))&0ffh,w
  9041+ 004030  113A               	iorwf ((___aldiv@divisor+2))&0ffh,w
  9042+                          
  9043+ 004032  B4D8               	btfsc	status,2
  9044+ 004034  D001               	goto	u6701
  9045+ 004036  D001               	goto	u6700
  9046+ 004038                     u6701:
  9047+ 004038  D06B               	goto	l410
  9048+ 00403A                     u6700:
  9049+                          	line	20
  9050+ 00403A  0101               	movlb	1	; () banked
  9051+ 00403C  6F42               	movwf	(??___aldiv+6+0)&0ffh
  9052+ 00403E  0E01               	movlw	low(01h)
  9053+ 004040  0101               	movlb	1	; () banked
  9054+ 004042  0101               	movlb	1	; () banked
  9055+ 004044  6F3C               	movwf	((___aldiv@counter))&0ffh
  9056+ 004046  0101               	movlb	1	; () banked
  9057+ 004048  5142               	movf	(??___aldiv+6+0)&0ffh,w
  9058+                          	line	21
  9059+ 00404A  D00D               	goto	l411
  9060+                          	
  9061+ 00404C                     l412:		; BSR set to: ?
  9062+                          
  9063+                          	line	22
  9064+ 00404C  0101               	movlb	1	; () banked
  9065+ 00404E  90D8               	bcf	status,0
  9066+ 004050  0101               	movlb	1	; () banked
  9067+ 004052  3738               	rlcf	((___aldiv@divisor))&0ffh
  9068+ 004054  0101               	movlb	1	; () banked
  9069+ 004056  3739               	rlcf	((___aldiv@divisor+1))&0ffh
  9070+ 004058  0101               	movlb	1	; () banked
  9071+ 00405A  373A               	rlcf	((___aldiv@divisor+2))&0ffh
  9072+ 00405C  0101               	movlb	1	; () banked
  9073+ 00405E  373B               	rlcf	((___aldiv@divisor+3))&0ffh
  9074+                          	line	23
  9075+ 004060  0101               	movlb	1	; () banked
  9076+ 004062  0101               	movlb	1	; () banked
  9077+ 004064  2B3C               	incf	((___aldiv@counter))&0ffh
  9078+                          	line	24
  9079+                          	
  9080+ 004066                     l411:		; BSR set to: ?
  9081+                          
  9082+                          	line	21
  9083+ 004066  0101               	movlb	1	; () banked
  9084+                          	
  9085+ 004068  0101               	movlb	1	; () banked
  9086+ 00406A  AF3B               	btfss	((___aldiv@divisor+3))&0ffh,(31)&7
  9087+ 00406C  D001               	goto	u6711
  9088+ 00406E  D001               	goto	u6710
  9089+ 004070                     u6711:
  9090+ 004070  D7ED               	goto	l412
  9091+ 004072                     u6710:
  9092+                          	
  9093+ 004072                     l413:		; BSR set to: ?
  9094+                          
  9095+                          	line	25
  9096+                          	
  9097+ 004072                     l416:		; BSR set to: ?
  9098+                          
  9099+                          	line	26
  9100+ 004072  0101               	movlb	1	; () banked
  9101+ 004074  90D8               	bcf	status,0
  9102+ 004076  0101               	movlb	1	; () banked
  9103+ 004078  373E               	rlcf	((___aldiv@quotient))&0ffh
  9104+ 00407A  0101               	movlb	1	; () banked
  9105+ 00407C  373F               	rlcf	((___aldiv@quotient+1))&0ffh
  9106+ 00407E  0101               	movlb	1	; () banked
  9107+ 004080  3740               	rlcf	((___aldiv@quotient+2))&0ffh
  9108+ 004082  0101               	movlb	1	; () banked
  9109+ 004084  3741               	rlcf	((___aldiv@quotient+3))&0ffh
  9110+                          	line	27
  9111+ 004086  0101               	movlb	1	; () banked
  9112+ 004088  0101               	movlb	1	; () banked
  9113+ 00408A  5138               	movf	((___aldiv@divisor))&0ffh,w
  9114+ 00408C  0101               	movlb	1	; () banked
  9115+ 00408E  0101               	movlb	1	; () banked
  9116+ 004090  5D34               	subwf	((___aldiv@dividend))&0ffh,w
  9117+ 004092  0101               	movlb	1	; () banked
  9118+ 004094  0101               	movlb	1	; () banked
  9119+ 004096  5139               	movf	((___aldiv@divisor+1))&0ffh,w
  9120+ 004098  0101               	movlb	1	; () banked
  9121+ 00409A  0101               	movlb	1	; () banked
  9122+ 00409C  5935               	subwfb	((___aldiv@dividend+1))&0ffh,w
  9123+ 00409E  0101               	movlb	1	; () banked
  9124+ 0040A0  0101               	movlb	1	; () banked
  9125+ 0040A2  513A               	movf	((___aldiv@divisor+2))&0ffh,w
  9126+ 0040A4  0101               	movlb	1	; () banked
  9127+ 0040A6  0101               	movlb	1	; () banked
  9128+ 0040A8  5936               	subwfb	((___aldiv@dividend+2))&0ffh,w
  9129+ 0040AA  0101               	movlb	1	; () banked
  9130+ 0040AC  0101               	movlb	1	; () banked
  9131+ 0040AE  513B               	movf	((___aldiv@divisor+3))&0ffh,w
  9132+ 0040B0  0101               	movlb	1	; () banked
  9133+ 0040B2  0101               	movlb	1	; () banked
  9134+ 0040B4  5937               	subwfb	((___aldiv@dividend+3))&0ffh,w
  9135+ 0040B6  A0D8               	btfss	status,0
  9136+ 0040B8  D001               	goto	u6721
  9137+ 0040BA  D001               	goto	u6720
  9138+ 0040BC                     u6721:
  9139+ 0040BC  D01B               	goto	l417
  9140+ 0040BE                     u6720:
  9141+                          	line	28
  9142+ 0040BE  0101               	movlb	1	; () banked
  9143+ 0040C0  0101               	movlb	1	; () banked
  9144+ 0040C2  5138               	movf	((___aldiv@divisor))&0ffh,w
  9145+ 0040C4  0101               	movlb	1	; () banked
  9146+ 0040C6  0101               	movlb	1	; () banked
  9147+ 0040C8  5F34               	subwf	((___aldiv@dividend))&0ffh
  9148+ 0040CA  0101               	movlb	1	; () banked
  9149+ 0040CC  0101               	movlb	1	; () banked
  9150+ 0040CE  5139               	movf	((___aldiv@divisor+1))&0ffh,w
  9151+ 0040D0  0101               	movlb	1	; () banked
  9152+ 0040D2  0101               	movlb	1	; () banked
  9153+ 0040D4  5B35               	subwfb	((___aldiv@dividend+1))&0ffh
  9154+ 0040D6  0101               	movlb	1	; () banked
  9155+ 0040D8  0101               	movlb	1	; () banked
  9156+ 0040DA  513A               	movf	((___aldiv@divisor+2))&0ffh,w
  9157+ 0040DC  0101               	movlb	1	; () banked
  9158+ 0040DE  0101               	movlb	1	; () banked
  9159+ 0040E0  5B36               	subwfb	((___aldiv@dividend+2))&0ffh
  9160+ 0040E2  0101               	movlb	1	; () banked
  9161+ 0040E4  0101               	movlb	1	; () banked
  9162+ 0040E6  513B               	movf	((___aldiv@divisor+3))&0ffh,w
  9163+ 0040E8  0101               	movlb	1	; () banked
  9164+ 0040EA  0101               	movlb	1	; () banked
  9165+ 0040EC  5B37               	subwfb	((___aldiv@dividend+3))&0ffh
  9166+                          	line	29
  9167+ 0040EE  0101               	movlb	1	; () banked
  9168+ 0040F0  0101               	movlb	1	; () banked
  9169+ 0040F2  813E               	bsf	(0+(0/8)+(___aldiv@quotient))&0ffh,(0)&7
  9170+                          	line	30
  9171+                          	
  9172+ 0040F4                     l417:		; BSR set to: ?
  9173+                          
  9174+                          	line	31
  9175+ 0040F4  0101               	movlb	1	; () banked
  9176+ 0040F6  90D8               	bcf	status,0
  9177+ 0040F8  0101               	movlb	1	; () banked
  9178+ 0040FA  333B               	rrcf	((___aldiv@divisor+3))&0ffh
  9179+ 0040FC  0101               	movlb	1	; () banked
  9180+ 0040FE  333A               	rrcf	((___aldiv@divisor+2))&0ffh
  9181+ 004100  0101               	movlb	1	; () banked
  9182+ 004102  3339               	rrcf	((___aldiv@divisor+1))&0ffh
  9183+ 004104  0101               	movlb	1	; () banked
  9184+ 004106  3338               	rrcf	((___aldiv@divisor))&0ffh
  9185+                          	line	32
  9186+ 004108  0101               	movlb	1	; () banked
  9187+ 00410A  0101               	movlb	1	; () banked
  9188+ 00410C  2F3C               	decfsz	((___aldiv@counter))&0ffh
  9189+                          	
  9190+ 00410E  D7B1               	goto	l416
  9191+                          	
  9192+ 004110                     l415:		; BSR set to: ?
  9193+                          
  9194+                          	line	33
  9195+                          	
  9196+ 004110                     l410:		; BSR set to: ?
  9197+                          
  9198+                          	line	34
  9199+ 004110  0101               	movlb	1	; () banked
  9200+ 004112  0101               	movlb	1	; () banked
  9201+ 004114  513D               	movf	((___aldiv@sign))&0ffh,w
  9202+ 004116  B4D8               	btfsc	status,2
  9203+ 004118  D001               	goto	u6731
  9204+ 00411A  D001               	goto	u6730
  9205+ 00411C                     u6731:
  9206+ 00411C  D010               	goto	l418
  9207+ 00411E                     u6730:
  9208+                          	line	35
  9209+ 00411E  0101               	movlb	1	; () banked
  9210+ 004120  0101               	movlb	1	; () banked
  9211+ 004122  1F41               	comf	((___aldiv@quotient+3))&0ffh
  9212+ 004124  0101               	movlb	1	; () banked
  9213+ 004126  1F40               	comf	((___aldiv@quotient+2))&0ffh
  9214+ 004128  0101               	movlb	1	; () banked
  9215+ 00412A  1F3F               	comf	((___aldiv@quotient+1))&0ffh
  9216+ 00412C  0101               	movlb	1	; () banked
  9217+ 00412E  6D3E               	negf	((___aldiv@quotient))&0ffh
  9218+ 004130  0E00               	movlw	0
  9219+ 004132  0101               	movlb	1	; () banked
  9220+ 004134  233F               	addwfc	((___aldiv@quotient+1))&0ffh
  9221+ 004136  0101               	movlb	1	; () banked
  9222+ 004138  2340               	addwfc	((___aldiv@quotient+2))&0ffh
  9223+ 00413A  0101               	movlb	1	; () banked
  9224+ 00413C  2341               	addwfc	((___aldiv@quotient+3))&0ffh
  9225+                          	
  9226+ 00413E                     l418:		; BSR set to: ?
  9227+                          
  9228+                          	line	36
  9229+ 00413E  C13E  F134         	movff	(___aldiv@quotient),(?___aldiv)
  9230+ 004142  C13F  F135         	movff	(___aldiv@quotient+1),(?___aldiv+1)
  9231+ 004146  C140  F136         	movff	(___aldiv@quotient+2),(?___aldiv+2)
  9232+ 00414A  C141  F137         	movff	(___aldiv@quotient+3),(?___aldiv+3)
  9233+ 00414E  D000               	goto	l407
  9234+                          	line	37
  9235+ 004150                     l407:
  9236+                          			; BSR set to: ?
  9237+                          
  9238+ 004150  0012               	return
  9239+                          	opt stack 0
  9240+                          GLOBAL __end_of___aldiv
  9241+ 004152                     	__end_of___aldiv:
  9242+                          	FNSIZE	___aldiv,7,8
  9243+                          ; =============== function ___aldiv ends =======
      +                          =====
  9244+                          
  9245+                          	signat	___aldiv,8316
  9246+                          	global	_isdigit
  9247+                          	global	??_isdigit
  9248+                          	global	?_isdigit
  9249+                                  psect   text19,class=CODE,space=0,reloc=
      +                          2
  9250+                          
  9251+                          	opt lm
  9252+                          	file	"C:\Program Files (x86)\HI-TECH Software\P
      +                          ICC-18\PRO\9.63\sources\isdigit.c"
  9253+                          	line	13
  9254+ 000000                     	__size_of_isdigit	equ	__end_of_isdigit-_isdigit
  9255+                          	
  9256+ 0055C6                     _isdigit:		; BSR set to: ?
  9257+                          
  9258+                          	opt stack 28
  9259+                          	line	14
  9260+ 0055C6  0E3A               	movlw	(03Ah)&0ffh
  9261+ 0055C8  0101               	movlb	1	; () banked
  9262+ 0055CA  0101               	movlb	1	; () banked
  9263+ 0055CC  615B               	cpfslt	((isdigit@c))&0ffh
  9264+ 0055CE  D001               	goto	u6741
  9265+ 0055D0  D001               	goto	u6740
  9266+ 0055D2                     u6741:
  9267+ 0055D2  D009               	goto	l100000732
  9268+ 0055D4                     u6740:
  9269+ 0055D4  0E2F               	movlw	(030h-1)
  9270+ 0055D6  0101               	movlb	1	; () banked
  9271+ 0055D8  0101               	movlb	1	; () banked
  9272+ 0055DA  655B               	cpfsgt	((isdigit@c))&0ffh
  9273+ 0055DC  D001               	goto	u6751
  9274+ 0055DE  D001               	goto	u6750
  9275+ 0055E0                     u6751:
  9276+ 0055E0  D002               	goto	l100000732
  9277+ 0055E2                     u6750:
  9278+ 0055E2  80D8               	bsf	status,0
  9279+ 0055E4  D001               	goto	l200000733
  9280+                          	
  9281+ 0055E6                     l100000732:		; BSR set to: ?
  9282+                          
  9283+ 0055E6  90D8               	bcf	status,0
  9284+                          	
  9285+ 0055E8                     l200000733:		; BSR set to: ?
  9286+                          
  9287+ 0055E8  D000               	goto	l382
  9288+                          	line	15
  9289+ 0055EA                     l382:
  9290+                          			; BSR set to: ?
  9291+                          
  9292+ 0055EA  0012               	return
  9293+                          	opt stack 0
  9294+                          GLOBAL __end_of_isdigit
  9295+ 0055EC                     	__end_of_isdigit:
  9296+                          	FNSIZE	_isdigit,0,1
  9297+                          ; =============== function _isdigit ends =======
      +                          =====
  9298+                          
  9299+                          	signat	_isdigit,4216
  9300+                          	global	__tdiv_to_l_
  9301+                          	global	??__tdiv_to_l_
  9302+                          	global	?__tdiv_to_l_
  9303+                                  psect   text20,class=CODE,space=0,reloc=
      +                          2
  9304+                          
  9305+                          	opt lm
  9306+                          	file	"C:\Program Files (x86)\HI-TECH Software\P
      +                          ICC-18\PRO\9.63\sources\ftdivl.c"
  9307+                          	line	19
  9308+ 000000                     	__size_of__tdiv_to_l_	equ	__end_of__tdiv_to_l_-
      +                          __tdiv_to_l_
  9309+                          	
  9310+ 003D8A                     __tdiv_to_l_:		; BSR set to: ?
  9311+                          
  9312+                          	opt stack 28
  9313+                          	line	23
  9314+ 003D8A  0E00               	movlw	low(0)
  9315+ 003D8C  0101               	movlb	1	; () banked
  9316+ 003D8E  0101               	movlb	1	; () banked
  9317+ 003D90  6F63               	movwf	((__tdiv_to_l_@quot))&0ffh
  9318+ 003D92  0E00               	movlw	high(0)
  9319+ 003D94  0101               	movlb	1	; () banked
  9320+ 003D96  6F64               	movwf	((__tdiv_to_l_@quot+1))&0ffh
  9321+ 003D98  0E00               	movlw	low highword(0)
  9322+ 003D9A  0101               	movlb	1	; () banked
  9323+ 003D9C  6F65               	movwf	((__tdiv_to_l_@quot+2))&0ffh
  9324+ 003D9E  0E00               	movlw	high highword(0)
  9325+ 003DA0  0101               	movlb	1	; () banked
  9326+ 003DA2  6F66               	movwf	((__tdiv_to_l_@quot+3))&0ffh
  9327+                          	line	24
  9328+ 003DA4  0101               	movlb	1	; () banked
  9329+ 003DA6  0E62               	movlw	low(__tdiv_to_l_@exp1)
  9330+ 003DA8  0101               	movlb	1	; () banked
  9331+ 003DAA  0101               	movlb	1	; () banked
  9332+ 003DAC  6F89               	movwf	(0+(?___ftunpack+02h))&0ffh
  9333+ 003DAE  0101               	movlb	1	; () banked
  9334+ 003DB0  0E01               	movlw	high(__tdiv_to_l_@exp1)
  9335+ 003DB2  0101               	movlb	1	; () banked
  9336+ 003DB4  6F8A               	movwf	(1+(?___ftunpack+02h))&0ffh
  9337+ 003DB6  0101               	movlb	1	; () banked
  9338+ 003DB8  0E5B               	movlw	low(__tdiv_to_l_@f1)
  9339+ 003DBA  0101               	movlb	1	; () banked
  9340+ 003DBC  0101               	movlb	1	; () banked
  9341+ 003DBE  6F87               	movwf	((?___ftunpack))&0ffh
  9342+ 003DC0  0101               	movlb	1	; () banked
  9343+ 003DC2  0E01               	movlw	high(__tdiv_to_l_@f1)
  9344+ 003DC4  0101               	movlb	1	; () banked
  9345+ 003DC6  6F88               	movwf	((?___ftunpack+1))&0ffh
  9346+ 003DC8  EC68  F028         	call	___ftunpack	;wreg free
  9347+                          	line	25
  9348+ 003DCC  0101               	movlb	1	; () banked
  9349+ 003DCE  0101               	movlb	1	; () banked
  9350+ 003DD0  6762               	tstfsz	((__tdiv_to_l_@exp1))&0ffh
  9351+ 003DD2  D001               	goto	u6761
  9352+ 003DD4  D001               	goto	u6760
  9353+ 003DD6                     u6761:
  9354+ 003DD6  D009               	goto	l632
  9355+ 003DD8                     u6760:
  9356+                          	line	26
  9357+ 003DD8  C163  F15B         	movff	(__tdiv_to_l_@quot),(?__tdiv_to_l_)
  9358+ 003DDC  C164  F15C         	movff	(__tdiv_to_l_@quot+1),(?__tdiv_to_l_+1)
  9359+ 003DE0  C165  F15D         	movff	(__tdiv_to_l_@quot+2),(?__tdiv_to_l_+2)
  9360+ 003DE4  C166  F15E         	movff	(__tdiv_to_l_@quot+3),(?__tdiv_to_l_+3)
  9361+ 003DE8  D0D1               	goto	l631
  9362+                          	
  9363+ 003DEA                     l632:		; BSR set to: ?
  9364+                          
  9365+                          	line	27
  9366+ 003DEA  0101               	movlb	1	; () banked
  9367+ 003DEC  0E61               	movlw	low(__tdiv_to_l_@cntr)
  9368+ 003DEE  0101               	movlb	1	; () banked
  9369+ 003DF0  0101               	movlb	1	; () banked
  9370+ 003DF2  6F89               	movwf	(0+(?___ftunpack+02h))&0ffh
  9371+ 003DF4  0101               	movlb	1	; () banked
  9372+ 003DF6  0E01               	movlw	high(__tdiv_to_l_@cntr)
  9373+ 003DF8  0101               	movlb	1	; () banked
  9374+ 003DFA  6F8A               	movwf	(1+(?___ftunpack+02h))&0ffh
  9375+ 003DFC  0101               	movlb	1	; () banked
  9376+ 003DFE  0E5E               	movlw	low(__tdiv_to_l_@f2)
  9377+ 003E00  0101               	movlb	1	; () banked
  9378+ 003E02  0101               	movlb	1	; () banked
  9379+ 003E04  6F87               	movwf	((?___ftunpack))&0ffh
  9380+ 003E06  0101               	movlb	1	; () banked
  9381+ 003E08  0E01               	movlw	high(__tdiv_to_l_@f2)
  9382+ 003E0A  0101               	movlb	1	; () banked
  9383+ 003E0C  6F88               	movwf	((?___ftunpack+1))&0ffh
  9384+ 003E0E  EC68  F028         	call	___ftunpack	;wreg free
  9385+                          	line	28
  9386+ 003E12  0101               	movlb	1	; () banked
  9387+ 003E14  0101               	movlb	1	; () banked
  9388+ 003E16  6761               	tstfsz	((__tdiv_to_l_@cntr))&0ffh
  9389+ 003E18  D001               	goto	u6771
  9390+ 003E1A  D001               	goto	u6770
  9391+ 003E1C                     u6771:
  9392+ 003E1C  D009               	goto	l633
  9393+ 003E1E                     u6770:
  9394+                          	line	29
  9395+ 003E1E  C163  F15B         	movff	(__tdiv_to_l_@quot),(?__tdiv_to_l_)
  9396+ 003E22  C164  F15C         	movff	(__tdiv_to_l_@quot+1),(?__tdiv_to_l_+1)
  9397+ 003E26  C165  F15D         	movff	(__tdiv_to_l_@quot+2),(?__tdiv_to_l_+2)
  9398+ 003E2A  C166  F15E         	movff	(__tdiv_to_l_@quot+3),(?__tdiv_to_l_+3)
  9399+ 003E2E  D0AE               	goto	l631
  9400+                          	
  9401+ 003E30                     l633:		; BSR set to: ?
  9402+                          
  9403+                          	line	30
  9404+ 003E30  0101               	movlb	1	; () banked
  9405+ 003E32  0101               	movlb	1	; () banked
  9406+ 003E34  5161               	movf	((__tdiv_to_l_@cntr))&0ffh,w
  9407+ 003E36  0F1F               	addlw	low(01Fh)
  9408+ 003E38  0101               	movlb	1	; () banked
  9409+ 003E3A  0101               	movlb	1	; () banked
  9410+ 003E3C  5F62               	subwf	((__tdiv_to_l_@exp1))&0ffh
  9411+                          	line	31
  9412+ 003E3E  0101               	movlb	1	; () banked
  9413+ 003E40  6F67               	movwf	(??__tdiv_to_l_+6+0)&0ffh
  9414+ 003E42  0E20               	movlw	low(020h)
  9415+ 003E44  0101               	movlb	1	; () banked
  9416+ 003E46  0101               	movlb	1	; () banked
  9417+ 003E48  6F61               	movwf	((__tdiv_to_l_@cntr))&0ffh
  9418+ 003E4A  0101               	movlb	1	; () banked
  9419+ 003E4C  5167               	movf	(??__tdiv_to_l_+6+0)&0ffh,w
  9420+                          	line	32
  9421+                          	
  9422+ 003E4E                     l636:		; BSR set to: ?
  9423+                          
  9424+                          	line	33
  9425+ 003E4E  0101               	movlb	1	; () banked
  9426+ 003E50  90D8               	bcf	status,0
  9427+ 003E52  0101               	movlb	1	; () banked
  9428+ 003E54  3763               	rlcf	((__tdiv_to_l_@quot))&0ffh
  9429+ 003E56  0101               	movlb	1	; () banked
  9430+ 003E58  3764               	rlcf	((__tdiv_to_l_@quot+1))&0ffh
  9431+ 003E5A  0101               	movlb	1	; () banked
  9432+ 003E5C  3765               	rlcf	((__tdiv_to_l_@quot+2))&0ffh
  9433+ 003E5E  0101               	movlb	1	; () banked
  9434+ 003E60  3766               	rlcf	((__tdiv_to_l_@quot+3))&0ffh
  9435+                          	line	34
  9436+ 003E62  0101               	movlb	1	; () banked
  9437+ 003E64  0101               	movlb	1	; () banked
  9438+ 003E66  515E               	movf	((__tdiv_to_l_@f2))&0ffh,w
  9439+ 003E68  0101               	movlb	1	; () banked
  9440+ 003E6A  0101               	movlb	1	; () banked
  9441+ 003E6C  5D5B               	subwf	((__tdiv_to_l_@f1))&0ffh,w
  9442+ 003E6E  0101               	movlb	1	; () banked
  9443+ 003E70  0101               	movlb	1	; () banked
  9444+ 003E72  515F               	movf	((__tdiv_to_l_@f2+1))&0ffh,w
  9445+ 003E74  0101               	movlb	1	; () banked
  9446+ 003E76  0101               	movlb	1	; () banked
  9447+ 003E78  595C               	subwfb	((__tdiv_to_l_@f1+1))&0ffh,w
  9448+ 003E7A  0101               	movlb	1	; () banked
  9449+ 003E7C  0101               	movlb	1	; () banked
  9450+ 003E7E  5160               	movf	((__tdiv_to_l_@f2+2))&0ffh,w
  9451+ 003E80  0101               	movlb	1	; () banked
  9452+ 003E82  0101               	movlb	1	; () banked
  9453+ 003E84  595D               	subwfb	((__tdiv_to_l_@f1+2))&0ffh,w
  9454+ 003E86  A0D8               	btfss	status,0
  9455+ 003E88  D001               	goto	u6781
  9456+ 003E8A  D001               	goto	u6780
  9457+ 003E8C                     u6781:
  9458+ 003E8C  D015               	goto	l637
  9459+ 003E8E                     u6780:
  9460+                          	line	35
  9461+ 003E8E  0101               	movlb	1	; () banked
  9462+ 003E90  0101               	movlb	1	; () banked
  9463+ 003E92  515E               	movf	((__tdiv_to_l_@f2))&0ffh,w
  9464+ 003E94  0101               	movlb	1	; () banked
  9465+ 003E96  0101               	movlb	1	; () banked
  9466+ 003E98  5F5B               	subwf	((__tdiv_to_l_@f1))&0ffh
  9467+ 003E9A  0101               	movlb	1	; () banked
  9468+ 003E9C  0101               	movlb	1	; () banked
  9469+ 003E9E  515F               	movf	((__tdiv_to_l_@f2+1))&0ffh,w
  9470+ 003EA0  0101               	movlb	1	; () banked
  9471+ 003EA2  0101               	movlb	1	; () banked
  9472+ 003EA4  5B5C               	subwfb	((__tdiv_to_l_@f1+1))&0ffh
  9473+ 003EA6  0101               	movlb	1	; () banked
  9474+ 003EA8  0101               	movlb	1	; () banked
  9475+ 003EAA  5160               	movf	((__tdiv_to_l_@f2+2))&0ffh,w
  9476+ 003EAC  0101               	movlb	1	; () banked
  9477+ 003EAE  0101               	movlb	1	; () banked
  9478+ 003EB0  5B5D               	subwfb	((__tdiv_to_l_@f1+2))&0ffh
  9479+                          
  9480+                          	line	36
  9481+ 003EB2  0101               	movlb	1	; () banked
  9482+ 003EB4  0101               	movlb	1	; () banked
  9483+ 003EB6  8163               	bsf	(0+(0/8)+(__tdiv_to_l_@quot))&0ffh,(0)&7
  9484+                          	line	37
  9485+                          	
  9486+ 003EB8                     l637:		; BSR set to: ?
  9487+                          
  9488+                          	line	38
  9489+ 003EB8  0101               	movlb	1	; () banked
  9490+ 003EBA  90D8               	bcf	status,0
  9491+ 003EBC  0101               	movlb	1	; () banked
  9492+ 003EBE  375B               	rlcf	((__tdiv_to_l_@f1))&0ffh
  9493+ 003EC0  0101               	movlb	1	; () banked
  9494+ 003EC2  375C               	rlcf	((__tdiv_to_l_@f1+1))&0ffh
  9495+ 003EC4  0101               	movlb	1	; () banked
  9496+ 003EC6  375D               	rlcf	((__tdiv_to_l_@f1+2))&0ffh
  9497+                          	line	39
  9498+ 003EC8  0101               	movlb	1	; () banked
  9499+ 003ECA  0101               	movlb	1	; () banked
  9500+ 003ECC  2F61               	decfsz	((__tdiv_to_l_@cntr))&0ffh
  9501+                          	
  9502+ 003ECE  D7BF               	goto	l636
  9503+                          	
  9504+ 003ED0                     l635:		; BSR set to: ?
  9505+                          
  9506+                          	line	40
  9507+ 003ED0  0101               	movlb	1	; () banked
  9508+ 003ED2  0101               	movlb	1	; () banked
  9509+ 003ED4  AF62               	btfss	((__tdiv_to_l_@exp1))&0ffh,7
  9510+ 003ED6  D001               	goto	u6791
  9511+ 003ED8  D001               	goto	u6790
  9512+ 003EDA                     u6791:
  9513+ 003EDA  D026               	goto	l638
  9514+ 003EDC                     u6790:
  9515+                          	line	41
  9516+ 003EDC  0101               	movlb	1	; () banked
  9517+ 003EDE  0101               	movlb	1	; () banked
  9518+ 003EE0  5162               	movf	((__tdiv_to_l_@exp1))&0ffh,w
  9519+ 003EE2  0A80               	xorlw	80h
  9520+ 003EE4  0F9F               	addlw	-((-31)^80h)
  9521+ 003EE6  B0D8               	btfsc	status,0
  9522+ 003EE8  D001               	goto	u6801
  9523+ 003EEA  D001               	goto	u6800
  9524+ 003EEC                     u6801:
  9525+ 003EEC  D00E               	goto	l642
  9526+ 003EEE                     u6800:
  9527+                          	line	42
  9528+ 003EEE  0E00               	movlw	low(0)
  9529+ 003EF0  0101               	movlb	1	; () banked
  9530+ 003EF2  0101               	movlb	1	; () banked
  9531+ 003EF4  6F5B               	movwf	((?__tdiv_to_l_))&0ffh
  9532+ 003EF6  0E00               	movlw	high(0)
  9533+ 003EF8  0101               	movlb	1	; () banked
  9534+ 003EFA  6F5C               	movwf	((?__tdiv_to_l_+1))&0ffh
  9535+ 003EFC  0E00               	movlw	low highword(0)
  9536+ 003EFE  0101               	movlb	1	; () banked
  9537+ 003F00  6F5D               	movwf	((?__tdiv_to_l_+2))&0ffh
  9538+ 003F02  0E00               	movlw	high highword(0)
  9539+ 003F04  0101               	movlb	1	; () banked
  9540+ 003F06  6F5E               	movwf	((?__tdiv_to_l_+3))&0ffh
  9541+ 003F08  D041               	goto	l631
  9542+                          	line	43
  9543+                          	
  9544+ 003F0A                     l642:		; BSR set to: ?
  9545+                          
  9546+                          	line	44
  9547+ 003F0A  0101               	movlb	1	; () banked
  9548+ 003F0C  90D8               	bcf	status,0
  9549+ 003F0E  0101               	movlb	1	; () banked
  9550+ 003F10  3366               	rrcf	((__tdiv_to_l_@quot+3))&0ffh
  9551+ 003F12  0101               	movlb	1	; () banked
  9552+ 003F14  3365               	rrcf	((__tdiv_to_l_@quot+2))&0ffh
  9553+ 003F16  0101               	movlb	1	; () banked
  9554+ 003F18  3364               	rrcf	((__tdiv_to_l_@quot+1))&0ffh
  9555+ 003F1A  0101               	movlb	1	; () banked
  9556+ 003F1C  3363               	rrcf	((__tdiv_to_l_@quot))&0ffh
  9557+                          	line	45
  9558+ 003F1E  0101               	movlb	1	; () banked
  9559+ 003F20  0101               	movlb	1	; () banked
  9560+ 003F22  3F62               	incfsz	((__tdiv_to_l_@exp1))&0ffh
  9561+                          	
  9562+ 003F24  D7F2               	goto	l642
  9563+                          	
  9564+ 003F26                     l641:		; BSR set to: ?
  9565+                          
  9566+                          	line	46
  9567+ 003F26  D029               	goto	l643
  9568+                          	
  9569+ 003F28                     l638:		; BSR set to: ?
  9570+                          
  9571+                          	line	47
  9572+ 003F28  0E1F               	movlw	(020h-1)
  9573+ 003F2A  0101               	movlb	1	; () banked
  9574+ 003F2C  0101               	movlb	1	; () banked
  9575+ 003F2E  6562               	cpfsgt	((__tdiv_to_l_@exp1))&0ffh
  9576+ 003F30  D001               	goto	u6811
  9577+ 003F32  D001               	goto	u6810
  9578+ 003F34                     u6811:
  9579+ 003F34  D00E               	goto	l644
  9580+ 003F36                     u6810:
  9581+                          	line	48
  9582+ 003F36  0E00               	movlw	low(0)
  9583+ 003F38  0101               	movlb	1	; () banked
  9584+ 003F3A  0101               	movlb	1	; () banked
  9585+ 003F3C  6F5B               	movwf	((?__tdiv_to_l_))&0ffh
  9586+ 003F3E  0E00               	movlw	high(0)
  9587+ 003F40  0101               	movlb	1	; () banked
  9588+ 003F42  6F5C               	movwf	((?__tdiv_to_l_+1))&0ffh
  9589+ 003F44  0E00               	movlw	low highword(0)
  9590+ 003F46  0101               	movlb	1	; () banked
  9591+ 003F48  6F5D               	movwf	((?__tdiv_to_l_+2))&0ffh
  9592+ 003F4A  0E00               	movlw	high highword(0)
  9593+ 003F4C  0101               	movlb	1	; () banked
  9594+ 003F4E  6F5E               	movwf	((?__tdiv_to_l_+3))&0ffh
  9595+ 003F50  D01D               	goto	l631
  9596+                          	
  9597+ 003F52                     l644:		; BSR set to: ?
  9598+                          
  9599+                          	line	49
  9600+ 003F52  D00D               	goto	l645
  9601+                          	
  9602+ 003F54                     l646:		; BSR set to: ?
  9603+                          
  9604+                          	line	50
  9605+ 003F54  0101               	movlb	1	; () banked
  9606+ 003F56  90D8               	bcf	status,0
  9607+ 003F58  0101               	movlb	1	; () banked
  9608+ 003F5A  3763               	rlcf	((__tdiv_to_l_@quot))&0ffh
  9609+ 003F5C  0101               	movlb	1	; () banked
  9610+ 003F5E  3764               	rlcf	((__tdiv_to_l_@quot+1))&0ffh
  9611+ 003F60  0101               	movlb	1	; () banked
  9612+ 003F62  3765               	rlcf	((__tdiv_to_l_@quot+2))&0ffh
  9613+ 003F64  0101               	movlb	1	; () banked
  9614+ 003F66  3766               	rlcf	((__tdiv_to_l_@quot+3))&0ffh
  9615+                          	line	51
  9616+ 003F68  0101               	movlb	1	; () banked
  9617+ 003F6A  0101               	movlb	1	; () banked
  9618+ 003F6C  0762               	decf	((__tdiv_to_l_@exp1))&0ffh
  9619+                          	line	52
  9620+                          	
  9621+ 003F6E                     l645:		; BSR set to: ?
  9622+                          
  9623+                          	line	49
  9624+ 003F6E  0101               	movlb	1	; () banked
  9625+ 003F70  0101               	movlb	1	; () banked
  9626+ 003F72  6762               	tstfsz	((__tdiv_to_l_@exp1))&0ffh
  9627+ 003F74  D001               	goto	u6821
  9628+ 003F76  D001               	goto	u6820
  9629+ 003F78                     u6821:
  9630+ 003F78  D7ED               	goto	l646
  9631+ 003F7A                     u6820:
  9632+                          	
  9633+ 003F7A                     l647:		; BSR set to: ?
  9634+                          
  9635+                          	line	53
  9636+                          	
  9637+ 003F7A                     l643:		; BSR set to: ?
  9638+                          
  9639+                          	line	54
  9640+ 003F7A  C163  F15B         	movff	(__tdiv_to_l_@quot),(?__tdiv_to_l_)
  9641+ 003F7E  C164  F15C         	movff	(__tdiv_to_l_@quot+1),(?__tdiv_to_l_+1)
  9642+ 003F82  C165  F15D         	movff	(__tdiv_to_l_@quot+2),(?__tdiv_to_l_+2)
  9643+ 003F86  C166  F15E         	movff	(__tdiv_to_l_@quot+3),(?__tdiv_to_l_+3)
  9644+ 003F8A  D000               	goto	l631
  9645+                          	line	55
  9646+ 003F8C                     l631:
  9647+                          			; BSR set to: ?
  9648+                          
  9649+ 003F8C  0012               	return
  9650+                          	opt stack 0
  9651+                          GLOBAL __end_of__tdiv_to_l_
  9652+ 003F8E                     	__end_of__tdiv_to_l_:
  9653+                          	FNSIZE	__tdiv_to_l_,7,6
  9654+                          ; =============== function __tdiv_to_l_ ends ===
      +                          =========
  9655+                          
  9656+                          	signat	__tdiv_to_l_,8316
  9657+                          	global	_LCD_Inst
  9658+                          	global	??_LCD_Inst
  9659+                          	global	?_LCD_Inst
  9660+                                  psect   text21,class=CODE,space=0,reloc=
      +                          2
  9661+                          
  9662+                          	opt lm
  9663+                          	file	"C:\Users\leeee\Desktop\Desktop\School\Col
      +                          lege\4th Year\Semester 2\Embedded Systems\HW\HW1
      +                          0\lcd_portd.c"
  9664+                          	line	44
  9665+ 000000                     	__size_of_LCD_Inst	equ	__end_of_LCD_Inst-_LCD_I
      +                          nst
  9666+                          ;lcd_portd.c: 43: void LCD_Inst(unsigned char c)
  9667+                          ;lcd_portd.c: 44: {
  9668+                          	
  9669+ 005374                     _LCD_Inst:		; BSR set to: ?
  9670+                          
  9671+                          	opt stack 28
  9672+                          	line	45
  9673+ 005374  9483               	bcf	c:(31770/8),(31770)&7	;volatile
  9674+                          	line	46
  9675+                          ;lcd_portd.c: 46: PORTD = (PORTD & 0x0F) | (c & 
      +                          0xF0);
  9676+ 005376  C124  F125         	movff	(LCD_Inst@c),??_LCD_Inst+0+0
  9677+ 00537A  0EF0               	movlw	0F0h
  9678+ 00537C  0101               	movlb	1	; () banked
  9679+ 00537E  1725               	andwf	(??_LCD_Inst+0+0)&0ffh
  9680+ 005380  5083               	movf	((c:3971)),c,w	;volatile
  9681+ 005382  0B0F               	andlw	low(0Fh)
  9682+ 005384  0101               	movlb	1	; () banked
  9683+ 005386  1125               	iorwf	(??_LCD_Inst+0+0)&0ffh,w
  9684+ 005388  6E83               	movwf	((c:3971)),c	;volatile
  9685+                          	line	47
  9686+                          ;lcd_portd.c: 47: LCD_Strobe();
  9687+ 00538A  ECF6  F02A         	call	_LCD_Strobe	;wreg free
  9688+                          	line	48
  9689+                          ;lcd_portd.c: 48: PORTD = (PORTD & 0x0F) | ((c<<
      +                          4) & 0xF0);
  9690+ 00538E  C124  F125         	movff	(LCD_Inst@c),??_LCD_Inst+0+0
  9691+ 005392  0101               	movlb	1	; () banked
  9692+ 005394  3B25               	swapf	(??_LCD_Inst+0+0)&0ffh
  9693+ 005396  0EF0               	movlw	(0ffh shl 4) & 0ffh
  9694+ 005398  1725               	andwf	(??_LCD_Inst+0+0)&0ffh
  9695+ 00539A  0EF0               	movlw	0F0h
  9696+ 00539C  0101               	movlb	1	; () banked
  9697+ 00539E  1725               	andwf	(??_LCD_Inst+0+0)&0ffh
  9698+ 0053A0  5083               	movf	((c:3971)),c,w	;volatile
  9699+ 0053A2  0B0F               	andlw	low(0Fh)
  9700+ 0053A4  0101               	movlb	1	; () banked
  9701+ 0053A6  1125               	iorwf	(??_LCD_Inst+0+0)&0ffh,w
  9702+ 0053A8  6E83               	movwf	((c:3971)),c	;volatile
  9703+                          	line	49
  9704+                          ;lcd_portd.c: 49: LCD_Strobe();
  9705+ 0053AA  ECF6  F02A         	call	_LCD_Strobe	;wreg free
  9706+                          	line	50
  9707+                          ;lcd_portd.c: 50: Wait_ms(10);
  9708+ 0053AE  0E0A               	movlw	low(0Ah)
  9709+ 0053B0  0101               	movlb	1	; () banked
  9710+ 0053B2  0101               	movlb	1	; () banked
  9711+ 0053B4  6F26               	movwf	((?_Wait_ms))&0ffh
  9712+ 0053B6  0E00               	movlw	high(0Ah)
  9713+ 0053B8  0101               	movlb	1	; () banked
  9714+ 0053BA  6F27               	movwf	((?_Wait_ms+1))&0ffh
  9715+ 0053BC  EC48  F029         	call	_Wait_ms	;wreg free
  9716+                          	line	51
  9717+                          ;lcd_portd.c: 51: }
  9718+ 0053C0                     l127:
  9719+                          			; BSR set to: ?
  9720+                          
  9721+ 0053C0  0012               	return
  9722+                          	opt stack 0
  9723+                          GLOBAL __end_of_LCD_Inst
  9724+ 0053C2                     	__end_of_LCD_Inst:
  9725+                          	FNSIZE	_LCD_Inst,1,1
  9726+                          ; =============== function _LCD_Inst ends ======
      +                          ======
  9727+                          
  9728+                          	signat	_LCD_Inst,4216
  9729+                          	global	___asftsub
  9730+                          	global	??___asftsub
  9731+                          	global	?___asftsub
  9732+                                  psect   text22,class=CODE,space=0,reloc=
      +                          2
  9733+                          
  9734+                          	opt lm
  9735+                          	file	"C:\Program Files (x86)\HI-TECH Software\P
      +                          ICC-18\PRO\9.63\sources\asftsub.c"
  9736+                          	line	5
  9737+ 000000                     	__size_of___asftsub	equ	__end_of___asftsub-___a
      +                          sftsub
  9738+                          	
  9739+ 005406                     ___asftsub:		; BSR set to: ?
  9740+                          
  9741+                          	opt stack 28
  9742+                          	line	6
  9743+ 005406  C15D  F163         	movff	(___asftsub@f2),0+(?___ftsub+03h)
  9744+ 00540A  C15E  F164         	movff	(___asftsub@f2+1),1+(?___ftsub+03h)
  9745+ 00540E  C15F  F165         	movff	(___asftsub@f2+2),2+(?___ftsub+03h)
  9746+ 005412  C15B  FFE9         	movff	(___asftsub@f1p),fsr0l
  9747+ 005416  C15C  FFEA         	movff	(___asftsub@f1p+1),fsr0h
  9748+ 00541A  0101               	movlb	1	; () banked
  9749+ 00541C  CFEE F160          	movff	postinc0,(?___ftsub)
  9750+ 005420  0101               	movlb	1	; () banked
  9751+ 005422  CFEE F161          	movff	postinc0,(?___ftsub+1)
  9752+ 005426  0101               	movlb	1	; () banked
  9753+ 005428  CFED F162          	movff	postdec0,(?___ftsub+2)
  9754+ 00542C  EC69  F02A         	call	___ftsub	;wreg free
  9755+ 005430  C15B  FFE9         	movff	(___asftsub@f1p),fsr0l
  9756+ 005434  C15C  FFEA         	movff	(___asftsub@f1p+1),fsr0h
  9757+ 005438  C160  FFEE         	movff	0+?___ftsub,postinc0
  9758+ 00543C  C161  FFEE         	movff	1+?___ftsub,postinc0
  9759+ 005440  C162  FFED         	movff	2+?___ftsub,postdec0
  9760+ 005444  52ED               	movf	postdec0
  9761+ 005446  D000               	goto	l661
  9762+                          	line	7
  9763+ 005448                     l661:
  9764+                          			; BSR set to: ?
  9765+                          
  9766+ 005448  0012               	return
  9767+                          	opt stack 0
  9768+                          GLOBAL __end_of___asftsub
  9769+ 00544A                     	__end_of___asftsub:
  9770+                          	FNSIZE	___asftsub,0,5
  9771+                          ; =============== function ___asftsub ends =====
      +                          =======
  9772+                          
  9773+                          	signat	___asftsub,8315
  9774+                          	global	___ftmul
  9775+                          	global	??___ftmul
  9776+                          	global	?___ftmul
  9777+                                  psect   text23,class=CODE,space=0,reloc=
      +                          2
  9778+                          
  9779+                          	opt lm
  9780+                          	file	"C:\Program Files (x86)\HI-TECH Software\P
      +                          ICC-18\PRO\9.63\sources\ftmul.c"
  9781+                          	line	18
  9782+ 000000                     	__size_of___ftmul	equ	__end_of___ftmul-___ftmul
  9783+                          	
  9784+ 004152                     ___ftmul:		; BSR set to: ?
  9785+                          
  9786+                          	opt stack 27
  9787+                          	line	22
  9788+ 004152  0E00               	movlw	low(0)
  9789+ 004154  0101               	movlb	1	; () banked
  9790+ 004156  0101               	movlb	1	; () banked
  9791+ 004158  6F83               	movwf	((___ftmul@f3))&0ffh
  9792+ 00415A  0E00               	movlw	high(0)
  9793+ 00415C  0101               	movlb	1	; () banked
  9794+ 00415E  0101               	movlb	1	; () banked
  9795+ 004160  6F84               	movwf	((___ftmul@f3+1))&0ffh
  9796+ 004162  0E00               	movlw	low highword(0)
  9797+ 004164  0101               	movlb	1	; () banked
  9798+ 004166  0101               	movlb	1	; () banked
  9799+ 004168  6F85               	movwf	((___ftmul@f3+2))&0ffh
  9800+                          
  9801+                          	line	23
  9802+ 00416A  0101               	movlb	1	; () banked
  9803+ 00416C  0E81               	movlw	low(___ftmul@exp1)
  9804+ 00416E  0101               	movlb	1	; () banked
  9805+ 004170  0101               	movlb	1	; () banked
  9806+ 004172  6F89               	movwf	(0+(?___ftunpack+02h))&0ffh
  9807+ 004174  0101               	movlb	1	; () banked
  9808+ 004176  0E01               	movlw	high(___ftmul@exp1)
  9809+ 004178  0101               	movlb	1	; () banked
  9810+ 00417A  6F8A               	movwf	(1+(?___ftunpack+02h))&0ffh
  9811+ 00417C  0101               	movlb	1	; () banked
  9812+ 00417E  0E7A               	movlw	low(___ftmul@f1)
  9813+ 004180  0101               	movlb	1	; () banked
  9814+ 004182  0101               	movlb	1	; () banked
  9815+ 004184  6F87               	movwf	((?___ftunpack))&0ffh
  9816+ 004186  0101               	movlb	1	; () banked
  9817+ 004188  0E01               	movlw	high(___ftmul@f1)
  9818+ 00418A  0101               	movlb	1	; () banked
  9819+ 00418C  6F88               	movwf	((?___ftunpack+1))&0ffh
  9820+ 00418E  EC68  F028         	call	___ftunpack	;wreg free
  9821+ 004192  0101               	movlb	1	; () banked
  9822+ 004194  0101               	movlb	1	; () banked
  9823+ 004196  6F80               	movwf	((___ftmul@sign1))&0ffh
  9824+                          	line	24
  9825+ 004198  0101               	movlb	1	; () banked
  9826+ 00419A  0E82               	movlw	low(___ftmul@cntr)
  9827+ 00419C  0101               	movlb	1	; () banked
  9828+ 00419E  0101               	movlb	1	; () banked
  9829+ 0041A0  6F89               	movwf	(0+(?___ftunpack+02h))&0ffh
  9830+ 0041A2  0101               	movlb	1	; () banked
  9831+ 0041A4  0E01               	movlw	high(___ftmul@cntr)
  9832+ 0041A6  0101               	movlb	1	; () banked
  9833+ 0041A8  6F8A               	movwf	(1+(?___ftunpack+02h))&0ffh
  9834+ 0041AA  0101               	movlb	1	; () banked
  9835+ 0041AC  0E7D               	movlw	low(___ftmul@f2)
  9836+ 0041AE  0101               	movlb	1	; () banked
  9837+ 0041B0  0101               	movlb	1	; () banked
  9838+ 0041B2  6F87               	movwf	((?___ftunpack))&0ffh
  9839+ 0041B4  0101               	movlb	1	; () banked
  9840+ 0041B6  0E01               	movlw	high(___ftmul@f2)
  9841+ 0041B8  0101               	movlb	1	; () banked
  9842+ 0041BA  6F88               	movwf	((?___ftunpack+1))&0ffh
  9843+ 0041BC  EC68  F028         	call	___ftunpack	;wreg free
  9844+ 0041C0  0101               	movlb	1	; () banked
  9845+ 0041C2  0101               	movlb	1	; () banked
  9846+ 0041C4  1B80               	xorwf	((___ftmul@sign1))&0ffh
  9847+                          	line	25
  9848+ 0041C6  0101               	movlb	1	; () banked
  9849+ 0041C8  0101               	movlb	1	; () banked
  9850+ 0041CA  5182               	movf	((___ftmul@cntr))&0ffh,w
  9851+ 0041CC  B4D8               	btfsc	status,2
  9852+ 0041CE  D001               	goto	u6831
  9853+ 0041D0  D001               	goto	u6830
  9854+ 0041D2                     u6831:
  9855+ 0041D2  D006               	goto	l600000734
  9856+ 0041D4                     u6830:
  9857+ 0041D4  0101               	movlb	1	; () banked
  9858+ 0041D6  0101               	movlb	1	; () banked
  9859+ 0041D8  6781               	tstfsz	((___ftmul@exp1))&0ffh
  9860+ 0041DA  D001               	goto	u6841
  9861+ 0041DC  D001               	goto	u6840
  9862+ 0041DE                     u6841:
  9863+ 0041DE  D007               	goto	l649
  9864+ 0041E0                     u6840:
  9865+                          	
  9866+ 0041E0                     l600000734:		; BSR set to: ?
  9867+                          
  9868+                          	line	26
  9869+ 0041E0  C183  F17A         	movff	(___ftmul@f3),(?___ftmul)
  9870+ 0041E4  C184  F17B         	movff	(___ftmul@f3+1),(?___ftmul+1)
  9871+ 0041E8  C185  F17C         	movff	(___ftmul@f3+2),(?___ftmul+2)
  9872+ 0041EC  D08D               	goto	l648
  9873+                          	
  9874+ 0041EE                     l649:		; BSR set to: ?
  9875+                          
  9876+                          	line	27
  9877+ 0041EE  0101               	movlb	1	; () banked
  9878+ 0041F0  0101               	movlb	1	; () banked
  9879+ 0041F2  5182               	movf	((___ftmul@cntr))&0ffh,w
  9880+ 0041F4  0F7B               	addlw	low(07Bh)
  9881+ 0041F6  0101               	movlb	1	; () banked
  9882+ 0041F8  0101               	movlb	1	; () banked
  9883+ 0041FA  2781               	addwf	((___ftmul@exp1))&0ffh
  9884+                          	line	28
  9885+ 0041FC  0101               	movlb	1	; () banked
  9886+ 0041FE  6F86               	movwf	(??___ftmul+6+0)&0ffh
  9887+ 004200  0E07               	movlw	low(07h)
  9888+ 004202  0101               	movlb	1	; () banked
  9889+ 004204  0101               	movlb	1	; () banked
  9890+ 004206  6F82               	movwf	((___ftmul@cntr))&0ffh
  9891+ 004208  0101               	movlb	1	; () banked
  9892+ 00420A  5186               	movf	(??___ftmul+6+0)&0ffh,w
  9893+                          	line	29
  9894+                          	
  9895+ 00420C                     l652:		; BSR set to: ?
  9896+                          
  9897+                          	line	30
  9898+ 00420C  0101               	movlb	1	; () banked
  9899+                          	
  9900+ 00420E  0101               	movlb	1	; () banked
  9901+ 004210  A17A               	btfss	((___ftmul@f1))&0ffh,(0)&7
  9902+ 004212  D001               	goto	u6851
  9903+ 004214  D001               	goto	u6850
  9904+ 004216                     u6851:
  9905+ 004216  D012               	goto	l653
  9906+ 004218                     u6850:
  9907+                          	line	31
  9908+ 004218  0101               	movlb	1	; () banked
  9909+ 00421A  0101               	movlb	1	; () banked
  9910+ 00421C  517D               	movf	((___ftmul@f2))&0ffh,w
  9911+ 00421E  0101               	movlb	1	; () banked
  9912+ 004220  0101               	movlb	1	; () banked
  9913+ 004222  2783               	addwf	((___ftmul@f3))&0ffh
  9914+ 004224  0101               	movlb	1	; () banked
  9915+ 004226  0101               	movlb	1	; () banked
  9916+ 004228  517E               	movf	((___ftmul@f2+1))&0ffh,w
  9917+ 00422A  0101               	movlb	1	; () banked
  9918+ 00422C  0101               	movlb	1	; () banked
  9919+ 00422E  2384               	addwfc	((___ftmul@f3+1))&0ffh
  9920+ 004230  0101               	movlb	1	; () banked
  9921+ 004232  0101               	movlb	1	; () banked
  9922+ 004234  517F               	movf	((___ftmul@f2+2))&0ffh,w
  9923+ 004236  0101               	movlb	1	; () banked
  9924+ 004238  0101               	movlb	1	; () banked
  9925+ 00423A  2385               	addwfc	((___ftmul@f3+2))&0ffh
  9926+                          
  9927+                          	
  9928+ 00423C                     l653:		; BSR set to: ?
  9929+                          
  9930+                          	line	32
  9931+ 00423C  0101               	movlb	1	; () banked
  9932+ 00423E  90D8               	bcf	status,0
  9933+ 004240  0101               	movlb	1	; () banked
  9934+ 004242  337C               	rrcf	((___ftmul@f1+2))&0ffh
  9935+ 004244  0101               	movlb	1	; () banked
  9936+ 004246  337B               	rrcf	((___ftmul@f1+1))&0ffh
  9937+ 004248  0101               	movlb	1	; () banked
  9938+ 00424A  337A               	rrcf	((___ftmul@f1))&0ffh
  9939+                          	line	33
  9940+ 00424C  0101               	movlb	1	; () banked
  9941+ 00424E  90D8               	bcf	status,0
  9942+ 004250  0101               	movlb	1	; () banked
  9943+ 004252  377D               	rlcf	((___ftmul@f2))&0ffh
  9944+ 004254  0101               	movlb	1	; () banked
  9945+ 004256  377E               	rlcf	((___ftmul@f2+1))&0ffh
  9946+ 004258  0101               	movlb	1	; () banked
  9947+ 00425A  377F               	rlcf	((___ftmul@f2+2))&0ffh
  9948+                          	line	34
  9949+ 00425C  0101               	movlb	1	; () banked
  9950+ 00425E  0101               	movlb	1	; () banked
  9951+ 004260  2F82               	decfsz	((___ftmul@cntr))&0ffh
  9952+                          	
  9953+ 004262  D7D4               	goto	l652
  9954+                          	
  9955+ 004264                     l651:		; BSR set to: ?
  9956+                          
  9957+                          	line	35
  9958+ 004264  0101               	movlb	1	; () banked
  9959+ 004266  6F86               	movwf	(??___ftmul+6+0)&0ffh
  9960+ 004268  0E09               	movlw	low(09h)
  9961+ 00426A  0101               	movlb	1	; () banked
  9962+ 00426C  0101               	movlb	1	; () banked
  9963+ 00426E  6F82               	movwf	((___ftmul@cntr))&0ffh
  9964+ 004270  0101               	movlb	1	; () banked
  9965+ 004272  5186               	movf	(??___ftmul+6+0)&0ffh,w
  9966+                          	line	36
  9967+                          	
  9968+ 004274                     l656:		; BSR set to: ?
  9969+                          
  9970+                          	line	37
  9971+ 004274  0101               	movlb	1	; () banked
  9972+                          	
  9973+ 004276  0101               	movlb	1	; () banked
  9974+ 004278  A17A               	btfss	((___ftmul@f1))&0ffh,(0)&7
  9975+ 00427A  D001               	goto	u6861
  9976+ 00427C  D001               	goto	u6860
  9977+ 00427E                     u6861:
  9978+ 00427E  D012               	goto	l657
  9979+ 004280                     u6860:
  9980+                          	line	38
  9981+ 004280  0101               	movlb	1	; () banked
  9982+ 004282  0101               	movlb	1	; () banked
  9983+ 004284  517D               	movf	((___ftmul@f2))&0ffh,w
  9984+ 004286  0101               	movlb	1	; () banked
  9985+ 004288  0101               	movlb	1	; () banked
  9986+ 00428A  2783               	addwf	((___ftmul@f3))&0ffh
  9987+ 00428C  0101               	movlb	1	; () banked
  9988+ 00428E  0101               	movlb	1	; () banked
  9989+ 004290  517E               	movf	((___ftmul@f2+1))&0ffh,w
  9990+ 004292  0101               	movlb	1	; () banked
  9991+ 004294  0101               	movlb	1	; () banked
  9992+ 004296  2384               	addwfc	((___ftmul@f3+1))&0ffh
  9993+ 004298  0101               	movlb	1	; () banked
  9994+ 00429A  0101               	movlb	1	; () banked
  9995+ 00429C  517F               	movf	((___ftmul@f2+2))&0ffh,w
  9996+ 00429E  0101               	movlb	1	; () banked
  9997+ 0042A0  0101               	movlb	1	; () banked
  9998+ 0042A2  2385               	addwfc	((___ftmul@f3+2))&0ffh
  9999+                          
 10000+                          	
 10001+ 0042A4                     l657:		; BSR set to: ?
 10002+                          
 10003+                          	line	39
 10004+ 0042A4  0101               	movlb	1	; () banked
 10005+ 0042A6  90D8               	bcf	status,0
 10006+ 0042A8  0101               	movlb	1	; () banked
 10007+ 0042AA  337C               	rrcf	((___ftmul@f1+2))&0ffh
 10008+ 0042AC  0101               	movlb	1	; () banked
 10009+ 0042AE  337B               	rrcf	((___ftmul@f1+1))&0ffh
 10010+ 0042B0  0101               	movlb	1	; () banked
 10011+ 0042B2  337A               	rrcf	((___ftmul@f1))&0ffh
 10012+                          	line	40
 10013+ 0042B4  0101               	movlb	1	; () banked
 10014+ 0042B6  90D8               	bcf	status,0
 10015+ 0042B8  0101               	movlb	1	; () banked
 10016+ 0042BA  3385               	rrcf	((___ftmul@f3+2))&0ffh
 10017+ 0042BC  0101               	movlb	1	; () banked
 10018+ 0042BE  3384               	rrcf	((___ftmul@f3+1))&0ffh
 10019+ 0042C0  0101               	movlb	1	; () banked
 10020+ 0042C2  3383               	rrcf	((___ftmul@f3))&0ffh
 10021+                          	line	41
 10022+ 0042C4  0101               	movlb	1	; () banked
 10023+ 0042C6  0101               	movlb	1	; () banked
 10024+ 0042C8  2F82               	decfsz	((___ftmul@cntr))&0ffh
 10025+                          	
 10026+ 0042CA  D7D4               	goto	l656
 10027+                          	
 10028+ 0042CC                     l655:		; BSR set to: ?
 10029+                          
 10030+                          	line	42
 10031+ 0042CC  C181  F189         	movff	(___ftmul@exp1),0+(?___ftpack+02h)
 10032+ 0042D0  0101               	movlb	1	; () banked
 10033+ 0042D2  0E83               	movlw	low(___ftmul@f3)
 10034+ 0042D4  0101               	movlb	1	; () banked
 10035+ 0042D6  0101               	movlb	1	; () banked
 10036+ 0042D8  6F87               	movwf	((?___ftpack))&0ffh
 10037+ 0042DA  0101               	movlb	1	; () banked
 10038+ 0042DC  0E01               	movlw	high(___ftmul@f3)
 10039+ 0042DE  0101               	movlb	1	; () banked
 10040+ 0042E0  6F88               	movwf	((?___ftpack+1))&0ffh
 10041+ 0042E2  EC76  F024         	call	___ftpack	;wreg free
 10042+                          	line	43
 10043+ 0042E6  0101               	movlb	1	; () banked
 10044+ 0042E8  0101               	movlb	1	; () banked
 10045+ 0042EA  5180               	movf	((___ftmul@sign1))&0ffh,w
 10046+ 0042EC  B4D8               	btfsc	status,2
 10047+ 0042EE  D001               	goto	u6871
 10048+ 0042F0  D001               	goto	u6870
 10049+ 0042F2                     u6871:
 10050+ 0042F2  D003               	goto	l658
 10051+ 0042F4                     u6870:
 10052+                          	line	44
 10053+ 0042F4  0101               	movlb	1	; () banked
 10054+ 0042F6  0101               	movlb	1	; () banked
 10055+ 0042F8  8F85               	bsf	(0+(23/8)+(___ftmul@f3))&0ffh,(23)&7
 10056+                          	
 10057+ 0042FA                     l658:		; BSR set to: ?
 10058+                          
 10059+                          	line	45
 10060+ 0042FA  C183  F17A         	movff	(___ftmul@f3),(?___ftmul)
 10061+ 0042FE  C184  F17B         	movff	(___ftmul@f3+1),(?___ftmul+1)
 10062+ 004302  C185  F17C         	movff	(___ftmul@f3+2),(?___ftmul+2)
 10063+ 004306  D000               	goto	l648
 10064+                          	line	46
 10065+ 004308                     l648:
 10066+                          			; BSR set to: ?
 10067+                          
 10068+ 004308  0012               	return
 10069                           	opt stack 0
 10070                           GLOBAL __end_of___ftmul
 10071  00430A                     	__end_of___ftmul:
 10072                           	FNSIZE	___ftmul,7,6
 10073                           ; =============== function ___ftmul ends =======
                                 =====
 10074                           
 10075                           	signat	___ftmul,8315
 10076                           	global	___wmul
 10077                           	global	??___wmul
 10078                           	global	?___wmul
 10079                                   psect   text24,class=CODE,space=0,reloc=
                                 2
 10080                           
 10081                           	opt lm
 10082                           	file	"C:\Program Files (x86)\HI-TECH Software\P
                                 ICC-18\PRO\9.63\sources\wmul.c"
 10083                           	line	3
 10084  000000                     	__size_of___wmul	equ	__end_of___wmul-___wmul
 10085                           	
 10086  00530E                     ___wmul:		; BSR set to: ?
 10087                           
 10088                           	opt stack 27
 10089                           	line	4
 10090  00530E  0E00               	movlw	low(0)
 10091  005310  0101               	movlb	1	; () banked
 10092  005312  0101               	movlb	1	; () banked
 10093  005314  6F7E               	movwf	((___wmul@product))&0ffh
 10094  005316  0E00               	movlw	high(0)
 10095  005318  0101               	movlb	1	; () banked
 10096  00531A  6F7F               	movwf	((___wmul@product+1))&0ffh
 10097                           	line	6
 10098                           	
 10099  00531C                     l751:		; BSR set to: ?
 10100                           
 10101                           	line	7
 10102  00531C  0101               	movlb	1	; () banked
 10103                           	
 10104  00531E  0101               	movlb	1	; () banked
 10105  005320  A17A               	btfss	((___wmul@multiplier))&0ffh,(0)&7
 10106  005322  D001               	goto	u6881
 10107  005324  D001               	goto	u6880
 10108  005326                     u6881:
 10109  005326  D00C               	goto	l752
 10110  005328                     u6880:
 10111                           	line	8
 10112  005328  0101               	movlb	1	; () banked
 10113  00532A  0101               	movlb	1	; () banked
 10114  00532C  517C               	movf	((___wmul@multiplicand))&0ffh,w
 10115  00532E  0101               	movlb	1	; () banked
 10116  005330  0101               	movlb	1	; () banked
 10117  005332  277E               	addwf	((___wmul@product))&0ffh
 10118  005334  0101               	movlb	1	; () banked
 10119  005336  0101               	movlb	1	; () banked
 10120  005338  517D               	movf	((___wmul@multiplicand+1))&0ffh,w
 10121  00533A  0101               	movlb	1	; () banked
 10122  00533C  0101               	movlb	1	; () banked
 10123  00533E  237F               	addwfc	((___wmul@product+1))&0ffh
 10124                           
 10125                           	
 10126  005340                     l752:		; BSR set to: ?
 10127                           
 10128                           	line	9
 10129  005340  0101               	movlb	1	; () banked
 10130  005342  90D8               	bcf	status,0
 10131  005344  0101               	movlb	1	; () banked
 10132  005346  377C               	rlcf	((___wmul@multiplicand))&0ffh
 10133  005348  0101               	movlb	1	; () banked
 10134  00534A  377D               	rlcf	((___wmul@multiplicand+1))&0ffh
 10135                           	line	10
 10136  00534C  0101               	movlb	1	; () banked
 10137  00534E  90D8               	bcf	status,0
 10138  005350  0101               	movlb	1	; () banked
 10139  005352  337B               	rrcf	((___wmul@multiplier+1))&0ffh
 10140  005354  0101               	movlb	1	; () banked
 10141  005356  337A               	rrcf	((___wmul@multiplier))&0ffh
 10142                           	line	11
 10143  005358  0101               	movlb	1	; () banked
 10144  00535A  0101               	movlb	1	; () banked
 10145  00535C  517B               	movf	((___wmul@multiplier+1))&0ffh,w
 10146  00535E  117A               	iorwf ((___wmul@multiplier))&0ffh,w
 10147                           
 10148  005360  A4D8               	btfss	status,2
 10149  005362  D001               	goto	u6891
 10150  005364  D001               	goto	u6890
 10151  005366                     u6891:
 10152  005366  D7DA               	goto	l751
 10153  005368                     u6890:
 10154                           	
 10155  005368                     l750:		; BSR set to: ?
 10156                           
 10157                           	line	12
 10158  005368  C17E  F17A         	movff	(___wmul@product),(?___wmul)
 10159  00536C  C17F  F17B         	movff	(___wmul@product+1),(?___wmul+1)
 10160  005370  D000               	goto	l748
 10161                           	line	13
 10162  005372                     l748:
 10163                           			; BSR set to: ?
 10164                           
 10165  005372  0012               	return
 10166                           	opt stack 0
 10167                           GLOBAL __end_of___wmul
 10168  005374                     	__end_of___wmul:
 10169                           	FNSIZE	___wmul,2,4
 10170                           ; =============== function ___wmul ends ========
                                 ====
 10171                           
 10172                           	signat	___wmul,8314
 10173                           	global	_LCD_Strobe
 10174                           	global	??_LCD_Strobe
 10175                           	global	?_LCD_Strobe
 10176                                   psect   text25,class=CODE,space=0,reloc=
                                 2
 10177                           
 10178                           	opt lm
 10179                           	file	"C:\Users\leeee\Desktop\Desktop\School\Col
                                 lege\4th Year\Semester 2\Embedded Systems\HW\HW1
                                 0\lcd_portd.c"
 10180                           	line	32
 10181  000000                     	__size_of_LCD_Strobe	equ	__end_of_LCD_Strobe-_L
                                 CD_Strobe
 10182                           ;lcd_portd.c: 31: void LCD_Strobe(void)
 10183                           ;lcd_portd.c: 32: {
 10184                           	
 10185  0055EC                     _LCD_Strobe:		; BSR set to: ?
 10186                           
 10187                           	opt stack 27
 10188                           	line	33
 10189                           ;lcd_portd.c: 33: RD3 = 0;
 10190  0055EC  9683               	bcf	c:(31771/8),(31771)&7	;volatile
 10191                           	line	34
 10192                           ;lcd_portd.c: 34: LCD_Pause();
 10193  0055EE  ECC8  F02A         	call	_LCD_Pause	;wreg free
 10194                           	line	35
 10195                           ;lcd_portd.c: 35: RD3 = 1;
 10196  0055F2  8683               	bsf	c:(31771/8),(31771)&7	;volatile
 10197                           	line	36
 10198                           ;lcd_portd.c: 36: LCD_Pause();
 10199  0055F4  ECC8  F02A         	call	_LCD_Pause	;wreg free
 10200                           	line	37
 10201                           ;lcd_portd.c: 37: RD3 = 0;
 10202  0055F8  9683               	bcf	c:(31771/8),(31771)&7	;volatile
 10203                           	line	38
 10204                           ;lcd_portd.c: 38: LCD_Pause();
 10205  0055FA  ECC8  F02A         	call	_LCD_Pause	;wreg free
 10206                           	line	39
 10207                           ;lcd_portd.c: 39: }
 10208  0055FE                     l126:
 10209                           			; BSR set to: ?
 10210                           
 10211  0055FE  0012               	return
 10212                           	opt stack 0
 10213                           GLOBAL __end_of_LCD_Strobe
 10214  005600                     	__end_of_LCD_Strobe:
 10215                           	FNSIZE	_LCD_Strobe,0,0
 10216                           ; =============== function _LCD_Strobe ends ====
                                 ========
 10217                           
 10218                           	signat	_LCD_Strobe,88
 10219                           	global	_Wait_ms
 10220                           	global	??_Wait_ms
 10221                           	global	?_Wait_ms
 10222                                   psect   text26,class=CODE,space=0,reloc=
                                 2
 10223                           
 10224                           	opt lm
 10225                           	file	"C:\Users\leeee\Desktop\Desktop\School\Col
                                 lege\4th Year\Semester 2\Embedded Systems\HW\HW1
                                 0\lcd_portd.c"
 10226                           	line	16
 10227  000000                     	__size_of_Wait_ms	equ	__end_of_Wait_ms-_Wait_ms
 10228                           ;lcd_portd.c: 15: void Wait_ms(unsigned int X)
 10229                           ;lcd_portd.c: 16: {
 10230                           	
 10231  005290                     _Wait_ms:		; BSR set to: ?
 10232                           
 10233                           	opt stack 27
 10234                           	line	19
 10235  005290  0E00               	movlw	low(0)
 10236  005292  0101               	movlb	1	; () banked
 10237  005294  0101               	movlb	1	; () banked
 10238  005296  6F28               	movwf	((Wait_ms@i))&0ffh
 10239  005298  0E00               	movlw	high(0)
 10240  00529A  0101               	movlb	1	; () banked
 10241  00529C  6F29               	movwf	((Wait_ms@i+1))&0ffh
 10242  00529E  D026               	goto	l118
 10243                           	line	20
 10244                           	
 10245  0052A0                     l115:		; BSR set to: ?
 10246                           
 10247                           ;lcd_portd.c: 20: for (j=0; j<617; j++);
 10248  0052A0  0E00               	movlw	low(0)
 10249  0052A2  0101               	movlb	1	; () banked
 10250  0052A4  0101               	movlb	1	; () banked
 10251  0052A6  6F2A               	movwf	((Wait_ms@j))&0ffh
 10252  0052A8  0E00               	movlw	high(0)
 10253  0052AA  0101               	movlb	1	; () banked
 10254  0052AC  6F2B               	movwf	((Wait_ms@j+1))&0ffh
 10255  0052AE  0E69               	movlw	069h
 10256  0052B0  0101               	movlb	1	; () banked
 10257  0052B2  0101               	movlb	1	; () banked
 10258  0052B4  5D2A               	subwf	((Wait_ms@j))&0ffh,w
 10259  0052B6  0E02               	movlw	02h
 10260  0052B8  0101               	movlb	1	; () banked
 10261  0052BA  592B               	subwfb	((Wait_ms@j+1))&0ffh,w
 10262  0052BC  A0D8               	btfss	status,0
 10263  0052BE  D001               	goto	u6901
 10264  0052C0  D001               	goto	u6900
 10265  0052C2                     u6901:
 10266  0052C2  D001               	goto	l119
 10267  0052C4                     u6900:
 10268  0052C4  D00F               	goto	l120
 10269                           	
 10270  0052C6                     l119:		; BSR set to: ?
 10271                           
 10272  0052C6  0101               	movlb	1	; () banked
 10273  0052C8  0101               	movlb	1	; () banked
 10274  0052CA  4B2A               	infsnz	((Wait_ms@j))&0ffh
 10275  0052CC  2B2B               	incf	((Wait_ms@j+1))&0ffh
 10276  0052CE  0E69               	movlw	069h
 10277  0052D0  0101               	movlb	1	; () banked
 10278  0052D2  0101               	movlb	1	; () banked
 10279  0052D4  5D2A               	subwf	((Wait_ms@j))&0ffh,w
 10280  0052D6  0E02               	movlw	02h
 10281  0052D8  0101               	movlb	1	; () banked
 10282  0052DA  592B               	subwfb	((Wait_ms@j+1))&0ffh,w
 10283  0052DC  A0D8               	btfss	status,0
 10284  0052DE  D001               	goto	u6911
 10285  0052E0  D001               	goto	u6910
 10286  0052E2                     u6911:
 10287  0052E2  D7F1               	goto	l119
 10288  0052E4                     u6910:
 10289                           	
 10290  0052E4                     l120:		; BSR set to: ?
 10291                           
 10292                           	line	19
 10293  0052E4  0101               	movlb	1	; () banked
 10294  0052E6  0101               	movlb	1	; () banked
 10295  0052E8  4B28               	infsnz	((Wait_ms@i))&0ffh
 10296  0052EA  2B29               	incf	((Wait_ms@i+1))&0ffh
 10297                           	
 10298  0052EC                     l118:		; BSR set to: ?
 10299                           
 10300  0052EC  0101               	movlb	1	; () banked
 10301  0052EE  0101               	movlb	1	; () banked
 10302  0052F0  5126               	movf	((Wait_ms@X))&0ffh,w
 10303  0052F2  0101               	movlb	1	; () banked
 10304  0052F4  0101               	movlb	1	; () banked
 10305  0052F6  5D28               	subwf	((Wait_ms@i))&0ffh,w
 10306  0052F8  0101               	movlb	1	; () banked
 10307  0052FA  0101               	movlb	1	; () banked
 10308  0052FC  5127               	movf	((Wait_ms@X+1))&0ffh,w
 10309  0052FE  0101               	movlb	1	; () banked
 10310  005300  0101               	movlb	1	; () banked
 10311  005302  5929               	subwfb	((Wait_ms@i+1))&0ffh,w
 10312  005304  A0D8               	btfss	status,0
 10313  005306  D001               	goto	u6921
 10314  005308  D001               	goto	u6920
 10315  00530A                     u6921:
 10316  00530A  D7CA               	goto	l115
 10317  00530C                     u6920:
 10318                           	
 10319  00530C                     l116:		; BSR set to: ?
 10320                           
 10321                           	line	21
 10322                           ;lcd_portd.c: 21: }
 10323  00530C                     l114:
 10324                           			; BSR set to: ?
 10325                           
 10326  00530C  0012               	return
 10327                           	opt stack 0
 10328                           GLOBAL __end_of_Wait_ms
 10329  00530E                     	__end_of_Wait_ms:
 10330                           	FNSIZE	_Wait_ms,4,2
 10331                           ; =============== function _Wait_ms ends =======
                                 =====
 10332                           
 10333                           	signat	_Wait_ms,4216
 10334                           	global	___awdiv
 10335                           	global	??___awdiv
 10336                           	global	?___awdiv
 10337                                   psect   text27,class=CODE,space=0,reloc=
                                 2
 10338                           
 10339                           	opt lm
 10340                           	file	"C:\Program Files (x86)\HI-TECH Software\P
                                 ICC-18\PRO\9.63\sources\awdiv.c"
 10341                           	line	5
 10342  000000                     	__size_of___awdiv	equ	__end_of___awdiv-___awdiv
 10343                           	
 10344  004A2A                     ___awdiv:		; BSR set to: ?
 10345                           
 10346                           	opt stack 27
 10347                           	line	9
 10348  004A2A  0101               	movlb	1	; () banked
 10349  004A2C  6F82               	movwf	(??___awdiv+4+0)&0ffh
 10350  004A2E  0E00               	movlw	low(0)
 10351  004A30  0101               	movlb	1	; () banked
 10352  004A32  0101               	movlb	1	; () banked
 10353  004A34  6F7F               	movwf	((___awdiv@sign))&0ffh
 10354  004A36  0101               	movlb	1	; () banked
 10355  004A38  5182               	movf	(??___awdiv+4+0)&0ffh,w
 10356                           	line	10
 10357  004A3A  0101               	movlb	1	; () banked
 10358  004A3C  0101               	movlb	1	; () banked
 10359  004A3E  AF7D               	btfss	((___awdiv@divisor+1))&0ffh,7
 10360  004A40  D001               	goto	u6931
 10361  004A42  D001               	goto	u6930
 10362  004A44                     u6931:
 10363  004A44  D00F               	goto	l443
 10364  004A46                     u6930:
 10365                           	line	11
 10366  004A46  0101               	movlb	1	; () banked
 10367  004A48  0101               	movlb	1	; () banked
 10368  004A4A  6D7C               	negf	((___awdiv@divisor))&0ffh
 10369  004A4C  0101               	movlb	1	; () banked
 10370  004A4E  1F7D               	comf	((___awdiv@divisor+1))&0ffh
 10371  004A50  B0D8               	btfsc	status,0
 10372  004A52  2B7D               	incf	((___awdiv@divisor+1))&0ffh
 10373                           	line	12
 10374  004A54  0101               	movlb	1	; () banked
 10375  004A56  6F82               	movwf	(??___awdiv+4+0)&0ffh
 10376  004A58  0E01               	movlw	low(01h)
 10377  004A5A  0101               	movlb	1	; () banked
 10378  004A5C  0101               	movlb	1	; () banked
 10379  004A5E  6F7F               	movwf	((___awdiv@sign))&0ffh
 10380  004A60  0101               	movlb	1	; () banked
 10381  004A62  5182               	movf	(??___awdiv+4+0)&0ffh,w
 10382                           	line	13
 10383                           	
 10384  004A64                     l443:		; BSR set to: ?
 10385                           
 10386                           	line	14
 10387  004A64  0101               	movlb	1	; () banked
 10388  004A66  0101               	movlb	1	; () banked
 10389  004A68  AF7B               	btfss	((___awdiv@dividend+1))&0ffh,7
 10390  004A6A  D001               	goto	u6941
 10391  004A6C  D001               	goto	u6940
 10392  004A6E                     u6941:
 10393  004A6E  D00B               	goto	l444
 10394  004A70                     u6940:
 10395                           	line	15
 10396  004A70  0101               	movlb	1	; () banked
 10397  004A72  0101               	movlb	1	; () banked
 10398  004A74  6D7A               	negf	((___awdiv@dividend))&0ffh
 10399  004A76  0101               	movlb	1	; () banked
 10400  004A78  1F7B               	comf	((___awdiv@dividend+1))&0ffh
 10401  004A7A  B0D8               	btfsc	status,0
 10402  004A7C  2B7B               	incf	((___awdiv@dividend+1))&0ffh
 10403                           	line	16
 10404  004A7E  0E01               	movlw	(01h)&0ffh
 10405  004A80  0101               	movlb	1	; () banked
 10406  004A82  0101               	movlb	1	; () banked
 10407  004A84  1B7F               	xorwf	((___awdiv@sign))&0ffh
 10408                           	line	17
 10409                           	
 10410  004A86                     l444:		; BSR set to: ?
 10411                           
 10412                           	line	18
 10413  004A86  0E00               	movlw	low(0)
 10414  004A88  0101               	movlb	1	; () banked
 10415  004A8A  0101               	movlb	1	; () banked
 10416  004A8C  6F80               	movwf	((___awdiv@quotient))&0ffh
 10417  004A8E  0E00               	movlw	high(0)
 10418  004A90  0101               	movlb	1	; () banked
 10419  004A92  6F81               	movwf	((___awdiv@quotient+1))&0ffh
 10420                           	line	19
 10421  004A94  0101               	movlb	1	; () banked
 10422  004A96  0101               	movlb	1	; () banked
 10423  004A98  517D               	movf	((___awdiv@divisor+1))&0ffh,w
 10424  004A9A  117C               	iorwf ((___awdiv@divisor))&0ffh,w
 10425                           
 10426  004A9C  B4D8               	btfsc	status,2
 10427  004A9E  D001               	goto	u6951
 10428  004AA0  D001               	goto	u6950
 10429  004AA2                     u6951:
 10430  004AA2  D047               	goto	l445
 10431  004AA4                     u6950:
 10432                           	line	20
 10433  004AA4  0101               	movlb	1	; () banked
 10434  004AA6  6F82               	movwf	(??___awdiv+4+0)&0ffh
 10435  004AA8  0E01               	movlw	low(01h)
 10436  004AAA  0101               	movlb	1	; () banked
 10437  004AAC  0101               	movlb	1	; () banked
 10438  004AAE  6F7E               	movwf	((___awdiv@counter))&0ffh
 10439  004AB0  0101               	movlb	1	; () banked
 10440  004AB2  5182               	movf	(??___awdiv+4+0)&0ffh,w
 10441                           	line	21
 10442  004AB4  D009               	goto	l446
 10443                           	
 10444  004AB6                     l447:		; BSR set to: ?
 10445                           
 10446                           	line	22
 10447  004AB6  0101               	movlb	1	; () banked
 10448  004AB8  90D8               	bcf	status,0
 10449  004ABA  0101               	movlb	1	; () banked
 10450  004ABC  377C               	rlcf	((___awdiv@divisor))&0ffh
 10451  004ABE  0101               	movlb	1	; () banked
 10452  004AC0  377D               	rlcf	((___awdiv@divisor+1))&0ffh
 10453                           	line	23
 10454  004AC2  0101               	movlb	1	; () banked
 10455  004AC4  0101               	movlb	1	; () banked
 10456  004AC6  2B7E               	incf	((___awdiv@counter))&0ffh
 10457                           	line	24
 10458                           	
 10459  004AC8                     l446:		; BSR set to: ?
 10460                           
 10461                           	line	21
 10462  004AC8  0101               	movlb	1	; () banked
 10463                           	
 10464  004ACA  0101               	movlb	1	; () banked
 10465  004ACC  AF7D               	btfss	((___awdiv@divisor+1))&0ffh,(15)&7
 10466  004ACE  D001               	goto	u6961
 10467  004AD0  D001               	goto	u6960
 10468  004AD2                     u6961:
 10469  004AD2  D7F1               	goto	l447
 10470  004AD4                     u6960:
 10471                           	
 10472  004AD4                     l448:		; BSR set to: ?
 10473                           
 10474                           	line	25
 10475                           	
 10476  004AD4                     l451:		; BSR set to: ?
 10477                           
 10478                           	line	26
 10479  004AD4  0101               	movlb	1	; () banked
 10480  004AD6  90D8               	bcf	status,0
 10481  004AD8  0101               	movlb	1	; () banked
 10482  004ADA  3780               	rlcf	((___awdiv@quotient))&0ffh
 10483  004ADC  0101               	movlb	1	; () banked
 10484  004ADE  3781               	rlcf	((___awdiv@quotient+1))&0ffh
 10485                           	line	27
 10486  004AE0  0101               	movlb	1	; () banked
 10487  004AE2  0101               	movlb	1	; () banked
 10488  004AE4  517C               	movf	((___awdiv@divisor))&0ffh,w
 10489  004AE6  0101               	movlb	1	; () banked
 10490  004AE8  0101               	movlb	1	; () banked
 10491  004AEA  5D7A               	subwf	((___awdiv@dividend))&0ffh,w
 10492  004AEC  0101               	movlb	1	; () banked
 10493  004AEE  0101               	movlb	1	; () banked
 10494  004AF0  517D               	movf	((___awdiv@divisor+1))&0ffh,w
 10495  004AF2  0101               	movlb	1	; () banked
 10496  004AF4  0101               	movlb	1	; () banked
 10497  004AF6  597B               	subwfb	((___awdiv@dividend+1))&0ffh,w
 10498  004AF8  A0D8               	btfss	status,0
 10499  004AFA  D001               	goto	u6971
 10500  004AFC  D001               	goto	u6970
 10501  004AFE                     u6971:
 10502  004AFE  D00F               	goto	l452
 10503  004B00                     u6970:
 10504                           	line	28
 10505  004B00  0101               	movlb	1	; () banked
 10506  004B02  0101               	movlb	1	; () banked
 10507  004B04  517C               	movf	((___awdiv@divisor))&0ffh,w
 10508  004B06  0101               	movlb	1	; () banked
 10509  004B08  0101               	movlb	1	; () banked
 10510  004B0A  5F7A               	subwf	((___awdiv@dividend))&0ffh
 10511  004B0C  0101               	movlb	1	; () banked
 10512  004B0E  0101               	movlb	1	; () banked
 10513  004B10  517D               	movf	((___awdiv@divisor+1))&0ffh,w
 10514  004B12  0101               	movlb	1	; () banked
 10515  004B14  0101               	movlb	1	; () banked
 10516  004B16  5B7B               	subwfb	((___awdiv@dividend+1))&0ffh
 10517                           
 10518                           	line	29
 10519  004B18  0101               	movlb	1	; () banked
 10520  004B1A  0101               	movlb	1	; () banked
 10521  004B1C  8180               	bsf	(0+(0/8)+(___awdiv@quotient))&0ffh,(0)&7
 10522                           	line	30
 10523                           	
 10524  004B1E                     l452:		; BSR set to: ?
 10525                           
 10526                           	line	31
 10527  004B1E  0101               	movlb	1	; () banked
 10528  004B20  90D8               	bcf	status,0
 10529  004B22  0101               	movlb	1	; () banked
 10530  004B24  337D               	rrcf	((___awdiv@divisor+1))&0ffh
 10531  004B26  0101               	movlb	1	; () banked
 10532  004B28  337C               	rrcf	((___awdiv@divisor))&0ffh
 10533                           	line	32
 10534  004B2A  0101               	movlb	1	; () banked
 10535  004B2C  0101               	movlb	1	; () banked
 10536  004B2E  2F7E               	decfsz	((___awdiv@counter))&0ffh
 10537                           	
 10538  004B30  D7D1               	goto	l451
 10539                           	
 10540  004B32                     l450:		; BSR set to: ?
 10541                           
 10542                           	line	33
 10543                           	
 10544  004B32                     l445:		; BSR set to: ?
 10545                           
 10546                           	line	34
 10547  004B32  0101               	movlb	1	; () banked
 10548  004B34  0101               	movlb	1	; () banked
 10549  004B36  517F               	movf	((___awdiv@sign))&0ffh,w
 10550  004B38  B4D8               	btfsc	status,2
 10551  004B3A  D001               	goto	u6981
 10552  004B3C  D001               	goto	u6980
 10553  004B3E                     u6981:
 10554  004B3E  D007               	goto	l453
 10555  004B40                     u6980:
 10556                           	line	35
 10557  004B40  0101               	movlb	1	; () banked
 10558  004B42  0101               	movlb	1	; () banked
 10559  004B44  6D80               	negf	((___awdiv@quotient))&0ffh
 10560  004B46  0101               	movlb	1	; () banked
 10561  004B48  1F81               	comf	((___awdiv@quotient+1))&0ffh
 10562  004B4A  B0D8               	btfsc	status,0
 10563  004B4C  2B81               	incf	((___awdiv@quotient+1))&0ffh
 10564                           	
 10565  004B4E                     l453:		; BSR set to: ?
 10566                           
 10567                           	line	36
 10568  004B4E  C180  F17A         	movff	(___awdiv@quotient),(?___awdiv)
 10569  004B52  C181  F17B         	movff	(___awdiv@quotient+1),(?___awdiv+1)
 10570  004B56  D000               	goto	l442
 10571                           	line	37
 10572  004B58                     l442:
 10573                           			; BSR set to: ?
 10574                           
 10575  004B58  0012               	return
 10576                           	opt stack 0
 10577                           GLOBAL __end_of___awdiv
 10578  004B5A                     	__end_of___awdiv:
 10579                           	FNSIZE	___awdiv,5,4
 10580                           ; =============== function ___awdiv ends =======
                                 =====
 10581                           
 10582                           	signat	___awdiv,8314
 10583                           	global	___ftdiv
 10584                           	global	??___ftdiv
 10585                           	global	?___ftdiv
 10586                                   psect   text28,class=CODE,space=0,reloc=
                                 2
 10587                           
 10588                           	opt lm
 10589                           	file	"C:\Program Files (x86)\HI-TECH Software\P
                                 ICC-18\PRO\9.63\sources\ftdiv.c"
 10590                           	line	19
 10591  000000                     	__size_of___ftdiv	equ	__end_of___ftdiv-___ftdiv
 10592                           	
 10593  00430A                     ___ftdiv:		; BSR set to: ?
 10594                           
 10595                           	opt stack 27
 10596                           	line	23
 10597  00430A  0E00               	movlw	low(0)
 10598  00430C  0101               	movlb	1	; () banked
 10599  00430E  0101               	movlb	1	; () banked
 10600  004310  6F6A               	movwf	((___ftdiv@f3))&0ffh
 10601  004312  0E00               	movlw	high(0)
 10602  004314  0101               	movlb	1	; () banked
 10603  004316  0101               	movlb	1	; () banked
 10604  004318  6F6B               	movwf	((___ftdiv@f3+1))&0ffh
 10605  00431A  0E00               	movlw	low highword(0)
 10606  00431C  0101               	movlb	1	; () banked
 10607  00431E  0101               	movlb	1	; () banked
 10608  004320  6F6C               	movwf	((___ftdiv@f3+2))&0ffh
 10609                           
 10610                           	line	24
 10611  004322  0101               	movlb	1	; () banked
 10612  004324  0E68               	movlw	low(___ftdiv@exp1)
 10613  004326  0101               	movlb	1	; () banked
 10614  004328  0101               	movlb	1	; () banked
 10615  00432A  6F89               	movwf	(0+(?___ftunpack+02h))&0ffh
 10616  00432C  0101               	movlb	1	; () banked
 10617  00432E  0E01               	movlw	high(___ftdiv@exp1)
 10618  004330  0101               	movlb	1	; () banked
 10619  004332  6F8A               	movwf	(1+(?___ftunpack+02h))&0ffh
 10620  004334  0101               	movlb	1	; () banked
 10621  004336  0E60               	movlw	low(___ftdiv@f1)
 10622  004338  0101               	movlb	1	; () banked
 10623  00433A  0101               	movlb	1	; () banked
 10624  00433C  6F87               	movwf	((?___ftunpack))&0ffh
 10625  00433E  0101               	movlb	1	; () banked
 10626  004340  0E01               	movlw	high(___ftdiv@f1)
 10627  004342  0101               	movlb	1	; () banked
 10628  004344  6F88               	movwf	((?___ftunpack+1))&0ffh
 10629  004346  EC68  F028         	call	___ftunpack	;wreg free
 10630  00434A  0101               	movlb	1	; () banked
 10631  00434C  0101               	movlb	1	; () banked
 10632  00434E  6F67               	movwf	((___ftdiv@sign1))&0ffh
 10633                           	line	25
 10634  004350  0101               	movlb	1	; () banked
 10635  004352  0101               	movlb	1	; () banked
 10636  004354  6768               	tstfsz	((___ftdiv@exp1))&0ffh
 10637  004356  D001               	goto	u6991
 10638  004358  D001               	goto	u6990
 10639  00435A                     u6991:
 10640  00435A  D007               	goto	l623
 10641  00435C                     u6990:
 10642                           	line	26
 10643  00435C  C16A  F160         	movff	(___ftdiv@f3),(?___ftdiv)
 10644  004360  C16B  F161         	movff	(___ftdiv@f3+1),(?___ftdiv+1)
 10645  004364  C16C  F162         	movff	(___ftdiv@f3+2),(?___ftdiv+2)
 10646  004368  D096               	goto	l622
 10647                           	
 10648  00436A                     l623:		; BSR set to: ?
 10649                           
 10650                           	line	27
 10651  00436A  0101               	movlb	1	; () banked
 10652  00436C  0E66               	movlw	low(___ftdiv@exp2)
 10653  00436E  0101               	movlb	1	; () banked
 10654  004370  0101               	movlb	1	; () banked
 10655  004372  6F89               	movwf	(0+(?___ftunpack+02h))&0ffh
 10656  004374  0101               	movlb	1	; () banked
 10657  004376  0E01               	movlw	high(___ftdiv@exp2)
 10658  004378  0101               	movlb	1	; () banked
 10659  00437A  6F8A               	movwf	(1+(?___ftunpack+02h))&0ffh
 10660  00437C  0101               	movlb	1	; () banked
 10661  00437E  0E63               	movlw	low(___ftdiv@f2)
 10662  004380  0101               	movlb	1	; () banked
 10663  004382  0101               	movlb	1	; () banked
 10664  004384  6F87               	movwf	((?___ftunpack))&0ffh
 10665  004386  0101               	movlb	1	; () banked
 10666  004388  0E01               	movlw	high(___ftdiv@f2)
 10667  00438A  0101               	movlb	1	; () banked
 10668  00438C  6F88               	movwf	((?___ftunpack+1))&0ffh
 10669  00438E  EC68  F028         	call	___ftunpack	;wreg free
 10670  004392  0101               	movlb	1	; () banked
 10671  004394  0101               	movlb	1	; () banked
 10672  004396  6F69               	movwf	((___ftdiv@sign2))&0ffh
 10673                           	line	28
 10674  004398  0101               	movlb	1	; () banked
 10675  00439A  0101               	movlb	1	; () banked
 10676  00439C  6766               	tstfsz	((___ftdiv@exp2))&0ffh
 10677  00439E  D001               	goto	u7001
 10678  0043A0  D001               	goto	u7000
 10679  0043A2                     u7001:
 10680  0043A2  D007               	goto	l624
 10681  0043A4                     u7000:
 10682                           	line	29
 10683  0043A4  C16A  F160         	movff	(___ftdiv@f3),(?___ftdiv)
 10684  0043A8  C16B  F161         	movff	(___ftdiv@f3+1),(?___ftdiv+1)
 10685  0043AC  C16C  F162         	movff	(___ftdiv@f3+2),(?___ftdiv+2)
 10686  0043B0  D072               	goto	l622
 10687                           	
 10688  0043B2                     l624:		; BSR set to: ?
 10689                           
 10690                           	line	30
 10691  0043B2  0101               	movlb	1	; () banked
 10692  0043B4  0101               	movlb	1	; () banked
 10693  0043B6  5166               	movf	((___ftdiv@exp2))&0ffh,w
 10694  0043B8  0F89               	addlw	low(089h)
 10695  0043BA  0101               	movlb	1	; () banked
 10696  0043BC  0101               	movlb	1	; () banked
 10697  0043BE  5F68               	subwf	((___ftdiv@exp1))&0ffh
 10698                           	line	31
 10699  0043C0  0101               	movlb	1	; () banked
 10700  0043C2  0101               	movlb	1	; () banked
 10701  0043C4  5169               	movf	((___ftdiv@sign2))&0ffh,w
 10702  0043C6  0101               	movlb	1	; () banked
 10703  0043C8  0101               	movlb	1	; () banked
 10704  0043CA  1B67               	xorwf	((___ftdiv@sign1))&0ffh
 10705                           	line	32
 10706  0043CC  0101               	movlb	1	; () banked
 10707  0043CE  6F6D               	movwf	(??___ftdiv+7+0)&0ffh
 10708  0043D0  0E18               	movlw	low(018h)
 10709  0043D2  0101               	movlb	1	; () banked
 10710  0043D4  0101               	movlb	1	; () banked
 10711  0043D6  6F69               	movwf	((___ftdiv@sign2))&0ffh
 10712  0043D8  0101               	movlb	1	; () banked
 10713  0043DA  516D               	movf	(??___ftdiv+7+0)&0ffh,w
 10714                           	line	33
 10715                           	
 10716  0043DC                     l627:		; BSR set to: ?
 10717                           
 10718                           	line	34
 10719  0043DC  0101               	movlb	1	; () banked
 10720  0043DE  90D8               	bcf	status,0
 10721  0043E0  0101               	movlb	1	; () banked
 10722  0043E2  376A               	rlcf	((___ftdiv@f3))&0ffh
 10723  0043E4  0101               	movlb	1	; () banked
 10724  0043E6  376B               	rlcf	((___ftdiv@f3+1))&0ffh
 10725  0043E8  0101               	movlb	1	; () banked
 10726  0043EA  376C               	rlcf	((___ftdiv@f3+2))&0ffh
 10727                           	line	35
 10728  0043EC  0101               	movlb	1	; () banked
 10729  0043EE  0101               	movlb	1	; () banked
 10730  0043F0  5163               	movf	((___ftdiv@f2))&0ffh,w
 10731  0043F2  0101               	movlb	1	; () banked
 10732  0043F4  0101               	movlb	1	; () banked
 10733  0043F6  5D60               	subwf	((___ftdiv@f1))&0ffh,w
 10734  0043F8  0101               	movlb	1	; () banked
 10735  0043FA  0101               	movlb	1	; () banked
 10736  0043FC  5164               	movf	((___ftdiv@f2+1))&0ffh,w
 10737  0043FE  0101               	movlb	1	; () banked
 10738  004400  0101               	movlb	1	; () banked
 10739  004402  5961               	subwfb	((___ftdiv@f1+1))&0ffh,w
 10740  004404  0101               	movlb	1	; () banked
 10741  004406  0101               	movlb	1	; () banked
 10742  004408  5165               	movf	((___ftdiv@f2+2))&0ffh,w
 10743  00440A  0101               	movlb	1	; () banked
 10744  00440C  0101               	movlb	1	; () banked
 10745  00440E  5962               	subwfb	((___ftdiv@f1+2))&0ffh,w
 10746  004410  A0D8               	btfss	status,0
 10747  004412  D001               	goto	u7011
 10748  004414  D001               	goto	u7010
 10749  004416                     u7011:
 10750  004416  D015               	goto	l628
 10751  004418                     u7010:
 10752                           	line	36
 10753  004418  0101               	movlb	1	; () banked
 10754  00441A  0101               	movlb	1	; () banked
 10755  00441C  5163               	movf	((___ftdiv@f2))&0ffh,w
 10756  00441E  0101               	movlb	1	; () banked
 10757  004420  0101               	movlb	1	; () banked
 10758  004422  5F60               	subwf	((___ftdiv@f1))&0ffh
 10759  004424  0101               	movlb	1	; () banked
 10760  004426  0101               	movlb	1	; () banked
 10761  004428  5164               	movf	((___ftdiv@f2+1))&0ffh,w
 10762  00442A  0101               	movlb	1	; () banked
 10763  00442C  0101               	movlb	1	; () banked
 10764  00442E  5B61               	subwfb	((___ftdiv@f1+1))&0ffh
 10765  004430  0101               	movlb	1	; () banked
 10766  004432  0101               	movlb	1	; () banked
 10767  004434  5165               	movf	((___ftdiv@f2+2))&0ffh,w
 10768  004436  0101               	movlb	1	; () banked
 10769  004438  0101               	movlb	1	; () banked
 10770  00443A  5B62               	subwfb	((___ftdiv@f1+2))&0ffh
 10771                           
 10772                           	line	37
 10773  00443C  0101               	movlb	1	; () banked
 10774  00443E  0101               	movlb	1	; () banked
 10775  004440  816A               	bsf	(0+(0/8)+(___ftdiv@f3))&0ffh,(0)&7
 10776                           	line	38
 10777                           	
 10778  004442                     l628:		; BSR set to: ?
 10779                           
 10780                           	line	39
 10781  004442  0101               	movlb	1	; () banked
 10782  004444  90D8               	bcf	status,0
 10783  004446  0101               	movlb	1	; () banked
 10784  004448  3760               	rlcf	((___ftdiv@f1))&0ffh
 10785  00444A  0101               	movlb	1	; () banked
 10786  00444C  3761               	rlcf	((___ftdiv@f1+1))&0ffh
 10787  00444E  0101               	movlb	1	; () banked
 10788  004450  3762               	rlcf	((___ftdiv@f1+2))&0ffh
 10789                           	line	40
 10790  004452  0101               	movlb	1	; () banked
 10791  004454  0101               	movlb	1	; () banked
 10792  004456  2F69               	decfsz	((___ftdiv@sign2))&0ffh
 10793                           	
 10794  004458  D7C1               	goto	l627
 10795                           	
 10796  00445A                     l626:		; BSR set to: ?
 10797                           
 10798                           	line	41
 10799  00445A  C168  F189         	movff	(___ftdiv@exp1),0+(?___ftpack+02h)
 10800  00445E  0101               	movlb	1	; () banked
 10801  004460  0E6A               	movlw	low(___ftdiv@f3)
 10802  004462  0101               	movlb	1	; () banked
 10803  004464  0101               	movlb	1	; () banked
 10804  004466  6F87               	movwf	((?___ftpack))&0ffh
 10805  004468  0101               	movlb	1	; () banked
 10806  00446A  0E01               	movlw	high(___ftdiv@f3)
 10807  00446C  0101               	movlb	1	; () banked
 10808  00446E  6F88               	movwf	((?___ftpack+1))&0ffh
 10809  004470  EC76  F024         	call	___ftpack	;wreg free
 10810                           	line	42
 10811  004474  0101               	movlb	1	; () banked
 10812  004476  0101               	movlb	1	; () banked
 10813  004478  5167               	movf	((___ftdiv@sign1))&0ffh,w
 10814  00447A  B4D8               	btfsc	status,2
 10815  00447C  D001               	goto	u7021
 10816  00447E  D001               	goto	u7020
 10817  004480                     u7021:
 10818  004480  D003               	goto	l629
 10819  004482                     u7020:
 10820                           	line	43
 10821  004482  0101               	movlb	1	; () banked
 10822  004484  0101               	movlb	1	; () banked
 10823  004486  8F6C               	bsf	(0+(23/8)+(___ftdiv@f3))&0ffh,(23)&7
 10824                           	
 10825  004488                     l629:		; BSR set to: ?
 10826                           
 10827                           	line	44
 10828  004488  C16A  F160         	movff	(___ftdiv@f3),(?___ftdiv)
 10829  00448C  C16B  F161         	movff	(___ftdiv@f3+1),(?___ftdiv+1)
 10830  004490  C16C  F162         	movff	(___ftdiv@f3+2),(?___ftdiv+2)
 10831  004494  D000               	goto	l622
 10832                           	line	45
 10833  004496                     l622:
 10834                           			; BSR set to: ?
 10835                           
 10836  004496  0012               	return
 10837                           	opt stack 0
 10838                           GLOBAL __end_of___ftdiv
 10839  004498                     	__end_of___ftdiv:
 10840                           	FNSIZE	___ftdiv,8,6
 10841                           ; =============== function ___ftdiv ends =======
                                 =====
 10842                           
 10843                           	signat	___ftdiv,8315
 10844                           	global	___ftsub
 10845                           	global	??___ftsub
 10846                           	global	?___ftsub
 10847                                   psect   text29,class=CODE,space=0,reloc=
                                 2
 10848                           
 10849                           	opt lm
 10850                           	file	"C:\Program Files (x86)\HI-TECH Software\P
                                 ICC-18\PRO\9.63\sources\ftsub.c"
 10851                           	line	17
 10852  000000                     	__size_of___ftsub	equ	__end_of___ftsub-___ftsub
 10853                           	
 10854  0054D2                     ___ftsub:		; BSR set to: ?
 10855                           
 10856                           	opt stack 27
 10857                           	line	18
 10858  0054D2  0E00               	movlw	low(0800000h)
 10859  0054D4  0101               	movlb	1	; () banked
 10860  0054D6  0101               	movlb	1	; () banked
 10861  0054D8  1B63               	xorwf	((___ftsub@f2))&0ffh
 10862  0054DA  0E00               	movlw	high(0800000h)
 10863  0054DC  0101               	movlb	1	; () banked
 10864  0054DE  0101               	movlb	1	; () banked
 10865  0054E0  1B64               	xorwf	((___ftsub@f2+1))&0ffh
 10866  0054E2  0E80               	movlw	low highword(0800000h)
 10867  0054E4  0101               	movlb	1	; () banked
 10868  0054E6  0101               	movlb	1	; () banked
 10869  0054E8  1B65               	xorwf	((___ftsub@f2+2))&0ffh
 10870                           
 10871                           	line	19
 10872  0054EA  C163  F169         	movff	(___ftsub@f2),0+(?___ftadd+03h)
 10873  0054EE  C164  F16A         	movff	(___ftsub@f2+1),1+(?___ftadd+03h)
 10874  0054F2  C165  F16B         	movff	(___ftsub@f2+2),2+(?___ftadd+03h)
 10875  0054F6  C160  F166         	movff	(___ftsub@f1),(?___ftadd)
 10876  0054FA  C161  F167         	movff	(___ftsub@f1+1),(?___ftadd+1)
 10877  0054FE  C162  F168         	movff	(___ftsub@f1+2),(?___ftadd+2)
 10878  005502  EC63  F01A         	call	___ftadd	;wreg free
 10879  005506  C166  F160         	movff	0+?___ftadd,(?___ftsub)
 10880  00550A  C167  F161         	movff	1+?___ftadd,(?___ftsub+1)
 10881  00550E  C168  F162         	movff	2+?___ftadd,(?___ftsub+2)
 10882  005512  D000               	goto	l660
 10883                           	line	20
 10884  005514                     l660:
 10885                           			; BSR set to: ?
 10886                           
 10887  005514  0012               	return
 10888                           	opt stack 0
 10889                           GLOBAL __end_of___ftsub
 10890  005516                     	__end_of___ftsub:
 10891                           	FNSIZE	___ftsub,0,6
 10892                           ; =============== function ___ftsub ends =======
                                 =====
 10893                           
 10894                           	signat	___ftsub,8315
 10895                           	global	___awmod
 10896                           	global	??___awmod
 10897                           	global	?___awmod
 10898                                   psect   text30,class=CODE,space=0,reloc=
                                 2
 10899                           
 10900                           	opt lm
 10901                           	file	"C:\Program Files (x86)\HI-TECH Software\P
                                 ICC-18\PRO\9.63\sources\awmod.c"
 10902                           	line	5
 10903  000000                     	__size_of___awmod	equ	__end_of___awmod-___awmod
 10904                           	
 10905  004C70                     ___awmod:		; BSR set to: ?
 10906                           
 10907                           	opt stack 27
 10908                           	line	8
 10909  004C70  0101               	movlb	1	; () banked
 10910  004C72  6F80               	movwf	(??___awmod+2+0)&0ffh
 10911  004C74  0E00               	movlw	low(0)
 10912  004C76  0101               	movlb	1	; () banked
 10913  004C78  0101               	movlb	1	; () banked
 10914  004C7A  6F7E               	movwf	((___awmod@sign))&0ffh
 10915  004C7C  0101               	movlb	1	; () banked
 10916  004C7E  5180               	movf	(??___awmod+2+0)&0ffh,w
 10917                           	line	9
 10918  004C80  0101               	movlb	1	; () banked
 10919  004C82  0101               	movlb	1	; () banked
 10920  004C84  AF7B               	btfss	((___awmod@dividend+1))&0ffh,7
 10921  004C86  D001               	goto	u7031
 10922  004C88  D001               	goto	u7030
 10923  004C8A                     u7031:
 10924  004C8A  D00F               	goto	l455
 10925  004C8C                     u7030:
 10926                           	line	10
 10927  004C8C  0101               	movlb	1	; () banked
 10928  004C8E  0101               	movlb	1	; () banked
 10929  004C90  6D7A               	negf	((___awmod@dividend))&0ffh
 10930  004C92  0101               	movlb	1	; () banked
 10931  004C94  1F7B               	comf	((___awmod@dividend+1))&0ffh
 10932  004C96  B0D8               	btfsc	status,0
 10933  004C98  2B7B               	incf	((___awmod@dividend+1))&0ffh
 10934                           	line	11
 10935  004C9A  0101               	movlb	1	; () banked
 10936  004C9C  6F80               	movwf	(??___awmod+2+0)&0ffh
 10937  004C9E  0E01               	movlw	low(01h)
 10938  004CA0  0101               	movlb	1	; () banked
 10939  004CA2  0101               	movlb	1	; () banked
 10940  004CA4  6F7E               	movwf	((___awmod@sign))&0ffh
 10941  004CA6  0101               	movlb	1	; () banked
 10942  004CA8  5180               	movf	(??___awmod+2+0)&0ffh,w
 10943                           	line	12
 10944                           	
 10945  004CAA                     l455:		; BSR set to: ?
 10946                           
 10947                           	line	13
 10948  004CAA  0101               	movlb	1	; () banked
 10949  004CAC  0101               	movlb	1	; () banked
 10950  004CAE  AF7D               	btfss	((___awmod@divisor+1))&0ffh,7
 10951  004CB0  D001               	goto	u7041
 10952  004CB2  D001               	goto	u7040
 10953  004CB4                     u7041:
 10954  004CB4  D007               	goto	l456
 10955  004CB6                     u7040:
 10956                           	line	14
 10957  004CB6  0101               	movlb	1	; () banked
 10958  004CB8  0101               	movlb	1	; () banked
 10959  004CBA  6D7C               	negf	((___awmod@divisor))&0ffh
 10960  004CBC  0101               	movlb	1	; () banked
 10961  004CBE  1F7D               	comf	((___awmod@divisor+1))&0ffh
 10962  004CC0  B0D8               	btfsc	status,0
 10963  004CC2  2B7D               	incf	((___awmod@divisor+1))&0ffh
 10964                           	
 10965  004CC4                     l456:		; BSR set to: ?
 10966                           
 10967                           	line	15
 10968  004CC4  0101               	movlb	1	; () banked
 10969  004CC6  0101               	movlb	1	; () banked
 10970  004CC8  517D               	movf	((___awmod@divisor+1))&0ffh,w
 10971  004CCA  117C               	iorwf ((___awmod@divisor))&0ffh,w
 10972                           
 10973  004CCC  B4D8               	btfsc	status,2
 10974  004CCE  D001               	goto	u7051
 10975  004CD0  D001               	goto	u7050
 10976  004CD2                     u7051:
 10977  004CD2  D03E               	goto	l457
 10978  004CD4                     u7050:
 10979                           	line	16
 10980  004CD4  0101               	movlb	1	; () banked
 10981  004CD6  6F80               	movwf	(??___awmod+2+0)&0ffh
 10982  004CD8  0E01               	movlw	low(01h)
 10983  004CDA  0101               	movlb	1	; () banked
 10984  004CDC  0101               	movlb	1	; () banked
 10985  004CDE  6F7F               	movwf	((___awmod@counter))&0ffh
 10986  004CE0  0101               	movlb	1	; () banked
 10987  004CE2  5180               	movf	(??___awmod+2+0)&0ffh,w
 10988                           	line	17
 10989  004CE4  D009               	goto	l458
 10990                           	
 10991  004CE6                     l459:		; BSR set to: ?
 10992                           
 10993                           	line	18
 10994  004CE6  0101               	movlb	1	; () banked
 10995  004CE8  90D8               	bcf	status,0
 10996  004CEA  0101               	movlb	1	; () banked
 10997  004CEC  377C               	rlcf	((___awmod@divisor))&0ffh
 10998  004CEE  0101               	movlb	1	; () banked
 10999  004CF0  377D               	rlcf	((___awmod@divisor+1))&0ffh
 11000                           	line	19
 11001  004CF2  0101               	movlb	1	; () banked
 11002  004CF4  0101               	movlb	1	; () banked
 11003  004CF6  2B7F               	incf	((___awmod@counter))&0ffh
 11004                           	line	20
 11005                           	
 11006  004CF8                     l458:		; BSR set to: ?
 11007                           
 11008                           	line	17
 11009  004CF8  0101               	movlb	1	; () banked
 11010                           	
 11011  004CFA  0101               	movlb	1	; () banked
 11012  004CFC  AF7D               	btfss	((___awmod@divisor+1))&0ffh,(15)&7
 11013  004CFE  D001               	goto	u7061
 11014  004D00  D001               	goto	u7060
 11015  004D02                     u7061:
 11016  004D02  D7F1               	goto	l459
 11017  004D04                     u7060:
 11018                           	
 11019  004D04                     l460:		; BSR set to: ?
 11020                           
 11021                           	line	21
 11022                           	
 11023  004D04                     l463:		; BSR set to: ?
 11024                           
 11025                           	line	22
 11026  004D04  0101               	movlb	1	; () banked
 11027  004D06  0101               	movlb	1	; () banked
 11028  004D08  517C               	movf	((___awmod@divisor))&0ffh,w
 11029  004D0A  0101               	movlb	1	; () banked
 11030  004D0C  0101               	movlb	1	; () banked
 11031  004D0E  5D7A               	subwf	((___awmod@dividend))&0ffh,w
 11032  004D10  0101               	movlb	1	; () banked
 11033  004D12  0101               	movlb	1	; () banked
 11034  004D14  517D               	movf	((___awmod@divisor+1))&0ffh,w
 11035  004D16  0101               	movlb	1	; () banked
 11036  004D18  0101               	movlb	1	; () banked
 11037  004D1A  597B               	subwfb	((___awmod@dividend+1))&0ffh,w
 11038  004D1C  A0D8               	btfss	status,0
 11039  004D1E  D001               	goto	u7071
 11040  004D20  D001               	goto	u7070
 11041  004D22                     u7071:
 11042  004D22  D00C               	goto	l464
 11043  004D24                     u7070:
 11044                           	line	23
 11045  004D24  0101               	movlb	1	; () banked
 11046  004D26  0101               	movlb	1	; () banked
 11047  004D28  517C               	movf	((___awmod@divisor))&0ffh,w
 11048  004D2A  0101               	movlb	1	; () banked
 11049  004D2C  0101               	movlb	1	; () banked
 11050  004D2E  5F7A               	subwf	((___awmod@dividend))&0ffh
 11051  004D30  0101               	movlb	1	; () banked
 11052  004D32  0101               	movlb	1	; () banked
 11053  004D34  517D               	movf	((___awmod@divisor+1))&0ffh,w
 11054  004D36  0101               	movlb	1	; () banked
 11055  004D38  0101               	movlb	1	; () banked
 11056  004D3A  5B7B               	subwfb	((___awmod@dividend+1))&0ffh
 11057                           
 11058                           	
 11059  004D3C                     l464:		; BSR set to: ?
 11060                           
 11061                           	line	24
 11062  004D3C  0101               	movlb	1	; () banked
 11063  004D3E  90D8               	bcf	status,0
 11064  004D40  0101               	movlb	1	; () banked
 11065  004D42  337D               	rrcf	((___awmod@divisor+1))&0ffh
 11066  004D44  0101               	movlb	1	; () banked
 11067  004D46  337C               	rrcf	((___awmod@divisor))&0ffh
 11068                           	line	25
 11069  004D48  0101               	movlb	1	; () banked
 11070  004D4A  0101               	movlb	1	; () banked
 11071  004D4C  2F7F               	decfsz	((___awmod@counter))&0ffh
 11072                           	
 11073  004D4E  D7DA               	goto	l463
 11074                           	
 11075  004D50                     l462:		; BSR set to: ?
 11076                           
 11077                           	line	26
 11078                           	
 11079  004D50                     l457:		; BSR set to: ?
 11080                           
 11081                           	line	27
 11082  004D50  0101               	movlb	1	; () banked
 11083  004D52  0101               	movlb	1	; () banked
 11084  004D54  517E               	movf	((___awmod@sign))&0ffh,w
 11085  004D56  B4D8               	btfsc	status,2
 11086  004D58  D001               	goto	u7081
 11087  004D5A  D001               	goto	u7080
 11088  004D5C                     u7081:
 11089  004D5C  D007               	goto	l465
 11090  004D5E                     u7080:
 11091                           	line	28
 11092  004D5E  0101               	movlb	1	; () banked
 11093  004D60  0101               	movlb	1	; () banked
 11094  004D62  6D7A               	negf	((___awmod@dividend))&0ffh
 11095  004D64  0101               	movlb	1	; () banked
 11096  004D66  1F7B               	comf	((___awmod@dividend+1))&0ffh
 11097  004D68  B0D8               	btfsc	status,0
 11098  004D6A  2B7B               	incf	((___awmod@dividend+1))&0ffh
 11099                           	
 11100  004D6C                     l465:		; BSR set to: ?
 11101                           
 11102                           	line	29
 11103  004D6C  C17A  F17A         	movff	(___awmod@dividend),(?___awmod)
 11104  004D70  C17B  F17B         	movff	(___awmod@dividend+1),(?___awmod+1)
 11105  004D74  D000               	goto	l454
 11106                           	line	30
 11107  004D76                     l454:
 11108                           			; BSR set to: ?
 11109                           
 11110  004D76  0012               	return
 11111                           	opt stack 0
 11112                           GLOBAL __end_of___awmod
 11113  004D78                     	__end_of___awmod:
 11114                           	FNSIZE	___awmod,3,4
 11115                           ; =============== function ___awmod ends =======
                                 =====
 11116                           
 11117                           	signat	___awmod,8314
 11118                           	global	_LCD_Pause
 11119                           	global	??_LCD_Pause
 11120                           	global	?_LCD_Pause
 11121                                   psect   text31,class=CODE,space=0,reloc=
                                 2
 11122                           
 11123                           	opt lm
 11124                           	file	"C:\Users\leeee\Desktop\Desktop\School\Col
                                 lege\4th Year\Semester 2\Embedded Systems\HW\HW1
                                 0\lcd_portd.c"
 11125                           	line	25
 11126  000000                     	__size_of_LCD_Pause	equ	__end_of_LCD_Pause-_LCD
                                 _Pause
 11127                           ;lcd_portd.c: 24: void LCD_Pause(void)
 11128                           ;lcd_portd.c: 25: {
 11129                           	
 11130  005590                     _LCD_Pause:		; BSR set to: ?
 11131                           
 11132                           	opt stack 26
 11133                           	line	27
 11134  005590  0101               	movlb	1	; () banked
 11135  005592  6F37               	movwf	(??_LCD_Pause+1+0)&0ffh
 11136  005594  0E00               	movlw	low(0)
 11137  005596  0101               	movlb	1	; () banked
 11138  005598  0101               	movlb	1	; () banked
 11139  00559A  6F36               	movwf	((LCD_Pause@x))&0ffh
 11140  00559C  0101               	movlb	1	; () banked
 11141  00559E  5137               	movf	(??_LCD_Pause+1+0)&0ffh,w
 11142  0055A0  0E13               	movlw	(014h-1)
 11143  0055A2  0101               	movlb	1	; () banked
 11144  0055A4  0101               	movlb	1	; () banked
 11145  0055A6  6536               	cpfsgt	((LCD_Pause@x))&0ffh
 11146  0055A8  D001               	goto	u7091
 11147  0055AA  D001               	goto	u7090
 11148  0055AC                     u7091:
 11149  0055AC  D001               	goto	l123
 11150  0055AE                     u7090:
 11151  0055AE  D00A               	goto	l124
 11152                           	
 11153  0055B0                     l123:		; BSR set to: ?
 11154                           
 11155  0055B0  0101               	movlb	1	; () banked
 11156  0055B2  0101               	movlb	1	; () banked
 11157  0055B4  2B36               	incf	((LCD_Pause@x))&0ffh
 11158  0055B6  0E13               	movlw	(014h-1)
 11159  0055B8  0101               	movlb	1	; () banked
 11160  0055BA  0101               	movlb	1	; () banked
 11161  0055BC  6536               	cpfsgt	((LCD_Pause@x))&0ffh
 11162  0055BE  D001               	goto	u7101
 11163  0055C0  D001               	goto	u7100
 11164  0055C2                     u7101:
 11165  0055C2  D7F6               	goto	l123
 11166  0055C4                     u7100:
 11167                           	
 11168  0055C4                     l124:		; BSR set to: ?
 11169                           
 11170                           	line	28
 11171                           ;lcd_portd.c: 28: }
 11172  0055C4                     l122:
 11173                           			; BSR set to: ?
 11174                           
 11175  0055C4  0012               	return
 11176                           	opt stack 0
 11177                           GLOBAL __end_of_LCD_Pause
 11178  0055C6                     	__end_of_LCD_Pause:
 11179                           	FNSIZE	_LCD_Pause,2,0
 11180                           ; =============== function _LCD_Pause ends =====
                                 =======
 11181                           
 11182                           	signat	_LCD_Pause,88
 11183                           	global	___ftadd
 11184                           	global	??___ftadd
 11185                           	global	?___ftadd
 11186                                   psect   text32,class=CODE,space=0,reloc=
                                 2
 11187                           
 11188                           	opt lm
 11189                           	file	"C:\Program Files (x86)\HI-TECH Software\P
                                 ICC-18\PRO\9.63\sources\ftadd.c"
 11190                           	line	17
 11191  000000                     	__size_of___ftadd	equ	__end_of___ftadd-___ftadd
 11192                           	
 11193  0034C6                     ___ftadd:		; BSR set to: ?
 11194                           
 11195                           	opt stack 26
 11196                           	line	20
 11197  0034C6  D000               	goto	l595
 11198                           	line	21
 11199                           	
 11200  0034C8                     l595:		; BSR set to: ?
 11201                           
 11202                           	line	22
 11203  0034C8  0101               	movlb	1	; () banked
 11204  0034CA  0E70               	movlw	low(___ftadd@exp1)
 11205  0034CC  0101               	movlb	1	; () banked
 11206  0034CE  0101               	movlb	1	; () banked
 11207  0034D0  6F89               	movwf	(0+(?___ftunpack+02h))&0ffh
 11208  0034D2  0101               	movlb	1	; () banked
 11209  0034D4  0E01               	movlw	high(___ftadd@exp1)
 11210  0034D6  0101               	movlb	1	; () banked
 11211  0034D8  6F8A               	movwf	(1+(?___ftunpack+02h))&0ffh
 11212  0034DA  0101               	movlb	1	; () banked
 11213  0034DC  0E66               	movlw	low(___ftadd@f1)
 11214  0034DE  0101               	movlb	1	; () banked
 11215  0034E0  0101               	movlb	1	; () banked
 11216  0034E2  6F87               	movwf	((?___ftunpack))&0ffh
 11217  0034E4  0101               	movlb	1	; () banked
 11218  0034E6  0E01               	movlw	high(___ftadd@f1)
 11219  0034E8  0101               	movlb	1	; () banked
 11220  0034EA  6F88               	movwf	((?___ftunpack+1))&0ffh
 11221  0034EC  EC68  F028         	call	___ftunpack	;wreg free
 11222  0034F0  0101               	movlb	1	; () banked
 11223  0034F2  0101               	movlb	1	; () banked
 11224  0034F4  6F6E               	movwf	((___ftadd@sign1))&0ffh
 11225                           	line	23
 11226  0034F6  0101               	movlb	1	; () banked
 11227  0034F8  0101               	movlb	1	; () banked
 11228  0034FA  6770               	tstfsz	((___ftadd@exp1))&0ffh
 11229  0034FC  D001               	goto	u7111
 11230  0034FE  D001               	goto	u7110
 11231  003500                     u7111:
 11232  003500  D007               	goto	l596
 11233  003502                     u7110:
 11234                           	line	24
 11235  003502  C169  F166         	movff	(___ftadd@f2),(?___ftadd)
 11236  003506  C16A  F167         	movff	(___ftadd@f2+1),(?___ftadd+1)
 11237  00350A  C16B  F168         	movff	(___ftadd@f2+2),(?___ftadd+2)
 11238  00350E  D177               	goto	l594
 11239                           	
 11240  003510                     l596:		; BSR set to: ?
 11241                           
 11242                           	line	25
 11243  003510  0101               	movlb	1	; () banked
 11244  003512  0E6F               	movlw	low(___ftadd@exp2)
 11245  003514  0101               	movlb	1	; () banked
 11246  003516  0101               	movlb	1	; () banked
 11247  003518  6F89               	movwf	(0+(?___ftunpack+02h))&0ffh
 11248  00351A  0101               	movlb	1	; () banked
 11249  00351C  0E01               	movlw	high(___ftadd@exp2)
 11250  00351E  0101               	movlb	1	; () banked
 11251  003520  6F8A               	movwf	(1+(?___ftunpack+02h))&0ffh
 11252  003522  0101               	movlb	1	; () banked
 11253  003524  0E69               	movlw	low(___ftadd@f2)
 11254  003526  0101               	movlb	1	; () banked
 11255  003528  0101               	movlb	1	; () banked
 11256  00352A  6F87               	movwf	((?___ftunpack))&0ffh
 11257  00352C  0101               	movlb	1	; () banked
 11258  00352E  0E01               	movlw	high(___ftadd@f2)
 11259  003530  0101               	movlb	1	; () banked
 11260  003532  6F88               	movwf	((?___ftunpack+1))&0ffh
 11261  003534  EC68  F028         	call	___ftunpack	;wreg free
 11262  003538  0101               	movlb	1	; () banked
 11263  00353A  0101               	movlb	1	; () banked
 11264  00353C  6F6C               	movwf	((___ftadd@sign2))&0ffh
 11265                           	line	26
 11266  00353E  0101               	movlb	1	; () banked
 11267  003540  0101               	movlb	1	; () banked
 11268  003542  516F               	movf	((___ftadd@exp2))&0ffh,w
 11269  003544  B4D8               	btfsc	status,2
 11270  003546  D001               	goto	u7121
 11271  003548  D001               	goto	u7120
 11272  00354A                     u7121:
 11273  00354A  D132               	goto	l597
 11274  00354C                     u7120:
 11275                           	line	27
 11276  00354C  0101               	movlb	1	; () banked
 11277  00354E  6F71               	movwf	(??___ftadd+5+0)&0ffh
 11278  003550  0E06               	movlw	low(06h)
 11279  003552  0101               	movlb	1	; () banked
 11280  003554  0101               	movlb	1	; () banked
 11281  003556  6F6D               	movwf	((___ftadd@cntr))&0ffh
 11282  003558  0101               	movlb	1	; () banked
 11283  00355A  5171               	movf	(??___ftadd+5+0)&0ffh,w
 11284                           	line	29
 11285  00355C  0101               	movlb	1	; () banked
 11286  00355E  0101               	movlb	1	; () banked
 11287  003560  516F               	movf	((___ftadd@exp2))&0ffh,w
 11288  003562  0101               	movlb	1	; () banked
 11289  003564  0101               	movlb	1	; () banked
 11290  003566  6170               	cpfslt	((___ftadd@exp1))&0ffh
 11291  003568  D001               	goto	u7131
 11292  00356A  D001               	goto	u7130
 11293  00356C                     u7131:
 11294  00356C  D04F               	goto	l598
 11295  00356E                     u7130:
 11296                           	line	30
 11297  00356E  0101               	movlb	1	; () banked
 11298  003570  0101               	movlb	1	; () banked
 11299  003572  5170               	movf	((___ftadd@exp1))&0ffh,w
 11300  003574  0101               	movlb	1	; () banked
 11301  003576  0101               	movlb	1	; () banked
 11302  003578  5D6F               	subwf	((___ftadd@exp2))&0ffh,w
 11303  00357A  0101               	movlb	1	; () banked
 11304  00357C  6F71               	movwf	(??___ftadd+5+0)&0ffh
 11305  00357E  0E19               	movlw	(019h)&0ffh
 11306  003580  0101               	movlb	1	; () banked
 11307  003582  5D71               	subwf	((??___ftadd+5+0))&0ffh,w
 11308  003584  A0D8               	btfss	status,0
 11309  003586  D001               	goto	u7141
 11310  003588  D001               	goto	u7140
 11311  00358A                     u7141:
 11312  00358A  D011               	goto	l603
 11313  00358C                     u7140:
 11314                           	line	32
 11315  00358C  0E00               	movlw	low(0)
 11316  00358E  0101               	movlb	1	; () banked
 11317  003590  0101               	movlb	1	; () banked
 11318  003592  6F66               	movwf	((___ftadd@f1))&0ffh
 11319  003594  0E00               	movlw	high(0)
 11320  003596  0101               	movlb	1	; () banked
 11321  003598  0101               	movlb	1	; () banked
 11322  00359A  6F67               	movwf	((___ftadd@f1+1))&0ffh
 11323  00359C  0E00               	movlw	low highword(0)
 11324  00359E  0101               	movlb	1	; () banked
 11325  0035A0  0101               	movlb	1	; () banked
 11326  0035A2  6F68               	movwf	((___ftadd@f1+2))&0ffh
 11327                           
 11328                           	line	33
 11329  0035A4  C16F  F170         	movff	(___ftadd@exp2),(___ftadd@exp1)
 11330                           	line	34
 11331  0035A8  C16C  F16E         	movff	(___ftadd@sign2),(___ftadd@sign1)
 11332                           	line	35
 11333  0035AC  D02E               	goto	l600
 11334                           	line	38
 11335                           	
 11336  0035AE                     l603:		; BSR set to: ?
 11337                           
 11338                           	line	39
 11339  0035AE  0101               	movlb	1	; () banked
 11340  0035B0  90D8               	bcf	status,0
 11341  0035B2  0101               	movlb	1	; () banked
 11342  0035B4  3769               	rlcf	((___ftadd@f2))&0ffh
 11343  0035B6  0101               	movlb	1	; () banked
 11344  0035B8  376A               	rlcf	((___ftadd@f2+1))&0ffh
 11345  0035BA  0101               	movlb	1	; () banked
 11346  0035BC  376B               	rlcf	((___ftadd@f2+2))&0ffh
 11347                           	line	40
 11348  0035BE  0101               	movlb	1	; () banked
 11349  0035C0  0101               	movlb	1	; () banked
 11350  0035C2  076F               	decf	((___ftadd@exp2))&0ffh
 11351                           	line	41
 11352  0035C4  0101               	movlb	1	; () banked
 11353  0035C6  0101               	movlb	1	; () banked
 11354  0035C8  516F               	movf	((___ftadd@exp2))&0ffh,w
 11355  0035CA  0101               	movlb	1	; () banked
 11356  0035CC  0101               	movlb	1	; () banked
 11357  0035CE  1970               	xorwf	((___ftadd@exp1))&0ffh,w
 11358  0035D0  B4D8               	btfsc	status,2
 11359  0035D2  D001               	goto	u7151
 11360  0035D4  D001               	goto	u7150
 11361  0035D6                     u7151:
 11362  0035D6  D004               	goto	l602
 11363  0035D8                     u7150:
 11364  0035D8  0101               	movlb	1	; () banked
 11365  0035DA  0101               	movlb	1	; () banked
 11366  0035DC  2F6D               	decfsz	((___ftadd@cntr))&0ffh
 11367                           	
 11368  0035DE  D7E7               	goto	l603
 11369                           	
 11370  0035E0                     l600000735:		; BSR set to: ?
 11371                           
 11372                           	
 11373  0035E0                     l602:		; BSR set to: ?
 11374                           
 11375                           	line	42
 11376  0035E0  D00B               	goto	l604
 11377                           	
 11378  0035E2                     l605:		; BSR set to: ?
 11379                           
 11380                           	line	43
 11381  0035E2  0101               	movlb	1	; () banked
 11382  0035E4  90D8               	bcf	status,0
 11383  0035E6  0101               	movlb	1	; () banked
 11384  0035E8  3368               	rrcf	((___ftadd@f1+2))&0ffh
 11385  0035EA  0101               	movlb	1	; () banked
 11386  0035EC  3367               	rrcf	((___ftadd@f1+1))&0ffh
 11387  0035EE  0101               	movlb	1	; () banked
 11388  0035F0  3366               	rrcf	((___ftadd@f1))&0ffh
 11389                           	line	44
 11390  0035F2  0101               	movlb	1	; () banked
 11391  0035F4  0101               	movlb	1	; () banked
 11392  0035F6  2B70               	incf	((___ftadd@exp1))&0ffh
 11393                           	line	45
 11394                           	
 11395  0035F8                     l604:		; BSR set to: ?
 11396                           
 11397                           	line	42
 11398  0035F8  0101               	movlb	1	; () banked
 11399  0035FA  0101               	movlb	1	; () banked
 11400  0035FC  516F               	movf	((___ftadd@exp2))&0ffh,w
 11401  0035FE  0101               	movlb	1	; () banked
 11402  003600  0101               	movlb	1	; () banked
 11403  003602  6370               	cpfseq	((___ftadd@exp1))&0ffh
 11404  003604  D001               	goto	u7161
 11405  003606  D001               	goto	u7160
 11406  003608                     u7161:
 11407  003608  D7EC               	goto	l605
 11408  00360A                     u7160:
 11409                           	
 11410  00360A                     l606:		; BSR set to: ?
 11411                           
 11412                           	line	46
 11413                           	
 11414  00360A                     l600:		; BSR set to: ?
 11415                           
 11416                           	line	47
 11417  00360A  D054               	goto	l607
 11418                           	
 11419  00360C                     l598:		; BSR set to: ?
 11420                           
 11421  00360C  0101               	movlb	1	; () banked
 11422  00360E  0101               	movlb	1	; () banked
 11423  003610  5170               	movf	((___ftadd@exp1))&0ffh,w
 11424  003612  0101               	movlb	1	; () banked
 11425  003614  0101               	movlb	1	; () banked
 11426  003616  196F               	xorwf	((___ftadd@exp2))&0ffh,w
 11427  003618  B4D8               	btfsc	status,2
 11428  00361A  D001               	goto	u7171
 11429  00361C  D001               	goto	u7170
 11430  00361E                     u7171:
 11431  00361E  D04A               	goto	l607
 11432  003620                     u7170:
 11433                           	line	48
 11434  003620  0101               	movlb	1	; () banked
 11435  003622  0101               	movlb	1	; () banked
 11436  003624  516F               	movf	((___ftadd@exp2))&0ffh,w
 11437  003626  0101               	movlb	1	; () banked
 11438  003628  0101               	movlb	1	; () banked
 11439  00362A  5D70               	subwf	((___ftadd@exp1))&0ffh,w
 11440  00362C  0101               	movlb	1	; () banked
 11441  00362E  6F71               	movwf	(??___ftadd+5+0)&0ffh
 11442  003630  0E19               	movlw	(019h)&0ffh
 11443  003632  0101               	movlb	1	; () banked
 11444  003634  5D71               	subwf	((??___ftadd+5+0))&0ffh,w
 11445  003636  A0D8               	btfss	status,0
 11446  003638  D001               	goto	u7181
 11447  00363A  D001               	goto	u7180
 11448  00363C                     u7181:
 11449  00363C  D00D               	goto	l613
 11450  00363E                     u7180:
 11451                           	line	49
 11452  00363E  0E00               	movlw	low(0)
 11453  003640  0101               	movlb	1	; () banked
 11454  003642  0101               	movlb	1	; () banked
 11455  003644  6F69               	movwf	((___ftadd@f2))&0ffh
 11456  003646  0E00               	movlw	high(0)
 11457  003648  0101               	movlb	1	; () banked
 11458  00364A  0101               	movlb	1	; () banked
 11459  00364C  6F6A               	movwf	((___ftadd@f2+1))&0ffh
 11460  00364E  0E00               	movlw	low highword(0)
 11461  003650  0101               	movlb	1	; () banked
 11462  003652  0101               	movlb	1	; () banked
 11463  003654  6F6B               	movwf	((___ftadd@f2+2))&0ffh
 11464                           
 11465  003656  D02E               	goto	l607
 11466                           	line	53
 11467                           	
 11468  003658                     l613:		; BSR set to: ?
 11469                           
 11470                           	line	54
 11471  003658  0101               	movlb	1	; () banked
 11472  00365A  90D8               	bcf	status,0
 11473  00365C  0101               	movlb	1	; () banked
 11474  00365E  3766               	rlcf	((___ftadd@f1))&0ffh
 11475  003660  0101               	movlb	1	; () banked
 11476  003662  3767               	rlcf	((___ftadd@f1+1))&0ffh
 11477  003664  0101               	movlb	1	; () banked
 11478  003666  3768               	rlcf	((___ftadd@f1+2))&0ffh
 11479                           	line	55
 11480  003668  0101               	movlb	1	; () banked
 11481  00366A  0101               	movlb	1	; () banked
 11482  00366C  0770               	decf	((___ftadd@exp1))&0ffh
 11483                           	line	56
 11484  00366E  0101               	movlb	1	; () banked
 11485  003670  0101               	movlb	1	; () banked
 11486  003672  516F               	movf	((___ftadd@exp2))&0ffh,w
 11487  003674  0101               	movlb	1	; () banked
 11488  003676  0101               	movlb	1	; () banked
 11489  003678  1970               	xorwf	((___ftadd@exp1))&0ffh,w
 11490  00367A  B4D8               	btfsc	status,2
 11491  00367C  D001               	goto	u7191
 11492  00367E  D001               	goto	u7190
 11493  003680                     u7191:
 11494  003680  D004               	goto	l612
 11495  003682                     u7190:
 11496  003682  0101               	movlb	1	; () banked
 11497  003684  0101               	movlb	1	; () banked
 11498  003686  2F6D               	decfsz	((___ftadd@cntr))&0ffh
 11499                           	
 11500  003688  D7E7               	goto	l613
 11501                           	
 11502  00368A                     l600000736:		; BSR set to: ?
 11503                           
 11504                           	
 11505  00368A                     l612:		; BSR set to: ?
 11506                           
 11507                           	line	57
 11508  00368A  D00B               	goto	l614
 11509                           	
 11510  00368C                     l615:		; BSR set to: ?
 11511                           
 11512                           	line	58
 11513  00368C  0101               	movlb	1	; () banked
 11514  00368E  90D8               	bcf	status,0
 11515  003690  0101               	movlb	1	; () banked
 11516  003692  336B               	rrcf	((___ftadd@f2+2))&0ffh
 11517  003694  0101               	movlb	1	; () banked
 11518  003696  336A               	rrcf	((___ftadd@f2+1))&0ffh
 11519  003698  0101               	movlb	1	; () banked
 11520  00369A  3369               	rrcf	((___ftadd@f2))&0ffh
 11521                           	line	59
 11522  00369C  0101               	movlb	1	; () banked
 11523  00369E  0101               	movlb	1	; () banked
 11524  0036A0  2B6F               	incf	((___ftadd@exp2))&0ffh
 11525                           	line	60
 11526                           	
 11527  0036A2                     l614:		; BSR set to: ?
 11528                           
 11529                           	line	57
 11530  0036A2  0101               	movlb	1	; () banked
 11531  0036A4  0101               	movlb	1	; () banked
 11532  0036A6  516F               	movf	((___ftadd@exp2))&0ffh,w
 11533  0036A8  0101               	movlb	1	; () banked
 11534  0036AA  0101               	movlb	1	; () banked
 11535  0036AC  6370               	cpfseq	((___ftadd@exp1))&0ffh
 11536  0036AE  D001               	goto	u7201
 11537  0036B0  D001               	goto	u7200
 11538  0036B2                     u7201:
 11539  0036B2  D7EC               	goto	l615
 11540  0036B4                     u7200:
 11541                           	
 11542  0036B4                     l616:		; BSR set to: ?
 11543                           
 11544                           	line	61
 11545                           	
 11546  0036B4                     l610:		; BSR set to: ?
 11547                           
 11548                           	line	62
 11549                           	
 11550  0036B4                     l608:		; BSR set to: ?
 11551                           
 11552                           	line	63
 11553                           	
 11554  0036B4                     l607:		; BSR set to: ?
 11555                           
 11556  0036B4  0101               	movlb	1	; () banked
 11557  0036B6  0101               	movlb	1	; () banked
 11558  0036B8  516E               	movf	((___ftadd@sign1))&0ffh,w
 11559  0036BA  B4D8               	btfsc	status,2
 11560  0036BC  D001               	goto	u7211
 11561  0036BE  D001               	goto	u7210
 11562  0036C0                     u7211:
 11563  0036C0  D018               	goto	l617
 11564  0036C2                     u7210:
 11565                           	line	64
 11566  0036C2  0EFF               	movlw	low(0FFFFFFh)
 11567  0036C4  0101               	movlb	1	; () banked
 11568  0036C6  0101               	movlb	1	; () banked
 11569  0036C8  1B66               	xorwf	((___ftadd@f1))&0ffh
 11570  0036CA  0EFF               	movlw	high(0FFFFFFh)
 11571  0036CC  0101               	movlb	1	; () banked
 11572  0036CE  0101               	movlb	1	; () banked
 11573  0036D0  1B67               	xorwf	((___ftadd@f1+1))&0ffh
 11574  0036D2  0EFF               	movlw	low highword(0FFFFFFh)
 11575  0036D4  0101               	movlb	1	; () banked
 11576  0036D6  0101               	movlb	1	; () banked
 11577  0036D8  1B68               	xorwf	((___ftadd@f1+2))&0ffh
 11578                           
 11579                           	line	65
 11580  0036DA  0E01               	movlw	low(01h)
 11581  0036DC  0101               	movlb	1	; () banked
 11582  0036DE  0101               	movlb	1	; () banked
 11583  0036E0  2766               	addwf	((___ftadd@f1))&0ffh
 11584  0036E2  0E00               	movlw	high(01h)
 11585  0036E4  0101               	movlb	1	; () banked
 11586  0036E6  0101               	movlb	1	; () banked
 11587  0036E8  2367               	addwfc	((___ftadd@f1+1))&0ffh
 11588  0036EA  0E00               	movlw	low highword(01h)
 11589  0036EC  0101               	movlb	1	; () banked
 11590  0036EE  0101               	movlb	1	; () banked
 11591  0036F0  2368               	addwfc	((___ftadd@f1+2))&0ffh
 11592                           
 11593                           	line	66
 11594                           	
 11595  0036F2                     l617:		; BSR set to: ?
 11596                           
 11597                           	line	67
 11598  0036F2  0101               	movlb	1	; () banked
 11599  0036F4  0101               	movlb	1	; () banked
 11600  0036F6  516C               	movf	((___ftadd@sign2))&0ffh,w
 11601  0036F8  B4D8               	btfsc	status,2
 11602  0036FA  D001               	goto	u7221
 11603  0036FC  D001               	goto	u7220
 11604  0036FE                     u7221:
 11605  0036FE  D018               	goto	l618
 11606  003700                     u7220:
 11607                           	line	68
 11608  003700  0EFF               	movlw	low(0FFFFFFh)
 11609  003702  0101               	movlb	1	; () banked
 11610  003704  0101               	movlb	1	; () banked
 11611  003706  1B69               	xorwf	((___ftadd@f2))&0ffh
 11612  003708  0EFF               	movlw	high(0FFFFFFh)
 11613  00370A  0101               	movlb	1	; () banked
 11614  00370C  0101               	movlb	1	; () banked
 11615  00370E  1B6A               	xorwf	((___ftadd@f2+1))&0ffh
 11616  003710  0EFF               	movlw	low highword(0FFFFFFh)
 11617  003712  0101               	movlb	1	; () banked
 11618  003714  0101               	movlb	1	; () banked
 11619  003716  1B6B               	xorwf	((___ftadd@f2+2))&0ffh
 11620                           
 11621                           	line	69
 11622  003718  0E01               	movlw	low(01h)
 11623  00371A  0101               	movlb	1	; () banked
 11624  00371C  0101               	movlb	1	; () banked
 11625  00371E  2769               	addwf	((___ftadd@f2))&0ffh
 11626  003720  0E00               	movlw	high(01h)
 11627  003722  0101               	movlb	1	; () banked
 11628  003724  0101               	movlb	1	; () banked
 11629  003726  236A               	addwfc	((___ftadd@f2+1))&0ffh
 11630  003728  0E00               	movlw	low highword(01h)
 11631  00372A  0101               	movlb	1	; () banked
 11632  00372C  0101               	movlb	1	; () banked
 11633  00372E  236B               	addwfc	((___ftadd@f2+2))&0ffh
 11634                           
 11635                           	line	70
 11636                           	
 11637  003730                     l618:		; BSR set to: ?
 11638                           
 11639                           	line	71
 11640  003730  0101               	movlb	1	; () banked
 11641  003732  6F71               	movwf	(??___ftadd+5+0)&0ffh
 11642  003734  0E00               	movlw	low(0)
 11643  003736  0101               	movlb	1	; () banked
 11644  003738  0101               	movlb	1	; () banked
 11645  00373A  6F6E               	movwf	((___ftadd@sign1))&0ffh
 11646  00373C  0101               	movlb	1	; () banked
 11647  00373E  5171               	movf	(??___ftadd+5+0)&0ffh,w
 11648                           	line	72
 11649  003740  0101               	movlb	1	; () banked
 11650  003742  0101               	movlb	1	; () banked
 11651  003744  5169               	movf	((___ftadd@f2))&0ffh,w
 11652  003746  0101               	movlb	1	; () banked
 11653  003748  0101               	movlb	1	; () banked
 11654  00374A  2766               	addwf	((___ftadd@f1))&0ffh
 11655  00374C  0101               	movlb	1	; () banked
 11656  00374E  0101               	movlb	1	; () banked
 11657  003750  516A               	movf	((___ftadd@f2+1))&0ffh,w
 11658  003752  0101               	movlb	1	; () banked
 11659  003754  0101               	movlb	1	; () banked
 11660  003756  2367               	addwfc	((___ftadd@f1+1))&0ffh
 11661  003758  0101               	movlb	1	; () banked
 11662  00375A  0101               	movlb	1	; () banked
 11663  00375C  516B               	movf	((___ftadd@f2+2))&0ffh,w
 11664  00375E  0101               	movlb	1	; () banked
 11665  003760  0101               	movlb	1	; () banked
 11666  003762  2368               	addwfc	((___ftadd@f1+2))&0ffh
 11667                           
 11668                           	line	73
 11669  003764  0101               	movlb	1	; () banked
 11670                           	
 11671  003766  0101               	movlb	1	; () banked
 11672  003768  AF68               	btfss	((___ftadd@f1+2))&0ffh,(23)&7
 11673  00376A  D001               	goto	u7231
 11674  00376C  D001               	goto	u7230
 11675  00376E                     u7231:
 11676  00376E  D020               	goto	l597
 11677  003770                     u7230:
 11678                           	line	74
 11679  003770  0EFF               	movlw	low(0FFFFFFh)
 11680  003772  0101               	movlb	1	; () banked
 11681  003774  0101               	movlb	1	; () banked
 11682  003776  1B66               	xorwf	((___ftadd@f1))&0ffh
 11683  003778  0EFF               	movlw	high(0FFFFFFh)
 11684  00377A  0101               	movlb	1	; () banked
 11685  00377C  0101               	movlb	1	; () banked
 11686  00377E  1B67               	xorwf	((___ftadd@f1+1))&0ffh
 11687  003780  0EFF               	movlw	low highword(0FFFFFFh)
 11688  003782  0101               	movlb	1	; () banked
 11689  003784  0101               	movlb	1	; () banked
 11690  003786  1B68               	xorwf	((___ftadd@f1+2))&0ffh
 11691                           
 11692                           	line	75
 11693  003788  0E01               	movlw	low(01h)
 11694  00378A  0101               	movlb	1	; () banked
 11695  00378C  0101               	movlb	1	; () banked
 11696  00378E  2766               	addwf	((___ftadd@f1))&0ffh
 11697  003790  0E00               	movlw	high(01h)
 11698  003792  0101               	movlb	1	; () banked
 11699  003794  0101               	movlb	1	; () banked
 11700  003796  2367               	addwfc	((___ftadd@f1+1))&0ffh
 11701  003798  0E00               	movlw	low highword(01h)
 11702  00379A  0101               	movlb	1	; () banked
 11703  00379C  0101               	movlb	1	; () banked
 11704  00379E  2368               	addwfc	((___ftadd@f1+2))&0ffh
 11705                           
 11706                           	line	76
 11707  0037A0  0101               	movlb	1	; () banked
 11708  0037A2  6F71               	movwf	(??___ftadd+5+0)&0ffh
 11709  0037A4  0E01               	movlw	low(01h)
 11710  0037A6  0101               	movlb	1	; () banked
 11711  0037A8  0101               	movlb	1	; () banked
 11712  0037AA  6F6E               	movwf	((___ftadd@sign1))&0ffh
 11713  0037AC  0101               	movlb	1	; () banked
 11714  0037AE  5171               	movf	(??___ftadd+5+0)&0ffh,w
 11715                           	line	77
 11716                           	
 11717  0037B0                     l619:		; BSR set to: ?
 11718                           
 11719                           	line	78
 11720                           	
 11721  0037B0                     l597:		; BSR set to: ?
 11722                           
 11723                           	line	79
 11724  0037B0  C170  F189         	movff	(___ftadd@exp1),0+(?___ftpack+02h)
 11725  0037B4  0101               	movlb	1	; () banked
 11726  0037B6  0E66               	movlw	low(___ftadd@f1)
 11727  0037B8  0101               	movlb	1	; () banked
 11728  0037BA  0101               	movlb	1	; () banked
 11729  0037BC  6F87               	movwf	((?___ftpack))&0ffh
 11730  0037BE  0101               	movlb	1	; () banked
 11731  0037C0  0E01               	movlw	high(___ftadd@f1)
 11732  0037C2  0101               	movlb	1	; () banked
 11733  0037C4  6F88               	movwf	((?___ftpack+1))&0ffh
 11734  0037C6  EC76  F024         	call	___ftpack	;wreg free
 11735                           	line	80
 11736  0037CA  0101               	movlb	1	; () banked
 11737  0037CC  0101               	movlb	1	; () banked
 11738  0037CE  516E               	movf	((___ftadd@sign1))&0ffh,w
 11739  0037D0  B4D8               	btfsc	status,2
 11740  0037D2  D001               	goto	u7241
 11741  0037D4  D001               	goto	u7240
 11742  0037D6                     u7241:
 11743  0037D6  D00C               	goto	l620
 11744  0037D8                     u7240:
 11745                           	line	81
 11746  0037D8  0E00               	movlw	low(0800000h)
 11747  0037DA  0101               	movlb	1	; () banked
 11748  0037DC  0101               	movlb	1	; () banked
 11749  0037DE  1B66               	xorwf	((___ftadd@f1))&0ffh
 11750  0037E0  0E00               	movlw	high(0800000h)
 11751  0037E2  0101               	movlb	1	; () banked
 11752  0037E4  0101               	movlb	1	; () banked
 11753  0037E6  1B67               	xorwf	((___ftadd@f1+1))&0ffh
 11754  0037E8  0E80               	movlw	low highword(0800000h)
 11755  0037EA  0101               	movlb	1	; () banked
 11756  0037EC  0101               	movlb	1	; () banked
 11757  0037EE  1B68               	xorwf	((___ftadd@f1+2))&0ffh
 11758+                          
 11759+                          	
 11760+ 0037F0                     l620:		; BSR set to: ?
 11761+                          
 11762+                          	line	82
 11763+ 0037F0  C166  F166         	movff	(___ftadd@f1),(?___ftadd)
 11764+ 0037F4  C167  F167         	movff	(___ftadd@f1+1),(?___ftadd+1)
 11765+ 0037F8  C168  F168         	movff	(___ftadd@f1+2),(?___ftadd+2)
 11766+ 0037FC  D000               	goto	l594
 11767+                          	line	83
 11768+ 0037FE                     l594:
 11769+                          			; BSR set to: ?
 11770+                          
 11771+ 0037FE  0012               	return
 11772+                          	opt stack 0
 11773+                          GLOBAL __end_of___ftadd
 11774+ 003800                     	__end_of___ftadd:
 11775+                          	FNSIZE	___ftadd,6,6
 11776+                          ; =============== function ___ftadd ends =======
      +                          =====
 11777+                          
 11778+                          	signat	___ftadd,8315
 11779+                          	global	___ftunpack
 11780+                          	global	??___ftunpack
 11781+                          	global	?___ftunpack
 11782+                                  psect   text33,class=CODE,space=0,reloc=
      +                          2
 11783+                          
 11784+                          	opt lm
 11785+                          	file	"C:\Program Files (x86)\HI-TECH Software\P
      +                          ICC-18\PRO\9.63\sources\float.c"
 11786+                          	line	13
 11787+ 000000                     	__size_of___ftunpack	equ	__end_of___ftunpack-__
      +                          _ftunpack
 11788+                          	
 11789+ 0050D0                     ___ftunpack:		; BSR set to: ?
 11790+                          
 11791+                          	opt stack 25
 11792+                          	line	16
 11793+ 0050D0  C187  FFE9         	movff	(___ftunpack@arg),fsr0l
 11794+ 0050D4  C188  FFEA         	movff	(___ftunpack@arg+1),fsr0h
 11795+ 0050D8  0E01               	movlw	1
 11796+ 0050DA  34EB               	rlcf	plusw0,w
 11797+ 0050DC  0E02               	movlw	2
 11798+ 0050DE  34EB               	rlcf	plusw0,w
 11799+                          
 11800+ 0050E0  0101               	movlb	1	; () banked
 11801+ 0050E2  0101               	movlb	1	; () banked
 11802+ 0050E4  6F8B               	movwf	((___ftunpack@sign))&0ffh
 11803+ 0050E6  C189  FFE9         	movff	(___ftunpack@exp),fsr0l
 11804+ 0050EA  C18A  FFEA         	movff	(___ftunpack@exp+1),fsr0h
 11805+ 0050EE  0101               	movlb	1	; () banked
 11806+ 0050F0  C18B  FFEF         	movff	(___ftunpack@sign),indf0
 11807+                          
 11808+                          	line	17
 11809+ 0050F4  0101               	movlb	1	; () banked
 11810+ 0050F6  0101               	movlb	1	; () banked
 11811+ 0050F8  678B               	tstfsz	((___ftunpack@sign))&0ffh
 11812+ 0050FA  D001               	goto	u7251
 11813+ 0050FC  D001               	goto	u7250
 11814+ 0050FE                     u7251:
 11815+ 0050FE  D00D               	goto	l566
 11816+ 005100                     u7250:
 11817+                          	line	18
 11818+ 005100  C187  FFE9         	movff	(___ftunpack@arg),fsr0l
 11819+ 005104  C188  FFEA         	movff	(___ftunpack@arg+1),fsr0h
 11820+ 005108  0E00               	movlw	low(0)
 11821+ 00510A  6EEE               	movwf	postinc0
 11822+ 00510C  0E00               	movlw	high(0)
 11823+ 00510E  6EEE               	movwf	postinc0
 11824+ 005110  0E00               	movlw	low highword(0)
 11825+ 005112  6EED               	movwf	postdec0
 11826+ 005114  52ED               	movf	postdec0
 11827+                          	line	19
 11828+ 005116  0E00               	movlw	(0)&0ffh
 11829+ 005118  D02F               	goto	l565
 11830+                          	line	20
 11831+                          	
 11832+ 00511A                     l566:		; BSR set to: ?
 11833+                          
 11834+                          	line	21
 11835+ 00511A  0101               	movlb	1	; () banked
 11836+ 00511C  6F8C               	movwf	(??___ftunpack+1+0)&0ffh
 11837+ 00511E  0E00               	movlw	low(0)
 11838+ 005120  0101               	movlb	1	; () banked
 11839+ 005122  0101               	movlb	1	; () banked
 11840+ 005124  6F8B               	movwf	((___ftunpack@sign))&0ffh
 11841+ 005126  0101               	movlb	1	; () banked
 11842+ 005128  518C               	movf	(??___ftunpack+1+0)&0ffh,w
 11843+                          	line	22
 11844+ 00512A  C187  FFE9         	movff	(___ftunpack@arg),fsr0l
 11845+ 00512E  C188  FFEA         	movff	(___ftunpack@arg+1),fsr0h
 11846+ 005132  0E01               	movlw	0+(15/8)
 11847+ 005134  8EEB               	bsf	plusw0,(15)&7
 11848+                          	line	23
 11849+ 005136  C187  FFE9         	movff	(___ftunpack@arg),fsr0l
 11850+ 00513A  C188  FFEA         	movff	(___ftunpack@arg+1),fsr0h
 11851+ 00513E  CFEE F18C          	movff	postinc0,??___ftunpack+1+0
 11852+ 005142  CFEE F18D          	movff	postinc0,??___ftunpack+1+0+1
 11853+ 005146  CFEE F18E          	movff	postinc0,??___ftunpack+1+0+2
 11854+ 00514A  0101               	movlb	1	; () banked
 11855+                          	
 11856+ 00514C  AF8E               	btfss	(??___ftunpack+1+2)&0ffh,(23)&7
 11857+ 00514E  D001               	goto	u7261
 11858+ 005150  D001               	goto	u7260
 11859+ 005152                     u7261:
 11860+ 005152  D003               	goto	l567
 11861+ 005154                     u7260:
 11862+                          	line	24
 11863+ 005154  0101               	movlb	1	; () banked
 11864+ 005156  0101               	movlb	1	; () banked
 11865+ 005158  2B8B               	incf	((___ftunpack@sign))&0ffh
 11866+                          	
 11867+ 00515A                     l567:		; BSR set to: ?
 11868+                          
 11869+                          	line	25
 11870+ 00515A  C187  FFE9         	movff	(___ftunpack@arg),fsr0l
 11871+ 00515E  C188  FFEA         	movff	(___ftunpack@arg+1),fsr0h
 11872+ 005162  0EFF               	movlw	low(0FFFFh)
 11873+ 005164  16EE               	andwf	postinc0
 11874+ 005166  0EFF               	movlw	high(0FFFFh)
 11875+ 005168  16EE               	andwf	postinc0
 11876+ 00516A  0E00               	movlw	low highword(0FFFFh)
 11877+ 00516C  16ED               	andwf	postdec0
 11878+ 00516E  52ED               	movf	postdec0
 11879+                          	line	26
 11880+ 005170  0101               	movlb	1	; () banked
 11881+ 005172  0101               	movlb	1	; () banked
 11882+ 005174  518B               	movf	((___ftunpack@sign))&0ffh,w
 11883+ 005176  D000               	goto	l565
 11884+                          	line	27
 11885+ 005178                     l565:
 11886+                          			; BSR set to: ?
 11887+                          
 11888+ 005178  0012               	return
 11889+                          	opt stack 0
 11890+                          GLOBAL __end_of___ftunpack
 11891+ 00517A                     	__end_of___ftunpack:
 11892+                          	FNSIZE	___ftunpack,4,4
 11893+                          ; =============== function ___ftunpack ends ====
      +                          ========
 11894+                          
 11895+                          	signat	___ftunpack,8313
 11896+                          	global	___ftpack
 11897+                          	global	??___ftpack
 11898+                          	global	?___ftpack
 11899+                                  psect   text34,class=CODE,space=0,reloc=
      +                          2
 11900+                          
 11901+                          	opt lm
 11902+                          	file	"C:\Program Files (x86)\HI-TECH Software\P
      +                          ICC-18\PRO\9.63\sources\float.c"
 11903+                          	line	33
 11904+ 000000                     	__size_of___ftpack	equ	__end_of___ftpack-___ftp
      +                          ack
 11905+                          	
 11906+ 0048EC                     ___ftpack:		; BSR set to: ?
 11907+                          
 11908+                          	opt stack 25
 11909+                          	line	34
 11910+ 0048EC  0101               	movlb	1	; () banked
 11911+ 0048EE  0101               	movlb	1	; () banked
 11912+ 0048F0  5189               	movf	((___ftpack@exp))&0ffh,w
 11913+ 0048F2  B4D8               	btfsc	status,2
 11914+ 0048F4  D001               	goto	u7271
 11915+ 0048F6  D001               	goto	u7270
 11916+ 0048F8                     u7271:
 11917+ 0048F8  D00B               	goto	l600000737
 11918+ 0048FA                     u7270:
 11919+ 0048FA  C187  FFE9         	movff	(___ftpack@arg),fsr0l
 11920+ 0048FE  C188  FFEA         	movff	(___ftpack@arg+1),fsr0h
 11921+ 004902  50EE               	movf	postinc0,w
 11922+ 004904  10EE               	iorwf	postinc0,w
 11923+ 004906  10ED               	iorwf	postdec0,w
 11924+ 004908  A4D8               	btfss	status,2
 11925+ 00490A  D001               	goto	u7281
 11926+ 00490C  D001               	goto	u7280
 11927+ 00490E                     u7281:
 11928+ 00490E  D00C               	goto	l569
 11929+ 004910                     u7280:
 11930+                          	
 11931+ 004910                     l600000737:		; BSR set to: ?
 11932+                          
 11933+                          	line	35
 11934+ 004910  C187  FFE9         	movff	(___ftpack@arg),fsr0l
 11935+ 004914  C188  FFEA         	movff	(___ftpack@arg+1),fsr0h
 11936+ 004918  0E00               	movlw	low(0)
 11937+ 00491A  6EEE               	movwf	postinc0
 11938+ 00491C  0E00               	movlw	high(0)
 11939+ 00491E  6EEE               	movwf	postinc0
 11940+ 004920  0E00               	movlw	low highword(0)
 11941+ 004922  6EED               	movwf	postdec0
 11942+ 004924  52ED               	movf	postdec0
 11943+                          	line	36
 11944+ 004926  D080               	goto	l568
 11945+                          	line	37
 11946+                          	
 11947+ 004928                     l569:		; BSR set to: ?
 11948+                          
 11949+                          	line	38
 11950+ 004928  D00D               	goto	l570
 11951+                          	
 11952+ 00492A                     l571:		; BSR set to: ?
 11953+                          
 11954+                          	line	39
 11955+ 00492A  0101               	movlb	1	; () banked
 11956+ 00492C  0101               	movlb	1	; () banked
 11957+ 00492E  2B89               	incf	((___ftpack@exp))&0ffh
 11958+                          	line	40
 11959+ 004930  C187  FFE9         	movff	(___ftpack@arg),fsr0l
 11960+ 004934  C188  FFEA         	movff	(___ftpack@arg+1),fsr0h
 11961+ 004938  52EC               	movf	preinc0
 11962+ 00493A  52EC               	movf	preinc0
 11963+ 00493C  90D8               	bcf	status,0
 11964+ 00493E  32ED               	rrcf	postdec0
 11965+ 004940  32ED               	rrcf	postdec0
 11966+ 004942  32EF               	rrcf	indf0
 11967+                          	line	41
 11968+                          	
 11969+ 004944                     l570:		; BSR set to: ?
 11970+                          
 11971+                          	line	38
 11972+ 004944  C187  FFE9         	movff	(___ftpack@arg),fsr0l
 11973+ 004948  C188  FFEA         	movff	(___ftpack@arg+1),fsr0h
 11974+ 00494C  52EE               	movf	postinc0
 11975+ 00494E  52EE               	movf	postinc0
 11976+ 004950  0EFE               	movlw	low highword(0FE0000h)
 11977+ 004952  14ED               	andwf	postdec0,w
 11978+ 004954  A4D8               	btfss	status,2
 11979+ 004956  D001               	goto	u7291
 11980+ 004958  D001               	goto	u7290
 11981+ 00495A                     u7291:
 11982+ 00495A  D7E7               	goto	l571
 11983+ 00495C                     u7290:
 11984+                          	
 11985+ 00495C                     l572:		; BSR set to: ?
 11986+                          
 11987+                          	line	42
 11988+ 00495C  D016               	goto	l573
 11989+                          	
 11990+ 00495E                     l574:		; BSR set to: ?
 11991+                          
 11992+                          	line	43
 11993+ 00495E  0101               	movlb	1	; () banked
 11994+ 004960  0101               	movlb	1	; () banked
 11995+ 004962  2B89               	incf	((___ftpack@exp))&0ffh
 11996+                          	line	44
 11997+ 004964  C187  FFE9         	movff	(___ftpack@arg),fsr0l
 11998+ 004968  C188  FFEA         	movff	(___ftpack@arg+1),fsr0h
 11999+ 00496C  2AEE               	incf	postinc0
 12000+ 00496E  0E00               	movlw	0
 12001+ 004970  22EE               	addwfc	postinc0
 12002+ 004972  22ED               	addwfc	postdec0
 12003+ 004974  52ED               	movf	postdec0
 12004+                          	line	45
 12005+ 004976  C187  FFE9         	movff	(___ftpack@arg),fsr0l
 12006+ 00497A  C188  FFEA         	movff	(___ftpack@arg+1),fsr0h
 12007+ 00497E  52EC               	movf	preinc0
 12008+ 004980  52EC               	movf	preinc0
 12009+ 004982  90D8               	bcf	status,0
 12010+ 004984  32ED               	rrcf	postdec0
 12011+ 004986  32ED               	rrcf	postdec0
 12012+ 004988  32EF               	rrcf	indf0
 12013+                          	line	46
 12014+                          	
 12015+ 00498A                     l573:		; BSR set to: ?
 12016+                          
 12017+                          	line	42
 12018+ 00498A  C187  FFE9         	movff	(___ftpack@arg),fsr0l
 12019+ 00498E  C188  FFEA         	movff	(___ftpack@arg+1),fsr0h
 12020+ 004992  52EE               	movf	postinc0
 12021+ 004994  52EE               	movf	postinc0
 12022+ 004996  0EFF               	movlw	low highword(0FF0000h)
 12023+ 004998  14ED               	andwf	postdec0,w
 12024+ 00499A  A4D8               	btfss	status,2
 12025+ 00499C  D001               	goto	u7301
 12026+ 00499E  D001               	goto	u7300
 12027+ 0049A0                     u7301:
 12028+ 0049A0  D7DE               	goto	l574
 12029+ 0049A2                     u7300:
 12030+                          	
 12031+ 0049A2                     l575:		; BSR set to: ?
 12032+                          
 12033+                          	line	47
 12034+ 0049A2  D00C               	goto	l576
 12035+                          	
 12036+ 0049A4                     l577:		; BSR set to: ?
 12037+                          
 12038+                          	line	48
 12039+ 0049A4  0101               	movlb	1	; () banked
 12040+ 0049A6  0101               	movlb	1	; () banked
 12041+ 0049A8  0789               	decf	((___ftpack@exp))&0ffh
 12042+                          	line	49
 12043+ 0049AA  C187  FFE9         	movff	(___ftpack@arg),fsr0l
 12044+ 0049AE  C188  FFEA         	movff	(___ftpack@arg+1),fsr0h
 12045+ 0049B2  90D8               	bcf	status,0
 12046+ 0049B4  36EE               	rlcf	postinc0
 12047+ 0049B6  36EE               	rlcf	postinc0
 12048+ 0049B8  36ED               	rlcf	postdec0
 12049+ 0049BA  52ED               	movf	postdec0
 12050+                          	line	50
 12051+                          	
 12052+ 0049BC                     l576:		; BSR set to: ?
 12053+                          
 12054+                          	line	47
 12055+ 0049BC  C187  FFE9         	movff	(___ftpack@arg),fsr0l
 12056+ 0049C0  C188  FFEA         	movff	(___ftpack@arg+1),fsr0h
 12057+ 0049C4  CFEE F18A          	movff	postinc0,??___ftpack+0+0
 12058+ 0049C8  CFEE F18B          	movff	postinc0,??___ftpack+0+0+1
 12059+ 0049CC  CFEE F18C          	movff	postinc0,??___ftpack+0+0+2
 12060+ 0049D0  0101               	movlb	1	; () banked
 12061+                          	
 12062+ 0049D2  AF8B               	btfss	(??___ftpack+0+1)&0ffh,(15)&7
 12063+ 0049D4  D001               	goto	u7311
 12064+ 0049D6  D001               	goto	u7310
 12065+ 0049D8                     u7311:
 12066+ 0049D8  D7E5               	goto	l577
 12067+ 0049DA                     u7310:
 12068+                          	
 12069+ 0049DA                     l578:		; BSR set to: ?
 12070+                          
 12071+                          	line	51
 12072+ 0049DA  0101               	movlb	1	; () banked
 12073+                          	
 12074+ 0049DC  0101               	movlb	1	; () banked
 12075+ 0049DE  B189               	btfsc	((___ftpack@exp))&0ffh,(0)&7
 12076+ 0049E0  D001               	goto	u7321
 12077+ 0049E2  D001               	goto	u7320
 12078+ 0049E4                     u7321:
 12079+ 0049E4  D00B               	goto	l579
 12080+ 0049E6                     u7320:
 12081+                          	line	52
 12082+ 0049E6  C187  FFE9         	movff	(___ftpack@arg),fsr0l
 12083+ 0049EA  C188  FFEA         	movff	(___ftpack@arg+1),fsr0h
 12084+ 0049EE  0EFF               	movlw	low(0FF7FFFh)
 12085+ 0049F0  16EE               	andwf	postinc0
 12086+ 0049F2  0E7F               	movlw	high(0FF7FFFh)
 12087+ 0049F4  16EE               	andwf	postinc0
 12088+ 0049F6  0EFF               	movlw	low highword(0FF7FFFh)
 12089+ 0049F8  16ED               	andwf	postdec0
 12090+ 0049FA  52ED               	movf	postdec0
 12091+                          	
 12092+ 0049FC                     l579:		; BSR set to: ?
 12093+                          
 12094+                          	line	53
 12095+ 0049FC  0101               	movlb	1	; () banked
 12096+ 0049FE  90D8               	bcf status,0
 12097+ 004A00  3389               	rrcf	((___ftpack@exp))&0ffh
 12098+                          
 12099+                          	line	54
 12100+ 004A02  0101               	movlb	1	; () banked
 12101+ 004A04  0101               	movlb	1	; () banked
 12102+ 004A06  5189               	movf	((___ftpack@exp))&0ffh,w
 12103+ 004A08  0101               	movlb	1	; () banked
 12104+ 004A0A  6F8C               	movwf	(??___ftpack+0+0+2)&0ffh
 12105+ 004A0C  6B8B               	clrf	(??___ftpack+0+0+1)&0ffh
 12106+ 004A0E  6B8A               	clrf	(??___ftpack+0+0)&0ffh
 12107+ 004A10  C187  FFE9         	movff	(___ftpack@arg),fsr0l
 12108+ 004A14  C188  FFEA         	movff	(___ftpack@arg+1),fsr0h
 12109+ 004A18  0101               	movlb	1	; () banked
 12110+ 004A1A  518A               	movf	(??___ftpack+0+0)&0ffh,w
 12111+ 004A1C  12EE               	iorwf	postinc0
 12112+ 004A1E  518B               	movf	(??___ftpack+0+1)&0ffh,w
 12113+ 004A20  12EE               	iorwf	postinc0
 12114+ 004A22  518C               	movf	(??___ftpack+0+2)&0ffh,w
 12115+ 004A24  12ED               	iorwf	postdec0
 12116+ 004A26  52ED               	movf	postdec0
 12117+                          	line	55
 12118+ 004A28                     l568:
 12119+                          			; BSR set to: ?
 12120+                          
 12121+ 004A28  0012               	return
 12122+                          	opt stack 0
 12123+                          GLOBAL __end_of___ftpack
 12124+ 004A2A                     	__end_of___ftpack:
 12125+                          	FNSIZE	___ftpack,3,3
 12126+                          ; =============== function ___ftpack ends ======
      +                          ======
 12127+                          
 12128+                          	signat	___ftpack,8312
 12129+                          	global	_IntServe
 12130+                          	global	??_IntServe
 12131+                          	global	?_IntServe
 12132+                                  psect   text35,class=CODE,space=0,reloc=
      +                          2
 12133+                          
 12134+                          	opt lm
 12135+                          	file	"C:\Users\leeee\Desktop\Desktop\School\Col
      +                          lege\4th Year\Semester 2\Embedded Systems\HW\HW1
      +                          0\HW10.c"
 12136+                          	line	11
 12137+ 000000                     	__size_of_IntServe	equ	__end_of_IntServe-_IntSe
      +                          rve
 12138+                          ;HW10.c: 10: void interrupt IntServe(void)
 12139+                          ;HW10.c: 11: {
 12140+                          	
 12141+ 00500A                     _IntServe:		; BSR set to: ?
 12142+                          
 12143+ 00500A  0006               	pop	; remove dummy address from shadow register
      +                           refresh
 12144+                          
 12145+                          	opt stack 31
 12146+                                  psect   intcode,class=CODE,space=0,reloc
      +                          =2
 12147+                          	global	int_func
 12148+ 000808                     int_func:
 12149+                                  psect   intcode
 12150+ 000808  CFFA F18F          	movff	pclat+0,??_IntServe+0
 12151+ 00080C  CFFB F190          	movff	pclat+1,??_IntServe+1
 12152+ 000810  CFE9 F191          	movff	fsr0l+0,??_IntServe+2
 12153+ 000814  ED05  F028         	call	_IntServe,f	;refresh shadow registers
 12154+                                  psect   text35
 12155+ 00500C  CFEA F192          	movff	fsr0h+0,??_IntServe+3
 12156+ 005010  CFE1 F193          	movff	fsr1l+0,??_IntServe+4
 12157+ 005014  CFE2 F194          	movff	fsr1h+0,??_IntServe+5
 12158+ 005018  CFD9 F195          	movff	fsr2l+0,??_IntServe+6
 12159+ 00501C  CFDA F196          	movff	fsr2h+0,??_IntServe+7
 12160+ 005020  CFF3 F197          	movff	prodl+0,??_IntServe+8
 12161+ 005024  CFF4 F198          	movff	prodh+0,??_IntServe+9
 12162+ 005028  CFF6 F199          	movff	tblptrl+0,??_IntServe+10
 12163+ 00502C  CFF7 F19A          	movff	tblptrh+0,??_IntServe+11
 12164+ 005030  CFF8 F19B          	movff	tblptru+0,??_IntServe+12
 12165+                          	line	12
 12166+                          ;HW10.c: 12: if (TMR1IF) {
 12167+ 005034  A09E               	btfss	c:(31984/8),(31984)&7	;volatile
 12168+ 005036  D001               	goto	i2u7331
 12169+ 005038  D001               	goto	i2u7330
 12170+ 00503A                     i2u7331:
 12171+ 00503A  D00D               	goto	i2l111
 12172+ 00503C                     i2u7330:
 12173+                          	line	13
 12174+                          ;HW10.c: 13: TIME = TIME + 0x10000;
 12175+ 00503C  0E00               	movlw	0
 12176+ 00503E  240C               	addwf	((c:12)),c,w
 12177+ 005040  6E0C               	movwf	((c:12)),c
 12178+ 005042  0E00               	movlw	0
 12179+ 005044  200D               	addwfc	((c:12+1)),c,w
 12180+ 005046  6E0D               	movwf	1+((c:12)),c
 12181+ 005048  0E01               	movlw	01h
 12182+ 00504A  200E               	addwfc	((c:12+2)),c,w
 12183+ 00504C  6E0E               	movwf	2+((c:12)),c
 12184+ 00504E  0E00               	movlw	0
 12185+ 005050  200F               	addwfc	((c:12+3)),c,w
 12186+ 005052  6E0F               	movwf	3+((c:12)),c
 12187+                          	line	14
 12188+                          ;HW10.c: 14: TMR1IF = 0;
 12189+ 005054  909E               	bcf	c:(31984/8),(31984)&7	;volatile
 12190+                          	line	15
 12191+                          	
 12192+ 005056                     i2l111:		; BSR set to: ?
 12193+                          
 12194+                          	line	16
 12195+                          ;HW10.c: 15: }
 12196+                          ;HW10.c: 16: if (CCP1IF) {
 12197+ 005056  A49E               	btfss	c:(31986/8),(31986)&7	;volatile
 12198+ 005058  D001               	goto	i2u7341
 12199+ 00505A  D001               	goto	i2u7340
 12200+ 00505C                     i2u7341:
 12201+ 00505C  D00D               	goto	i2l112
 12202+ 00505E                     i2u7340:
 12203+                          	line	17
 12204+                          ;HW10.c: 17: TIME0 = TIME + CCPR1;
 12205+ 00505E  50BE               	movf	((c:4030)),c,w	;volatile
 12206+ 005060  240C               	addwf	((c:12)),c,w
 12207+ 005062  6E00               	movwf	((c:0)),c
 12208+ 005064  50BF               	movf	((c:4030+1)),c,w
 12209+ 005066  200D               	addwfc	((c:12+1)),c,w
 12210+ 005068  6E01               	movwf	1+((c:0)),c	;volatile
 12211+                          	
 12212+ 00506A  0E00               	movlw	0
 12213+ 00506C  200E               	addwfc	((c:12+2)),c,w
 12214+ 00506E  6E02               	movwf	2+((c:0)),c
 12215+                          	
 12216+ 005070  0E00               	movlw	0
 12217+ 005072  200F               	addwfc	((c:12+3)),c,w
 12218+ 005074  6E03               	movwf	3+((c:0)),c
 12219+                          	line	18
 12220+                          ;HW10.c: 18: CCP1IF = 0;
 12221+ 005076  949E               	bcf	c:(31986/8),(31986)&7	;volatile
 12222+                          	line	19
 12223+                          	
 12224+ 005078                     i2l112:		; BSR set to: ?
 12225+                          
 12226+                          	line	20
 12227+                          ;HW10.c: 19: }
 12228+                          ;HW10.c: 20: if (CCP2IF) {
 12229+ 005078  A0A1               	btfss	c:(32008/8),(32008)&7	;volatile
 12230+ 00507A  D001               	goto	i2u7351
 12231+ 00507C  D001               	goto	i2u7350
 12232+ 00507E                     i2u7351:
 12233+ 00507E  D00D               	goto	i2l113
 12234+ 005080                     i2u7350:
 12235+                          	line	21
 12236+                          ;HW10.c: 21: TIME1 = TIME + CCPR2;
 12237+ 005080  50BB               	movf	((c:4027)),c,w	;volatile
 12238+ 005082  240C               	addwf	((c:12)),c,w
 12239+ 005084  6E04               	movwf	((c:4)),c
 12240+ 005086  50BC               	movf	((c:4027+1)),c,w
 12241+ 005088  200D               	addwfc	((c:12+1)),c,w
 12242+ 00508A  6E05               	movwf	1+((c:4)),c	;volatile
 12243+                          	
 12244+ 00508C  0E00               	movlw	0
 12245+ 00508E  200E               	addwfc	((c:12+2)),c,w
 12246+ 005090  6E06               	movwf	2+((c:4)),c
 12247+                          	
 12248+ 005092  0E00               	movlw	0
 12249+ 005094  200F               	addwfc	((c:12+3)),c,w
 12250+ 005096  6E07               	movwf	3+((c:4)),c
 12251+                          	line	22
 12252+                          ;HW10.c: 22: CCP2IF = 0;
 12253+ 005098  90A1               	bcf	c:(32008/8),(32008)&7	;volatile
 12254+                          	line	23
 12255+                          	
 12256+ 00509A                     i2l113:		; BSR set to: ?
 12257+                          
 12258+                          	line	24
 12259+                          ;HW10.c: 23: }
 12260+                          ;HW10.c: 24: }
 12261+ 00509A                     i2l110:
 12262+                          			; BSR set to: ?
 12263+                          
 12264+ 00509A  C19B  FFF8         	movff	??_IntServe+12,tblptru+0
 12265+ 00509E  C19A  FFF7         	movff	??_IntServe+11,tblptrh+0
 12266+ 0050A2  C199  FFF6         	movff	??_IntServe+10,tblptrl+0
 12267+ 0050A6  C198  FFF4         	movff	??_IntServe+9,prodh+0
 12268+ 0050AA  C197  FFF3         	movff	??_IntServe+8,prodl+0
 12269+ 0050AE  C196  FFDA         	movff	??_IntServe+7,fsr2h+0
 12270+ 0050B2  C195  FFD9         	movff	??_IntServe+6,fsr2l+0
 12271+ 0050B6  C194  FFE2         	movff	??_IntServe+5,fsr1h+0
 12272+ 0050BA  C193  FFE1         	movff	??_IntServe+4,fsr1l+0
 12273+ 0050BE  C192  FFEA         	movff	??_IntServe+3,fsr0h+0
 12274+ 0050C2  C191  FFE9         	movff	??_IntServe+2,fsr0l+0
 12275+ 0050C6  C190  FFFB         	movff	??_IntServe+1,pclat+1
 12276+ 0050CA  C18F  FFFA         	movff	??_IntServe+0,pclat+0
 12277+ 0050CE  0011               	retfie f
 12278+                          	opt stack 0
 12279+                          GLOBAL __end_of_IntServe
 12280+ 0050D0                     	__end_of_IntServe:
 12281+                          	FNSIZE	_IntServe,13,0
 12282+                          ; =============== function _IntServe ends ======
      +                          ======
 12283+                          
 12284+                          	signat	_IntServe,88
 12285+                          	FNCALL	_main,_LCD_Init
 12286+                          	FNCALL	_main,_Wait_ms
 12287+                          	FNCALL	_main,___lldiv
 12288+                          	FNCALL	_main,___lltoft
 12289+                          	FNCALL	_main,___ftmul
 12290+                          	FNCALL	_main,_sprintf
 12291+                          	FNCALL	_main,_LCD_Move
 12292+                          	FNCALL	_main,_LCD_Out
 12293+                          	FNCALL	_main,_LCD_Write
 12294+                          	FNCALL	_LCD_Out,_LCD_Write
 12295+                          	FNCALL	_LCD_Out,___almod
 12296+                          	FNCALL	_LCD_Out,___aldiv
 12297+                          	FNCALL	_LCD_Move,_LCD_Inst
 12298+                          	FNCALL	_sprintf,_isdigit
 12299+                          	FNCALL	_sprintf,___wmul
 12300+                          	FNCALL	_sprintf,___ftneg
 12301+                          	FNCALL	_sprintf,___awdiv
 12302+                          	FNCALL	_sprintf,_scale
 12303+                          	FNCALL	_sprintf,___ftmul
 12304+                          	FNCALL	_sprintf,___ftge
 12305+                          	FNCALL	_sprintf,___asftdiv
 12306+                          	FNCALL	_sprintf,___fttol
 12307+                          	FNCALL	_sprintf,___lltoft
 12308+                          	FNCALL	_sprintf,___ftsub
 12309+                          	FNCALL	_sprintf,___asftadd
 12310+                          	FNCALL	_sprintf,___asftmul
 12311+                          	FNCALL	_sprintf,___lldiv
 12312+                          	FNCALL	_sprintf,___llmod
 12313+                          	FNCALL	_sprintf,___awmod
 12314+                          	FNCALL	_sprintf,_fround
 12315+                          	FNCALL	_sprintf,__tdiv_to_l_
 12316+                          	FNCALL	_sprintf,___asftsub
 12317+                          	FNCALL	_LCD_Init,_LCD_Inst
 12318+                          	FNCALL	_LCD_Init,_Wait_ms
 12319+                          	FNCALL	_scale,___awdiv
 12320+                          	FNCALL	_scale,___wmul
 12321+                          	FNCALL	_scale,___awmod
 12322+                          	FNCALL	_scale,___ftmul
 12323+                          	FNCALL	_fround,___awdiv
 12324+                          	FNCALL	_fround,___wmul
 12325+                          	FNCALL	_fround,___awmod
 12326+                          	FNCALL	_fround,___ftmul
 12327+                          	FNCALL	___fttol,___ftunpack
 12328+                          	FNCALL	___asftadd,___ftadd
 12329+                          	FNCALL	___asftmul,___ftmul
 12330+                          	FNCALL	___asftdiv,___ftdiv
 12331+                          	FNCALL	___lltoft,___ftpack
 12332+                          	FNCALL	_LCD_Write,_LCD_Strobe
 12333+                          	FNCALL	__tdiv_to_l_,___ftunpack
 12334+                          	FNCALL	_LCD_Inst,_LCD_Strobe
 12335+                          	FNCALL	_LCD_Inst,_Wait_ms
 12336+                          	FNCALL	___asftsub,___ftsub
 12337+                          	FNCALL	___ftmul,___ftunpack
 12338+                          	FNCALL	___ftmul,___ftpack
 12339+                          	FNCALL	_LCD_Strobe,_LCD_Pause
 12340+                          	FNCALL	___ftdiv,___ftunpack
 12341+                          	FNCALL	___ftdiv,___ftpack
 12342+                          	FNCALL	___ftsub,___ftadd
 12343+                          	FNCALL	___ftadd,___ftunpack
 12344+                          	FNCALL	___ftadd,___ftpack
 12345+                          	FNROOT	_main
 12346+                          	FNCALL	intlevel2,_IntServe
 12347+                          	global	intlevel2
 12348+                          	FNROOT	intlevel2
 12349+                          ;	FNARG	___ftmul,___awmod
 12350+                          ;	FNARG	___ftmul,___awdiv
 12351+                          ;	FNARG	___ftsub,___fttol
 12352+                          ;	FNARG	___ftsub,___lltoft
 12353+                          ;	FNARG	___ftge,___ftpack
 12354+                          ;	FNARG	___ftge,___ftunpack
 12355+                          ;	FNARG	___ftge,___ftadd
 12356+                          ;	FNARG	___ftge,___ftsub
 12357+                          ;	FNARG	___ftge,___fttol
 12358+                          ;	FNARG	___ftge,___lltoft
 12359+                          ;	FNARG	___llmod,___lldiv
 12360+                                  psect   smallconst,class=SMALLCONST,spac
      +                          e=0,reloc=2
 12361+ 001000  00                 	db	0	;reserve
 12362+                          	global	_dpowers
 12363+                          	file	"C:\Program Files (x86)\HI-TECH Software\P
      +                          ICC-18\PRO\9.63\lib\doprnt.c"
 12364+                          	line	354
 12365+ 001001                     _dpowers:
 12366+ 001001  0001               	dw	(01h) & 0xffff
 12367+ 001003  0000               	dw	highword(01h)
 12368+ 001005  000A               	dw	(0Ah) & 0xffff
 12369+ 001007  0000               	dw	highword(0Ah)
 12370+ 001009  0064               	dw	(064h) & 0xffff
 12371+ 00100B  0000               	dw	highword(064h)
 12372+ 00100D  03E8               	dw	(03E8h) & 0xffff
 12373+ 00100F  0000               	dw	highword(03E8h)
 12374+ 001011  2710               	dw	(02710h) & 0xffff
 12375+ 001013  0000               	dw	highword(02710h)
 12376+ 001015  86A0               	dw	(0186A0h) & 0xffff
 12377+ 001017  0001               	dw	highword(0186A0h)
 12378+ 001019  4240               	dw	(0F4240h) & 0xffff
 12379+ 00101B  000F               	dw	highword(0F4240h)
 12380+ 00101D  9680               	dw	(0989680h) & 0xffff
 12381+ 00101F  0098               	dw	highword(0989680h)
 12382+ 001021  E100               	dw	(05F5E100h) & 0xffff
 12383+ 001023  05F5               	dw	highword(05F5E100h)
 12384+ 001025  CA00               	dw	(03B9ACA00h) & 0xffff
 12385+ 001027  3B9A               	dw	highword(03B9ACA00h)
 12386+                          	global	__npowers_
 12387+                          	line	388
 12388+ 001029                     __npowers_:
 12389+ 001029  00                 	db	low(float24(1.0000000000000000))
 12390+ 00102A  80                 	db	high(float24(1.0000000000000000))
 12391+ 00102B  3F                 	db	low highword(float24(1.0000000000000000))
 12392+ 00102C  CD                 	db	low(float24(0.10000000000000001))
 12393+ 00102D  CC                 	db	high(float24(0.10000000000000001))
 12394+ 00102E  3D                 	db	low highword(float24(0.10000000000000001))
 12395+ 00102F  D7                 	db	low(float24(0.010000000000000000))
 12396+ 001030  23                 	db	high(float24(0.010000000000000000))
 12397+ 001031  3C                 	db	low highword(float24(0.010000000000000000))
 12398+ 001032  12                 	db	low(float24(0.0010000000000000000))
 12399+ 001033  83                 	db	high(float24(0.0010000000000000000))
 12400+ 001034  3A                 	db	low highword(float24(0.0010000000000000000))
 12401+ 001035  B7                 	db	low(float24(0.00010000000000000000))
 12402+ 001036  D1                 	db	high(float24(0.00010000000000000000))
 12403+ 001037  38                 	db	low highword(float24(0.00010000000000000000)
      +                          )
 12404+ 001038  C6                 	db	low(float24(1.0000000000000001e-005))
 12405+ 001039  27                 	db	high(float24(1.0000000000000001e-005))
 12406+ 00103A  37                 	db	low highword(float24(1.0000000000000001e-005
      +                          ))
 12407+ 00103B  38                 	db	low(float24(9.9999999999999995e-007))
 12408+ 00103C  86                 	db	high(float24(9.9999999999999995e-007))
 12409+ 00103D  35                 	db	low highword(float24(9.9999999999999995e-007
      +                          ))
 12410+ 00103E  C0                 	db	low(float24(9.9999999999999995e-008))
 12411+ 00103F  D6                 	db	high(float24(9.9999999999999995e-008))
 12412+ 001040  33                 	db	low highword(float24(9.9999999999999995e-008
      +                          ))
 12413+ 001041  CC                 	db	low(float24(1.0000000000000000e-008))
 12414+ 001042  2B                 	db	high(float24(1.0000000000000000e-008))
 12415+ 001043  32                 	db	low highword(float24(1.0000000000000000e-008
      +                          ))
 12416+ 001044  70                 	db	low(float24(1.0000000000000001e-009))
 12417+ 001045  89                 	db	high(float24(1.0000000000000001e-009))
 12418+ 001046  30                 	db	low highword(float24(1.0000000000000001e-009
      +                          ))
 12419+ 001047  E7                 	db	low(float24(1.0000000000000000e-010))
 12420+ 001048  DB                 	db	high(float24(1.0000000000000000e-010))
 12421+ 001049  2E                 	db	low highword(float24(1.0000000000000000e-010
      +                          ))
 12422+ 00104A  E5                 	db	low(float24(9.9999999999999995e-021))
 12423+ 00104B  3C                 	db	high(float24(9.9999999999999995e-021))
 12424+ 00104C  1E                 	db	low highword(float24(9.9999999999999995e-021
      +                          ))
 12425+ 00104D  42                 	db	low(float24(1.0000000000000001e-030))
 12426+ 00104E  A2                 	db	high(float24(1.0000000000000001e-030))
 12427+ 00104F  0D                 	db	low highword(float24(1.0000000000000001e-030
      +                          ))
 12428+                          	global	__powers_
 12429+ 001050                     __powers_:
 12430+ 001050  00                 	db	low(float24(1.0000000000000000))
 12431+ 001051  80                 	db	high(float24(1.0000000000000000))
 12432+ 001052  3F                 	db	low highword(float24(1.0000000000000000))
 12433+ 001053  00                 	db	low(float24(10.000000000000000))
 12434+ 001054  20                 	db	high(float24(10.000000000000000))
 12435+ 001055  41                 	db	low highword(float24(10.000000000000000))
 12436+ 001056  00                 	db	low(float24(100.00000000000000))
 12437+ 001057  C8                 	db	high(float24(100.00000000000000))
 12438+ 001058  42                 	db	low highword(float24(100.00000000000000))
 12439+ 001059  00                 	db	low(float24(1000.0000000000000))
 12440+ 00105A  7A                 	db	high(float24(1000.0000000000000))
 12441+ 00105B  44                 	db	low highword(float24(1000.0000000000000))
 12442+ 00105C  40                 	db	low(float24(10000.000000000000))
 12443+ 00105D  1C                 	db	high(float24(10000.000000000000))
 12444+ 00105E  46                 	db	low highword(float24(10000.000000000000))
 12445+ 00105F  50                 	db	low(float24(100000.00000000000))
 12446+ 001060  C3                 	db	high(float24(100000.00000000000))
 12447+ 001061  47                 	db	low highword(float24(100000.00000000000))
 12448+ 001062  24                 	db	low(float24(1000000.0000000000))
 12449+ 001063  74                 	db	high(float24(1000000.0000000000))
 12450+ 001064  49                 	db	low highword(float24(1000000.0000000000))
 12451+ 001065  97                 	db	low(float24(10000000.000000000))
 12452+ 001066  18                 	db	high(float24(10000000.000000000))
 12453+ 001067  4B                 	db	low highword(float24(10000000.000000000))
 12454+ 001068  BC                 	db	low(float24(100000000.00000000))
 12455+ 001069  BE                 	db	high(float24(100000000.00000000))
 12456+ 00106A  4C                 	db	low highword(float24(100000000.00000000))
 12457+ 00106B  6B                 	db	low(float24(1000000000.0000000))
 12458+ 00106C  6E                 	db	high(float24(1000000000.0000000))
 12459+ 00106D  4E                 	db	low highword(float24(1000000000.0000000))
 12460+ 00106E  03                 	db	low(float24(10000000000.000000))
 12461+ 00106F  15                 	db	high(float24(10000000000.000000))
 12462+ 001070  50                 	db	low highword(float24(10000000000.000000))
 12463+ 001071  79                 	db	low(float24(1.0000000000000000e+020))
 12464+ 001072  AD                 	db	high(float24(1.0000000000000000e+020))
 12465+ 001073  60                 	db	low highword(float24(1.0000000000000000e+020
      +                          ))
 12466+ 001074  F3                 	db	low(float24(1.0000000000000000e+030))
 12467+ 001075  49                 	db	high(float24(1.0000000000000000e+030))
 12468+ 001076  71                 	db	low highword(float24(1.0000000000000000e+030
      +                          ))
 12469+                          	global	_hexpowers
 12470+                          	line	362
 12471+ 001077                     _hexpowers:
 12472+ 001077  0001               	dw	(01h) & 0xffff
 12473+ 001079  0000               	dw	highword(01h)
 12474+ 00107B  0010               	dw	(010h) & 0xffff
 12475+ 00107D  0000               	dw	highword(010h)
 12476+ 00107F  0100               	dw	(0100h) & 0xffff
 12477+ 001081  0000               	dw	highword(0100h)
 12478+ 001083  1000               	dw	(01000h) & 0xffff
 12479+ 001085  0000               	dw	highword(01000h)
 12480+ 001087  0000               	dw	(010000h) & 0xffff
 12481+ 001089  0001               	dw	highword(010000h)
 12482+ 00108B  0000               	dw	(0100000h) & 0xffff
 12483+ 00108D  0010               	dw	highword(0100000h)
 12484+ 00108F  0000               	dw	(01000000h) & 0xffff
 12485+ 001091  0100               	dw	highword(01000000h)
 12486+ 001093  0000               	dw	(010000000h) & 0xffff
 12487+ 001095  1000               	dw	highword(010000000h)
 12488+                          	global	_dpowers
 12489+                          	global	__npowers_
 12490+                          	global	__powers_
 12491+                          	global	_hexpowers
 12492+                          	global	_Final_TIME
 12493+                          	global	_Final_TIME
 12494+ 000000                     _Final_TIME  equ     8
 12495+                          
 12496+                          	DABS	1,8,4	;_Final_TIME
 12497+                          	global	_TIME
 12498+                          	global	_TIME
 12499+ 000000                     _TIME  equ     12
 12500+                          
 12501+                          	DABS	1,12,4	;_TIME
 12502+                          	global	_TIME0
 12503+                          	global	_TIME0
 12504+ 000000                     _TIME0  equ     0
 12505+                          
 12506+                          	DABS	1,0,4	;_TIME0
 12507+                          	global	_TIME1
 12508+                          	global	_TIME1
 12509+ 000000                     _TIME1  equ     4
 12510+                          
 12511+                          	DABS	1,4,4	;_TIME1
 12512+                          	global	_CCPR1
 12513+ 000000                     _CCPR1	equ	0xFBE
 12514+                          	global	_CCPR2
 12515+ 000000                     _CCPR2	equ	0xFBB
 12516+                          	global	_ADCON1
 12517+ 000000                     _ADCON1	equ	0xFC1
 12518+                          	global	_CCP1CON
 12519+ 000000                     _CCP1CON	equ	0xFBD
 12520+                          	global	_CCP2CON
 12521+ 000000                     _CCP2CON	equ	0xFBA
 12522+                          	global	_PORTD
 12523+ 000000                     _PORTD	equ	0xF83
 12524+                          	global	_T1CON
 12525+ 000000                     _T1CON	equ	0xFCD
 12526+                          	global	_TRISA
 12527+ 000000                     _TRISA	equ	0xF92
 12528+                          	global	_TRISB
 12529+ 000000                     _TRISB	equ	0xF93
 12530+                          	global	_TRISC
 12531+ 000000                     _TRISC	equ	0xF94
 12532+                          	global	_TRISD
 12533+ 000000                     _TRISD	equ	0xF95
 12534+                          	global	_TXREG
 12535+ 000000                     _TXREG	equ	0xFAD
 12536+                          	global	_CCP1IE
 12537+ 000000                     _CCP1IE	equ	0x7CEA
 12538+                          	global	_CCP1IF
 12539+ 000000                     _CCP1IF	equ	0x7CF2
 12540+                          	global	_CCP2IE
 12541+ 000000                     _CCP2IE	equ	0x7D00
 12542+                          	global	_CCP2IF
 12543+ 000000                     _CCP2IF	equ	0x7D08
 12544+                          	global	_GIE
 12545+ 000000                     _GIE	equ	0x7F97
 12546+                          	global	_PEIE
 12547+ 000000                     _PEIE	equ	0x7F96
 12548+                          	global	_RB1
 12549+ 000000                     _RB1	equ	0x7C09
 12550+                          	global	_RD1
 12551+ 000000                     _RD1	equ	0x7C19
 12552+                          	global	_RD2
 12553+ 000000                     _RD2	equ	0x7C1A
 12554+                          	global	_RD3
 12555+ 000000                     _RD3	equ	0x7C1B
 12556+                          	global	_TMR1CS
 12557+ 000000                     _TMR1CS	equ	0x7E69
 12558+                          	global	_TMR1IE
 12559+ 000000                     _TMR1IE	equ	0x7CE8
 12560+                          	global	_TMR1IF
 12561+ 000000                     _TMR1IF	equ	0x7CF0
 12562+                          	global	_TMR1IP
 12563+ 000000                     _TMR1IP	equ	0x7CF8
 12564+                          	global	_TMR1ON
 12565+ 000000                     _TMR1ON	equ	0x7E68
 12566+                          	global	_TRISC1
 12567+ 000000                     _TRISC1	equ	0x7CA1
 12568+                          	global	_TRISC2
 12569+ 000000                     _TRISC2	equ	0x7CA2
 12570+                          	global	_TRMT
 12571+ 000000                     _TRMT	equ	0x7D61
 12572+                          	
 12573+ 001097                     STR_3:		; BSR set to: ?
 12574+                          
 12575+ 001097  30                 	db	48	;'0'
 12576+ 001098  31                 	db	49	;'1'
 12577+ 001099  32                 	db	50	;'2'
 12578+ 00109A  33                 	db	51	;'3'
 12579+ 00109B  34                 	db	52	;'4'
 12580+ 00109C  35                 	db	53	;'5'
 12581+ 00109D  36                 	db	54	;'6'
 12582+ 00109E  37                 	db	55	;'7'
 12583+ 00109F  38                 	db	56	;'8'
 12584+ 0010A0  39                 	db	57	;'9'
 12585+ 0010A1  61                 	db	97	;'a'
 12586+ 0010A2  62                 	db	98	;'b'
 12587+ 0010A3  63                 	db	99	;'c'
 12588+ 0010A4  64                 	db	100	;'d'
 12589+ 0010A5  65                 	db	101	;'e'
 12590+ 0010A6  66                 	db	102	;'f'
 12591+ 0010A7  00                 	db	0
 12592+                          	
 12593+ 0010A8                     STR_2:		; BSR set to: ?
 12594+                          
 12595+ 0010A8  28                 	db	40
 12596+ 0010A9  6E                 	db	110	;'n'
 12597+ 0010AA  75                 	db	117	;'u'
 12598+ 0010AB  6C                 	db	108	;'l'
 12599+ 0010AC  6C                 	db	108	;'l'
 12600+ 0010AD  29                 	db	41
 12601+ 0010AE  00                 	db	0
 12602+                          	
 12603+ 0010AF                     STR_1:		; BSR set to: ?
 12604+                          
 12605+ 0010AF  25                 	db	37
 12606+ 0010B0  66                 	db	102	;'f'
 12607+ 0010B1  00                 	db	0
 12608+ 0010B2  00                 	db 0	; dummy byte at the end
 12609+                          	psect	intsave_regs,class=BIGRAM,space=1
 12610+                          	PSECT	param1,class=BANK1,space=1
 12611+                          	GLOBAL	__Lparam1
 12612+                          	FNCONF	param1,??,?
 12613+                          	GLOBAL	__Labsbss0
 12614+ 000000                     __Labsbss0	EQU	0
 12615+                          	GLOBAL	__Habsbss0
 12616+ 000000                     __Habsbss0	EQU	16
 12617+                          GLOBAL	__Lparam, __Hparam
 12618+                          GLOBAL	__Lparam1, __Hparam1
 12619+ 000000                     __Lparam	EQU	__Lparam1
 12620+ 000000                     __Hparam	EQU	__Hparam1


HI-TECH Software PICC-18 Macro Assembler V9.63PL3 build 4692 
Symbol Table                                           Wed Apr 08 01:50:36 2020

        ___asftadd@f2 015D         ___asftadd@f1p 015B  
        ___asftdiv@f2 015D          ___awdiv@sign 017F  
 ___wmul@multiplicand 017C           ?_LCD_Strobe 0136  
        ___asftmul@f2 015D          ___asftsub@f2 015D  
       ___asftdiv@f1p 015B          ___ftadd@exp1 0170  
        ___ftadd@exp2 016F          ___ftadd@cntr 016D  
                 l120 52E4                   l200 2F26  
                 l201 10F4                   l122 55C4  
                 l114 530C                   l210 1142  
                 l202 1110                   l130 524A  
                 l123 55B0                   l115 52A0  
                 l211 118E                   l203 117C  
                 l131 526C                   l124 55C4  
                 l116 530C                   l300 2140  
                 l220 1312                   l212 1240  
                 l204 117A                   l132 528E  
                 l133 558E                   l301 2114  
                 l221 15C6                   l205 1178  
                 l141 4744                   l118 52EC  
                 l126 55FE                   l134 520A  
                 l310 2310                   l302 23AA  
                 l230 133C                   l222 1562  
                 l214 1240                   l206 1152  
                 l142 47A6                   l119 52C6  
                 l127 53C0                   l311 23A8  
                 l303 2188                   l231 133E  
                 l223 1314                   l215 11C0  
                 l207 1112                   l135 47A6  
                 l312 23F8                   l304 21CA  
                 l240 14A4                   l232 1382  
                 l224 2F26                   l216 12FE  
                 l208 1122                   l128 528E  
                 l144 476A                   l136 4662  
                 l321 25E0                   l313 23F8  
                 l305 2226                   l241 148A  
                 l233 139A                   l225 1318  
                 l217 12D8                   l209 1132  
                 l129 522A                   l137 4676  
                 l410 4110                   l330 274A  
                 l322 2666                   l314 2508  
                 l250 153C                   l242 1476  
                 l234 1392                   l226 1320  
                 l218 127C                   l138 4696  
                 l411 4066                   l331 27E2  
                 l323 2696                   l315 24A0  
                 l307 2210                   l251 1540  
                 l243 14A4                   l235 13EA  
                 l227 1326                   l219 12FC  
                 l139 4732                   l412 404C  
                 l420 44E4                   l340 29DA  
                 l332 274C                   l324 26DA  
                 l316 24AE                   l308 228E  
                 l260 1812                   l252 2A72  
                 l244 14E6                   l236 13EA  
                 l228 132E                   l172 3D84  
                 l413 4072                   l421 4510  
                 l341 28E6                   l333 27F4  
                 l325 26C2                   l317 2578  
                 l309 2358                   l261 1816  
                 l253 15F2                   l245 14A6  
                 l237 1422                   l229 1334  
                 l173 3B74                   l430 460C  
                 l422 45DE                   l190 31CC  
                 l350 2AD4                   l342 29EC  
                 l334 2814                   l326 26A4  
                 l318 259A                   l270 1AE6  
                 l262 2144                   l254 1664  
                 l246 1500                   l238 145A  
                 l407 4150                   l415 4110  
                 l423 454E                   l183 3B06  
                 l351 2AF6                   l343 2A0C  
                 l335 27F6                   l327 26DA  
                 l319 25F6                   l271 1C56  
                 l263 189A                   l255 17E8  
                 l247 153C                   l239 1468  
                 l175 3D84                   l600 360A  
                 l416 4072                   l408 3FDA  
                 l424 4534                   l184 39A2  
                 l192 339C                   l360 2C5A  
                 l352 2B52                   l344 29EE  
                 l336 282C                   l328 272A  
                 l280 1D04                   l272 1B24  
                 l264 18C2                   l256 173A  
                 l248 1522                   l176 3D46  
                 l417 40F4                   l409 400E  
                 l425 455A                   l185 3AA4  
                 l193 348A                   l361 2C68  
                 l345 2A1C                   l337 2856  
                 l329 274A                   l281 1CE6  
                 l273 1B8E                   l265 18C6  
                 l257 17B0                   l249 150E  
                 l177 3D84                   l610 36B4  
                 l602 35E0                   l442 4B58  
                 l450 4B32                   l418 413E  
                 l370 2D1C                   l362 2CAA  
                 l354 2B3C                   l346 2A70  
                 l338 285A                   l290 1F02  
                 l282 1D1C                   l274 1B46  
                 l266 1AE6                   l258 17E8  
                 l603 35AE                   l451 4AD4  
                 l443 4A64                   l419 461E  
                 l427 45DE                   l187 34C4  
                 l371 2D98                   l363 2C9C  
                 l355 2B84                   l339 28A0  
                 l291 1FFA                   l283 1D6C  
                 l275 1BE0                   l267 19BE  
                 l259 17E8                   l620 37F0  
                 l612 368A                   l604 35F8  
                 l460 4D04                   l452 4B1E  
                 l444 4A86                   l428 455A  
                 l188 3206                   l380 2EEC  
                 l372 2DB8                   l364 2CAA  
                 l356 2BC8                   l348 2A70  
                 l292 1FDC                   l284 1D8C  
                 l276 1C56                   l268 1A5A  
                 l613 3658                   l605 35E2  
                 l453 4B4E                   l445 4B32  
                 l429 45C2                   l701 4C5C  
                 l621 548C                   l189 30DE  
                 l197 2F34                   l381 2EC0  
                 l373 2DB8                   l365 2CF2  
                 l357 2BC8                   l349 2A44  
                 l293 200A                   l285 1D8C  
                 l277 1CA8                   l269 1AE6  
                 l614 36A2                   l606 360A  
                 l454 4D76                   l462 4D50  
                 l622 4496                   l446 4AC8  
                 l382 55EA                   l702 4BBE  
                 l630 54D0                   l710 4E46  
                 l374 2DEC                   l366 2D00  
                 l358 2C08                   l294 202C  
                 l286 200A                   l278 1CD8  
                 l198 2EEC                   l615 368C  
                 l607 36B4                   l463 4D04  
                 l455 4CAA                   l623 436A  
                 l447 4AB6                   l631 3F8C  
                 l703 4C40                   l711 4DC2  
                 l375 2E82                   l367 2D48  
                 l359 2C68                   l295 2040  
                 l287 1FC8                   l279 1D1C  
                 l199 10CA                   l608 36B4  
                 l616 36B4                   l464 4D3C  
                 l456 4CC4                   l624 43B2  
                 l448 4AD4                   l632 3DEA  
                 l704 4E58                   l712 4E2A  
                 l376 2DEE                   l296 2070  
                 l288 1EBE                   l617 36F2  
                 l465 4D6C                   l457 4D50  
                 l641 3F26                   l633 3E30  
                 l705 4E46                   l377 2E9C  
                 l369 2D48                   l297 2084  
                 l289 1FDA                   l570 4944  
                 l618 3730                   l458 4CF8  
                 l626 445A                   l642 3F0A  
                 l706 4DB6                   l378 2EEC  
                 l298 2140                   l571 492A  
                 l619 37B0                   l459 4CE6  
                 l627 43DC                   l651 4264  
                 l643 3F7A                   l635 3ED0  
                 l715 5008                   l707 4D9C  
                 l572 495C                   l660 5514  
                 l628 4442                   l652 420C  
                 l644 3F52                   l636 3E4E  
                 l716 4F66                   l708 4DC2  
                 l573 498A                   l565 5178  
                 l629 4488                   l653 423C  
                 l661 5448                   l645 3F6E  
                 l637 3EB8                   l717 4F92  
                 l574 495E                   l566 511A  
                 l750 5368                   l646 3F54  
                 l638 3F28                   l718 4F78  
                 l670 489E                   l662 48EA  
                 l575 49A2                   l567 515A  
                 l751 531C                   l655 42CC  
                 l647 3F7A                   l719 4FD4  
                 l671 4884                   l663 4858  
                 l576 49BC                   l568 4A28  
                 l752 5340                   l656 4274  
                 l648 4308                   l672 48AA  
                 l577 49A4                   l569 4928  
                 l657 42A4                   l649 41EE  
                 l673 48D8                   l753 5552  
                 l578 49DA                   l594 37FE  
                 l658 42FA                   l666 4856  
                 l754 5544                   l579 49FC  
                 l595 34C8                   l659 5404  
                 l667 483A                   l596 3510  
                 l748 5372                   l668 48AA  
                 l597 37B0                   l757 4F38  
                 l669 4882                   l598 360C  
                 l758 4E9E                   l695 4C6E  
                 l759 4EE2                   l696 4C5C  
                 l697 4BB2                   l698 4B98  
                 l699 4BBE                   _GIE 007F97  
                 _RB1 007C09                   _RD1 007C19  
                 _RD2 007C1A                   _RD3 007C1B  
        ___awmod@sign 017E                   wreg 000FE8  
       ___asftmul@f1p 015B         ___asftsub@f1p 015B  
     __end_of_LCD_Out 47A8          ___ftdiv@exp1 0168  
        ___ftdiv@exp2 0166         ___ftadd@sign1 016E  
       ___ftadd@sign2 016C                  STR_1 10AF  
                STR_2 10A8                  STR_3 1097  
                u5100 47A6                  u5020 3BE2  
                u5101 47A4                  u5021 3BE0  
                u5110 5218                  u5030 3D44  
                u5111 5216                  u5031 3D42  
                u6000 26E6                  u5200 12FC  
                u5120 5238                  u5040 3D84  
                u6001 26E4                  u5201 12FA  
                u5121 5236                  u5041 3D82  
                u6010 2702                  u5210 1374  
                u5130 525A                  u5050 462C  
                u6011 2700                  u5211 1372  
                u5131 5258                  u5051 462A  
                u6100 2A2A                  u6020 2736  
                u5300 1500                  u5220 13E0  
                u5140 527C                  u5060 4694  
                u6101 2A26                  u6021 2734  
                u5301 14FE                  u5141 527A  
                u5061 4692                  u6110 2A44  
                u6030 27F4                  u5310 150C  
                u5230 13EA                  u5150 10DA  
                u5070 4732                  u6111 2A40  
                u6031 27F2                  u5311 150A  
                u5231 13E8                  u5151 10D8  
                u5071 4730                  u7000 43A4  
                u6200 2BD8                  u6120 2A70  
                u6040 282C                  u5400 17E0  
                u5320 153C                  u5240 13FA  
                u5160 1188                  u5080 4742  
                u7001 43A2                  u6201 2BD6  
                u6121 2A6E                  u6041 282A  
                u5401 17DE                  u5321 153A  
                u5241 13F8                  u5161 1186  
                u5081 4740                  u7010 4418  
                u6210 2BFE                  u6130 2ABA  
                u6050 2844                  u5410 1800  
                u5330 15D8                  u5250 141A  
                u5170 11B2                  u5090 4756  
                _PEIE 007F96                  u7011 4416  
                u6211 2BFC                  u6131 2AB8  
                u6051 2842                  u5411 17FE  
                u5331 15D4                  u5251 1418  
                u5227 13D6                  u5171 11B0  
                u5091 4754                  u7100 55C4  
                u7020 4482                  u6300 2D54  
                u6220 2C14                  u6140 2ACC  
                u6060 2880                  u5500 1990  
                u5420 1822                  u5340 15E4  
                u5260 1442                  u5180 1240  
                u7101 55C2                  u7021 4480  
                u6301 2D52                  u6221 2C12  
                u6141 2ACA                  u6061 287E  
                u5501 198E                  u5421 1820  
                u5341 15E2                  u5261 1440  
                u5181 123E                  u7110 3502  
                u7030 4C8C                  u6310 2D70  
                u6230 2C40                  u6150 2AF4  
                u6070 288C                  u5510 1A22  
                u5430 1830                  u5350 1640  
                u5270 1474                  u5190 125E  
                u7111 3500                  u7031 4C8A  
                u6311 2D6E                  u6231 2C3E  
                u6151 2AF2                  u6071 288A  
                u5511 1A20                  u5431 182C  
                u5351 163E                  u5271 1472  
                u5191 125C                  u7200 36B4  
                u7120 354C                  u7040 4CB6  
                u6400 2F5A                  u6320 2DA4  
                u6240 2C74                  u6160 2B3A  
                u6080 29EC                  u5600 1C9E  
                u5520 1AAE                  u5440 1848  
                u5360 1688                  u5280 14A4  
                u7201 36B2                  u7121 354A  
                u7041 4CB4                  u6401 2F58  
                u6321 2DA2                  u6241 2C72  
                u6161 2B38                  u6081 29EA  
                u5601 1C9C                  u5521 1AAC  
                u5441 1846                  u5361 1686  
                u5281 14A2                  u7210 36C2  
                u7130 356E                  u7050 4CD4  
                u6410 30F0                  u6330 2DC4  
                u6250 2C8C                  u6170 2B52  
                u6090 2A1C                  u5610 1CCE  
                u5530 1AF2                  u5450 1874  
                u5370 16BA                  u5290 14D4  
                u7211 36C0                  u7131 356C  
                u7051 4CD2                  u6411 30EE  
                u6331 2DC2                  u6251 2C8A  
                u6171 2B50                  u6091 2A1A  
                u5611 1CCC                  u5531 1AF0  
                u5451 1870                  u5355 1638  
                u7300 49A2                  u7220 3700  
                u7140 358C                  u7060 4D04  
                u6500 480C                  u6420 3218  
                u6340 2E9C                  u6260 2CD6  
                u6180 2B7E                  u5700 1EDC  
                u5620 1CE4                  u5540 1AFE  
                u5460 1884                  u5380 1730  
                u7301 49A0                  u7221 36FE  
                u7141 358A                  u7061 4D02  
                u6501 480A                  u6421 3216  
                u6341 2E9A                  u6261 2CD4  
                u6181 2B7C                  u5701 1EDA  
                u5621 1CE2                  u5541 1AFC  
                u5461 1882                  u5381 172E  
                u7310 49DA                  u7230 3770  
                u7150 35D8                  u7070 4D24  
                u6510 481E                  u6430 33AE  
                u6350 2EA8                  u6270 2D10  
                u6190 2BB2                  u5710 1FDA  
                u5630 1D1C                  u5550 1B16  
                u5470 1890                  u5390 17A4  
                u7311 49D8                  u7231 376E  
                u7151 35D6                  u7071 4D22  
                u6511 481C                  u6431 33AC  
                u6351 2EA6                  u6271 2D0E  
                u6191 2BB0                  u5711 1FD8  
                u5631 1D1A                  u5551 1B14  
                u5471 188E                  u5391 17A2  
                u5375 16AE                  u7320 49E6  
                u7240 37D8                  u7160 360A  
                u7080 4D5E                  u6600 4F4C  
                u6520 4866                  u6440 4D8A  
                u6360 2EC0                  u6280 2D1C  
                u5800 21C8                  u5720 200A  
                u5640 1D28                  u5560 1BA0  
                u5480 18B0                  u7321 49E4  
                u7241 37D6                  u7161 3608  
                u7081 4D5C                  u6601 4F4A  
                u6521 4864                  u6441 4D88  
                u6361 2EBE                  u6281 2D1A  
                u5801 21C6                  u5721 2008  
                u5641 1D26                  u5561 1B9E  
                u5481 18AE                  u5297 14CA  
                u7250 5100                  u7170 3620  
                u7090 55AE                  u6610 4FD4  
                u6530 48AA                  u6450 4DC2  
                u6370 2EEC                  u6290 2D48  
                u5810 220E                  u5730 2016  
                u5650 1D44                  u5570 1BE0  
                u5490 18DC                  u7251 50FE  
                u7171 361E                  u7091 55AC  
                u6611 4FD2                  u6531 48A8  
                u6451 4DC0                  u6371 2EEA  
                u6291 2D46                  u5811 220C  
                u5731 2014                  u5651 1D42  
                u5571 1BDE                  u5491 18DA  
                u7260 5154                  u7180 363E  
                u6700 403A                  u6620 44B4  
                u6540 48B8                  u6460 4DFA  
                u6380 2F26                  u5900 2460  
                u5820 2226                  u5740 204C  
                u5660 1D78                  u5580 1C0E  
                u7261 5152                  u7181 363C  
                u6701 4038                  u6621 44B2  
                u6541 48B6                  u6461 4DF8  
                u6381 2F22                  u5901 245E  
                u5821 2224                  u5741 204A  
                u5661 1D76                  u5581 1C0C  
                u7270 48FA                  u7190 3682  
                u6710 4072                  u6630 44F0  
                u6550 4E66                  u6470 380E  
                u6390 2F42                  u5910 2490  
                u5830 2258                  u5750 20FA  
                u5670 1E82                  u5590 1C92  
                u7271 48F8                  u7191 3680  
                u6711 4070                  u6631 44EE  
                u6551 4E64                  u6471 380C  
                u6391 2F40                  u5911 248E  
                u5831 2256                  u5751 20F6  
                u5671 1E80                  u5591 1C90  
                u7280 4910                  u6800 3EEE  
                u6720 40BE                  u6640 4522  
                u6560 4EAA                  u6480 39B0  
                u5920 2598                  u5840 2368  
                u5760 2114                  u5680 1E8E  
                u7281 490E                  u6801 3EEC  
                u6721 40BC                  u6641 4520  
                u6561 4EA8                  u6481 39AE  
                u5921 2596                  u5841 2366  
                u5761 2110                  u5681 1E8C  
                u7290 495C                  u6810 3F36  
                u6730 411E                  u6650 455A  
                u6570 4B86                  u6490 552C  
                u5930 25DE                  u5850 23A8  
                u5770 2140                  u5690 1ECA  
                u7291 495A                  u6811 3F34  
                u6731 411C                  u6651 4558  
                u6571 4B84                  u6491 552A  
                u5931 25DC                  u5851 23A6  
                u5771 213E                  u5691 1EC8  
                u6900 52C4                  u6820 3F7A  
                u6740 55D4                  u6660 4592  
                u6580 4BBE                  u5940 25F6  
                u5860 23C2                  u5780 2150  
                u6901 52C2                  u6821 3F78  
                u6741 55D2                  u6661 4590  
                u6581 4BBC                  u5941 25F4  
                u5861 23C0                  u5781 214E  
                u6910 52E4                  u6830 41D4  
                u6750 55E2                  u6670 45EC  
                u6590 4C0A                  u5950 264C  
                u5870 2410                  u5790 215C  
                u6911 52E2                  u6831 41D2  
                u6751 55E0                  u6671 45EA  
                u6591 4C08                  u5951 264A  
                u5871 240E                  u5791 215A  
                u6920 530C                  u6840 41E0  
                u6760 3DD8                  u6680 3FAA  
                u5960 265C                  u5880 2426  
                u6921 530A                  u6841 41DE  
                u6761 3DD6                  u6681 3FA8  
                u5961 265A                  u5881 2424  
                u6930 4A46                  u6850 4218  
                u6770 3E1E                  u6690 3FE6  
                u5970 268C                  u5890 2448  
                u6931 4A44                  u6851 4216  
                u6771 3E1C                  u6691 3FE4  
                u5971 268A                  u5891 2446  
                u6940 4A70                  u6860 4280  
                u6780 3E8E                  u5980 26A2  
                u6941 4A6E                  u6861 427E  
                u6781 3E8C                  u5981 26A0  
                u6950 4AA4                  u6870 42F4  
                u6790 3EDC                  u5990 26DA  
                u6951 4AA2                  u6871 42F2  
                u6791 3EDA                  u5991 26D8  
                u6960 4AD4                  u6880 5328  
                u6961 4AD2                  u6881 5326  
                u6970 4B00                  u6890 5368  
                u6971 4AFE                  u6891 5366  
                u6980 4B40                  u6981 4B3E  
                u6990 435C                  u6991 435A  
                _TIME 00000C                  _TRMT 007D61  
                _main 3B08          ___ftpack@arg 0187  
        ___ftpack@exp 0189                  fsr0h 000FEA  
                fsr1h 000FE2                  indf0 000FEF  
                fsr0l 000FE9                  fsr2h 000FDA  
                indf1 000FE7                  fsr1l 000FE1  
                fsr2l 000FD9                  pclat 000FFA  
                prodh 000FF4                  prodl 000FF3  
                start 0818          _sprintf$1202 013C  
        _sprintf$1154 012B          _sprintf$1168 012E  
        _sprintf$1193 0138          _sprintf$1169 0131  
        _sprintf$1194 013B          _sprintf$1187 0135  
        _sprintf$1179 0132          ___ftmul@exp1 0181  
        ___ftmul@cntr 0182           LCD_Out@DATA 0122  
         LCD_Move@Col 0123           LCD_Move@Row 0122  
        ___fttol@exp1 0160          ___fttol@lval 0161  
    __end_of_LCD_Init 520C      __end_of_LCD_Inst 53C2  
    __end_of_LCD_Move 5290       __end_of_Wait_ms 530E  
       ___ftdiv@sign1 0167         ___ftdiv@sign2 0169  
          _Final_TIME 000008       __end_of___aldiv 4152  
     __end_of___almod 4620                 ?_main 0100  
     __end_of___awdiv 4B5A       __end_of___ftadd 3800  
               _CCPR1 000FBE                 _CCPR2 000FBB  
     __end_of___awmod 4D78       __end_of___ftdiv 4498  
     __end_of___ftneg 5554       __end_of___lldiv 4C70  
     __end_of___ftmul 430A       ___awdiv@divisor 017C  
               _T1CON 000FCD       __end_of___llmod 4E5A  
     __end_of___ftsub 5516       __end_of___fttol 48EC  
               i2l110 509A                 i2l111 5056  
               i2l112 5078                 i2l113 509A  
     ___awdiv@counter 017E                 _TIME0 000000  
               _TIME1 000004                 _PORTD 000F83  
               _TRISA 000F92                 _TRISB 000F93  
               _TRISC 000F94                 _TRISD 000F95  
               _TXREG 000FAD          ___lltoft@exp 015F  
               _scale 2F36       __end_of_isdigit 55EC  
               main@i 0100                 tablat 000FF5  
               plusw0 000FEB                 status 000FD8  
     __end_of_sprintf 2F36         ___ftmul@sign1 0180  
        __end_of_main 3D8A      __end_of_IntServe 50D0  
              ??_main 0100         ___fttol@sign1 015F  
       __activetblptr 000003     __end_of_LCD_Pause 55C6  
           ??_LCD_Out 0128     __end_of_LCD_Write 5590  
              _ADCON1 000FC1                _CCP1IE 007CEA  
              _CCP1IF 007CF2                _CCP2IE 007D00  
              _CCP2IF 007D08      ___llmod@dividend 015B  
              ?_scale 015B      ___awdiv@dividend 017A  
    __end_of___ftpack 4A2A      __end_of___lltoft 500A  
              i2u7330 503C                i2u7331 503A  
              i2u7340 505E                i2u7341 505C  
              i2u7350 5080                i2u7351 507E  
              _TMR1IE 007CE8                _TMR1IF 007CF0  
              _TMR1CS 007E69                _TMR1IP 007CF8  
              _TMR1ON 007E68                _TRISC1 007CA1  
              _TRISC2 007CA2                __Ldata 000000  
           ??_Wait_ms 0128                ___ftge 4E5A  
           ??___aldiv 013C             ??___almod 013C  
              ___wmul 530E             ??___awdiv 017E  
           ??___ftadd 016C             ??___awmod 017E  
           ??___ftdiv 0166             ??___ftneg 015E  
           ??___lldiv 0163             ??___ftmul 0180  
           ??___llmod 0163             ??___ftsub 0166  
           ??___fttol 015F                _fround 3800  
    ___awdiv@quotient 0180       ___awmod@divisor 017C  
     ___awmod@counter 017F             ??_isdigit 015C  
        __mediumconst 10B4                preinc0 000FEC  
              tblptrh 000FF7                tblptrl 000FF6  
              tblptru 000FF8             ??_sprintf 012B  
          __accesstop 0080             ?_LCD_Init 0122  
           ?_LCD_Inst 0124             ?_LCD_Move 0122  
          ___ftadd@f1 0166            ___ftadd@f2 0169  
          ___ftge@ff1 015B            ___ftge@ff2 015E  
          ___ftdiv@f1 0160            ___ftdiv@f2 0163  
          ___ftdiv@f3 016A            ___ftneg@f1 015B  
          ___ftmul@f1 017A            ___ftmul@f2 017D  
          ___ftmul@f3 0183             LCD_Inst@c 0124  
          ___ftsub@f1 0160            ___ftsub@f2 0163  
          ___fttol@f1 015B            ___ftunpack 50D0  
          ___lltoft@c 015B         __end_of_scale 34C6  
        ??_LCD_Strobe 0136          sprintf@integ 0148  
             ??_scale 015E          sprintf@width 0142  
           ?_IntServe 018F            ??_LCD_Init 0122  
          ??_LCD_Inst 0125            ??_LCD_Move 0124  
  __end_of_LCD_Strobe 5600             l100000732 55E6  
           l200000733 55E8               ?___ftge 015B  
             ?___wmul 017A        ___ftunpack@arg 0187  
           l500000700 2D80        ___ftunpack@exp 0189  
           l500000665 1D54             l500000691 2712  
             _CCP1CON 000FBD               _CCP2CON 000FBA  
   __end_of___asftadd 548E     __end_of___asftdiv 54D2  
           l600000734 41E0             l600000662 1BE0  
           l600000735 35E0             l600000647 1874  
           l600000736 368A             l600000664 1C9E  
           l600000648 1874             l600000737 4910  
             ?_fround 015B             l600000690 265C  
           l600000682 23A8             l600000685 2460  
           l600000669 1E8E             l600000694 288C  
   __end_of___asftmul 5406     __end_of___asftsub 544A  
           ?___ftpack 0187             ?___lltoft 015B  
             _LCD_Out 4620            ??_IntServe 018F  
             __Hparam 019C            _scale$1210 015E  
          _scale$1211 0160            _scale$1212 0162  
          _scale$1213 0164            _scale$1231 0172  
          _scale$1224 0169            _scale$1225 016B  
          _scale$1217 0167            _scale$1226 016D  
          _scale$1227 016F               __Lparam 0100  
             _Wait_ms 5290           ?___ftunpack 0187  
             ___aldiv 3F8E               ___almod 4498  
             ___awdiv 4A2A               ___ftadd 34C6  
             ___awmod 4C70               ___ftdiv 430A  
             ___ftneg 5516               ___lldiv 4B5A  
             ___ftmul 4152               ___llmod 4D78  
             ___ftsub 54D2               ___fttol 47A8  
          ??___ftpack 018A               __ramtop 1000  
          ??___lltoft 015F               _dpowers 1001  
             _isdigit 55C6      ___awmod@dividend 017A  
    ___aldiv@dividend 0134             _LCD_Pause 5590  
             _sprintf 10B4             _LCD_Write 5554  
       __Lmediumconst 10B4               int_func 0808  
     ___lldiv@divisor 015F       ___lldiv@counter 0163  
    ___aldiv@quotient 013E               postdec0 000FED  
             postinc0 000FEE        __tdiv_to_l_@f1 015B  
      __tdiv_to_l_@f2 015E         ??__tdiv_to_l_ 0161  
          ?_LCD_Pause 0136            ?_LCD_Write 0134  
          LCD_Pause@x 0136        __end_of___ftge 4F3A  
      __end_of___wmul 5374           ___lltoft@f1 0160  
          LCD_Write@c 0134        __end_of_fround 3B08  
 __end_of__tdiv_to_l_ 3F8E             __Habsbss0 000010  
           __Labsbss0 000000       ___llmod@divisor 015F  
     ___llmod@counter 0163              ??___ftge 0161  
            ??___wmul 017E              ??_fround 015E  
          fround@prec 015B             ___asftadd 544A  
           ___asftdiv 548E              ?_LCD_Out 0122  
           ___asftmul 53C2             ___asftsub 5406  
            LCD_Out@A 0129              LCD_Out@D 0126  
            LCD_Out@N 0127              LCD_Out@i 0128  
         ??_LCD_Pause 0136           ??_LCD_Write 0135  
         sprintf@_val 014E           sprintf@flag 0146  
         sprintf@fval 014B           sprintf@prec 0144  
         sprintf@temp 0152              ?_Wait_ms 0126  
        ??___ftunpack 018B              ?___aldiv 0134  
            ?___almod 0134              ?___awdiv 017A  
            ?___ftadd 0166              ?___awmod 017A  
            ?___ftdiv 0160              ?___ftneg 015B  
            ?___lldiv 015B              ?___ftmul 017A  
            ?___llmod 015B             __npowers_ 1029  
            ?___ftsub 0160              ?___fttol 015B  
    ___almod@dividend 0134           __tdiv_to_l_ 3D8A  
     ___ftunpack@sign 018B           __smallconst 1000  
          ?___asftadd 015B            ?___asftdiv 015B  
            ?_isdigit 015B            ?___asftmul 015B  
          ?___asftsub 015B             _hexpowers 1077  
            ?_sprintf 0122    __end_of___ftunpack 517A  
     ___aldiv@divisor 0138       ___aldiv@counter 013C  
            _LCD_Init 517A              _LCD_Inst 5374  
            _LCD_Move 520C        ___wmul@product 017E  
   ___wmul@multiplier 017A             main@array 010B  
            _IntServe 500A              __Hparam1 019C  
            __Lparam1 0100              Wait_ms@X 0126  
            Wait_ms@i 0128              Wait_ms@j 012A  
        __Lsmallconst 1000              ___ftpack 48EC  
         _fround$1240 0160           _fround$1241 0162  
         _fround$1242 0164           _fround$1247 0167  
         _fround$1239 015E              ___lltoft 4F3A  
         ??___asftadd 0160           ??___asftdiv 0160  
          sprintf@exp 0140           ??___asftmul 0160  
         ??___asftsub 0160              __powers_ 1050  
     ___almod@divisor 0138       ___almod@counter 013D  
            main@TEMP 0108            _LCD_Strobe 55EC  
            isdigit@c 015B              scale@scl 015B  
            intlevel2 5600             sprintf@ap 013E  
    __tdiv_to_l_@exp1 0162      __tdiv_to_l_@cntr 0161  
           sprintf@sp 0122      __tdiv_to_l_@quot 0163  
    ___lldiv@dividend 015B          main@HEIGHT_f 0102  
        main@HEIGHT_m 0105          ?__tdiv_to_l_ 015B  
            sprintf@c 013D              sprintf@f 0124  
    ___lldiv@quotient 0164          ___aldiv@sign 013D  
        ___almod@sign 013C  
